 CommFramwork

 Timestamp is 5adefb83 (Tue Apr 24 17:40:19 2018)

 Preferred load address is 0000000180000000

 Start         Length     Name                   Class
 0001:00000000 00004680H .text$di                CODE
 0001:00004680 000181c0H .text$mn                CODE
 0001:0001c840 00000020H .text$mn$00             CODE
 0001:0001c860 00003150H .text$x                 CODE
 0001:0001f9b0 0000747eH .text$yd                CODE
 0002:00000000 00000488H .idata$5                DATA
 0002:00000488 00000010H .00cfg                  DATA
 0002:00000498 00000008H .CRT$XCA                DATA
 0002:000004a0 000005f0H .CRT$XCU                DATA
 0002:00000a90 00000008H .CRT$XCZ                DATA
 0002:00000a98 00000008H .CRT$XIA                DATA
 0002:00000aa0 00000008H .CRT$XIZ                DATA
 0002:00000aa8 00000008H .CRT$XPA                DATA
 0002:00000ab0 00000008H .CRT$XPZ                DATA
 0002:00000ab8 00000008H .CRT$XTA                DATA
 0002:00000ac0 00000010H .CRT$XTZ                DATA
 0002:00000ad0 00003ef0H .rdata                  DATA
 0002:000049c0 000020bcH .rdata$r                DATA
 0002:00006a7c 00000334H .rdata$zzzdbg           DATA
 0002:00006db0 00000008H .rtc$IAA                DATA
 0002:00006db8 00000008H .rtc$IZZ                DATA
 0002:00006dc0 00000008H .rtc$TAA                DATA
 0002:00006dc8 00000008H .rtc$TZZ                DATA
 0002:00006dd0 00005df8H .xdata                  DATA
 0002:0000cbc8 000000f8H .xdata$x                DATA
 0002:0000ccc0 00003e3cH .edata                  DATA
 0002:00010afc 000000f0H .idata$2                DATA
 0002:00010bec 00000014H .idata$3                DATA
 0002:00010c00 00000488H .idata$4                DATA
 0002:00011088 00001264H .idata$6                DATA
 0003:00000000 00000040H .data                   DATA
 0003:00000040 00000a30H .data$r                 DATA
 0003:00000a70 00001810H .bss                    DATA
 0004:00000000 00002b80H .pdata                  DATA
 0005:00000000 0000002cH .gfids$y                DATA
 0006:00000000 00000060H .rsrc$01                DATA
 0006:00000060 00000180H .rsrc$02                DATA

  Address         Publics by Value              Rva+Base               Lib:Object

 0000:00000000       __dynamic_value_reloc_table 0000000000000000     <absolute>
 0000:00000000       __guard_longjmp_count      0000000000000000     <absolute>
 0000:00000000       __guard_iat_table          0000000000000000     <absolute>
 0000:00000000       __guard_iat_count          0000000000000000     <absolute>
 0000:00000000       __guard_longjmp_table      0000000000000000     <absolute>
 0000:00000000       __guard_fids_count         0000000000000000     <absolute>
 0000:00000000       ___safe_se_handler_table   0000000000000000     <absolute>
 0000:00000000       ___safe_se_handler_count   0000000000000000     <absolute>
 0000:00000000       __guard_fids_table         0000000000000000     <absolute>
 0000:00000100       __guard_flags              0000000000000100     <absolute>
 0000:00000000       __ImageBase                0000000180000000     <linker-defined>
 0001:00004680       ??1exception@std@@UEAA@XZ  0000000180005680 f i Connector.obj
 0001:000046a0       ?what@exception@std@@UEBAPEBDXZ 00000001800056a0 f i Connector.obj
 0001:000046c0       ??_Eexception@std@@UEAAPEAXI@Z 00000001800056c0 f i * CIL library *:* CIL module *
 0001:000046c0       ??_Gexception@std@@UEAAPEAXI@Z 00000001800056c0 f i Connector.obj
 0001:00004710       ??1?$CSingleton@VCSelectorIo@@@@IEAA@XZ 0000000180005710 f i ProtocolComm.obj
 0001:00004710       ??$destroy@PEAD@?$_Wrap_alloc@V?$allocator@D@std@@@std@@QEAAXPEAPEAD@Z 0000000180005710 f i Connector.obj
 0001:00004710       ??1?$CSingleton@VCSelectorListen@@@@IEAA@XZ 0000000180005710 f i ProtocolComm.obj
 0001:00004710       ??3@YAXPEAX0@Z             0000000180005710 f i Connector.obj
 0001:00004710       ??1?$_Deque_const_iterator@V?$_Deque_val@U?$_Deque_simple_types@U?$pair@_JPEAUtagKeyContex@@@std@@@std@@@std@@@std@@QEAA@XZ 0000000180005710 f i Connector.obj
 0001:00004710       ??1?$_Deque_iterator@V?$_Deque_val@U?$_Deque_simple_types@U?$pair@_JPEAUtagKeyContex@@@std@@@std@@@std@@@std@@QEAA@XZ 0000000180005710 f i Connector.obj
 0001:00004710       ??1?$_Deque_const_iterator@V?$_Deque_val@U?$_Deque_simple_types@U?$pair@_KPEAX@std@@@std@@@std@@@std@@QEAA@XZ 0000000180005710 f i ProtocolComm.obj
 0001:00004710       _guard_check_icall_nop     0000000180005710 f i MSVCRT:guard_support.obj
 0001:00004710       ??1?$_Deque_iterator@V?$_Deque_val@U?$_Deque_simple_types@U?$pair@_KPEAX@std@@@std@@@std@@@std@@QEAA@XZ 0000000180005710 f i ProtocolComm.obj
 0001:00004710       ?TimerCanceled@CProcessTimer@CAppProcess@@UEAAXAEBV?$basic_string@DU?$char_traits@D@std@@V?$allocator@D@2@@std@@@Z 0000000180005710 f i ProtocolProcess.obj
 0001:00004710       ??1?$_Deque_const_iterator@V?$_Deque_val@U?$_Deque_simple_types@PEAUtagKeyContex@@@std@@@std@@@std@@QEAA@XZ 0000000180005710 f i Connector.obj
 0001:00004710       ??1?$_Deque_iterator@V?$_Deque_val@U?$_Deque_simple_types@PEAUtagKeyContex@@@std@@@std@@@std@@QEAA@XZ 0000000180005710 f i Connector.obj
 0001:00004720       ?_Allocate@std@@YAPEAX_K0_N@Z 0000000180005720 f i Connector.obj
 0001:000047a0       ?dec@std@@YAAEAVios_base@1@AEAV21@@Z 00000001800057a0 f i Connector.obj
 0001:000047c0       ?fixed@std@@YAAEAVios_base@1@AEAV21@@Z 00000001800057c0 f i Connector.obj
 0001:000047e0       ?left@std@@YAAEAVios_base@1@AEAV21@@Z 00000001800057e0 f i Connector.obj
 0001:000047f0       ??0CAction@@QEAA@XZ        00000001800057f0 f i Connector.obj
 0001:00004830       ??1CAction@@UEAA@XZ        0000000180005830 f i Connector.obj
 0001:00004860       ?GetStage@CAction@@IEAA?AW4eStage@1@XZ 0000000180005860 f i Connector.obj
 0001:000048a0       ?StateCheck@CAction@@MEAA_NW4eStage@1@@Z 00000001800058a0 f i Connector.obj
 0001:00004960       ?StateRollback@CAction@@MEAAXXZ 0000000180005960 f i Connector.obj
 0001:000049d0       ??0CAction@@QEAA@AEBV0@@Z  00000001800059d0 f i Connector.obj
 0001:00004a10       ??4CProtocolComm@@QEAAAEAV0@AEBV0@@Z 0000000180005a10 f i Connector.obj
 0001:00004a10       ??4CAction@@QEAAAEAV0@AEBV0@@Z 0000000180005a10 f i Connector.obj
 0001:00004a30       ??_ECAction@@UEAAPEAXI@Z   0000000180005a30 f i Connector.obj
 0001:00004ad0       ??0CPacket@@QEAA@XZ        0000000180005ad0 f i Connector.obj
 0001:00004ad0       ??0CPacket@@QEAA@AEBV0@@Z  0000000180005ad0 f i Connector.obj
 0001:00004ad0       ??0CPacket@@QEAA@$$QEAV0@@Z 0000000180005ad0 f i Connector.obj
 0001:00004ae0       ??4CProtocolProcess@@QEAAAEAV0@AEBV0@@Z 0000000180005ae0 f i Connector.obj
 0001:00004ae0       ??0?$CSingleton@VCSelectorListen@@@@IEAA@XZ 0000000180005ae0 f i ProtocolComm.obj
 0001:00004ae0       ??4CConnectPointAsyn@@QEAAAEAV0@AEBV0@@Z 0000000180005ae0 f i Connector.obj
 0001:00004ae0       ??4CProtocolCpMgr@@QEAAAEAV0@$$QEAV0@@Z 0000000180005ae0 f i Connector.obj
 0001:00004ae0       ??4CConnectPointSync@@QEAAAEAV0@AEBV0@@Z 0000000180005ae0 f i Connector.obj
 0001:00004ae0       ??0?$_Wrap_alloc@V?$allocator@D@std@@@std@@QEAA@XZ 0000000180005ae0 f i Connector.obj
 0001:00004ae0       ??4CProtocolCpMgr@@QEAAAEAV0@AEBV0@@Z 0000000180005ae0 f i Connector.obj
 0001:00004ae0       ??4CPacketRouteable@@QEAAAEAV0@$$QEAV0@@Z 0000000180005ae0 f i Connector.obj
 0001:00004ae0       ??4CConnectPointManager@@QEAAAEAV0@AEBV0@@Z 0000000180005ae0 f i Connector.obj
 0001:00004ae0       ??4CConnectPointAsyn@@QEAAAEAV0@$$QEAV0@@Z 0000000180005ae0 f i Connector.obj
 0001:00004ae0       ??0?$CSingleton@VCSelectorIo@@@@IEAA@XZ 0000000180005ae0 f i ProtocolComm.obj
 0001:00004ae0       ??4CPacketRouteable@@QEAAAEAV0@AEBV0@@Z 0000000180005ae0 f i Connector.obj
 0001:00004ae0       ??4CPacket@@QEAAAEAV0@$$QEAV0@@Z 0000000180005ae0 f i Connector.obj
 0001:00004ae0       ??4CConnectPointManager@@QEAAAEAV0@$$QEAV0@@Z 0000000180005ae0 f i Connector.obj
 0001:00004ae0       ??4CPacket@@QEAAAEAV0@AEBV0@@Z 0000000180005ae0 f i Connector.obj
 0001:00004ae0       ??4CConnectPointSync@@QEAAAEAV0@$$QEAV0@@Z 0000000180005ae0 f i Connector.obj
 0001:00004af0       ??0CPacketRouteable@@QEAA@AEBV0@@Z 0000000180005af0 f i Connector.obj
 0001:00004af0       ??0CPacketRouteable@@QEAA@$$QEAV0@@Z 0000000180005af0 f i Connector.obj
 0001:00004af0       ??0CPacketRouteable@@QEAA@XZ 0000000180005af0 f i Connector.obj
 0001:00004b20       ??0CConnectPointManager@@QEAA@$$QEAV0@@Z 0000000180005b20 f i Connector.obj
 0001:00004b20       ??0CConnectPointManager@@QEAA@AEBV0@@Z 0000000180005b20 f i Connector.obj
 0001:00004b20       ??0CConnectPointManager@@QEAA@XZ 0000000180005b20 f i Connector.obj
 0001:00004b30       ??0CProtocolCpMgr@@QEAA@AEBV0@@Z 0000000180005b30 f i Connector.obj
 0001:00004b30       ??0CProtocolCpMgr@@QEAA@$$QEAV0@@Z 0000000180005b30 f i Connector.obj
 0001:00004b30       ??0CProtocolCpMgr@@QEAA@XZ 0000000180005b30 f i Connector.obj
 0001:00004b60       ??0CConnectPointAsyn@@QEAA@AEBV0@@Z 0000000180005b60 f i Connector.obj
 0001:00004b60       ??0CConnectPointAsyn@@QEAA@$$QEAV0@@Z 0000000180005b60 f i Connector.obj
 0001:00004b60       ??0CConnectPointAsyn@@QEAA@XZ 0000000180005b60 f i Connector.obj
 0001:00004b70       ??0CConnectPointSync@@QEAA@XZ 0000000180005b70 f i Connector.obj
 0001:00004b70       ??0CConnectPointSync@@QEAA@AEBV0@@Z 0000000180005b70 f i Connector.obj
 0001:00004b70       ??0CConnectPointSync@@QEAA@$$QEAV0@@Z 0000000180005b70 f i Connector.obj
 0001:00004b80       ??0CProtocolProcess@@QEAA@AEBV0@@Z 0000000180005b80 f i Connector.obj
 0001:00004b80       ??0CProtocolProcess@@QEAA@XZ 0000000180005b80 f i Connector.obj
 0001:00004b90       ??1CProtocolProcess@@UEAA@XZ 0000000180005b90 f i Connector.obj
 0001:00004ba0       ??_ECProtocolProcess@@UEAAPEAXI@Z 0000000180005ba0 f i Connector.obj
 0001:00004c30       ??0CProtocolComm@@QEAA@XZ  0000000180005c30 f i Connector.obj
 0001:00004c80       ??1CProtocolComm@@UEAA@XZ  0000000180005c80 f i Connector.obj
 0001:00004cc0       ??0CProtocolComm@@QEAA@AEBV0@@Z 0000000180005cc0 f i Connector.obj
 0001:00004d00       ??_ECProtocolComm@@UEAAPEAXI@Z 0000000180005d00 f i Connector.obj
 0001:00004db0       ??0CAio@@QEAA@XZ           0000000180005db0 f i Connector.obj
 0001:00004e40       ??1CAio@@UEAA@XZ           0000000180005e40 f i Connector.obj
 0001:00004f40       ?GetKeyContex@CAio@@QEAAPEAUtagKeyContex@@XZ 0000000180005f40 f i Connector.obj
 0001:00005010       ?FreeKeyContex@CAio@@QEAAXPEAUtagKeyContex@@@Z 0000000180006010 f i Connector.obj
 0001:00005060       ??0CAio@@QEAA@AEBV0@@Z     0000000180006060 f i Connector.obj
 0001:000050c0       ??4CAio@@QEAAAEAV0@AEBV0@@Z 00000001800060c0 f i Connector.obj
 0001:00005120       ??_ECAio@@UEAAPEAXI@Z      0000000180006120 f i Connector.obj
 0001:000051b0       ??_D?$basic_stringstream@DU?$char_traits@D@std@@V?$allocator@D@2@@std@@QEAAXXZ 00000001800061b0 f i Connector.obj
 0001:000051e0       ??1CWorkerNm@CWorkThreadNm@@UEAA@XZ 00000001800061e0 f i Connector.obj
 0001:000051f0       ?Query@CWorkerNm@CWorkThreadNm@@UEBAHAEAVCNMO@@@Z 00000001800061f0 f i Connector.obj
 0001:00005210       ?Query@CWorkerNm@CWorkThreadNm@@UEBAHAEAV?$vector@VCNMO@@V?$allocator@VCNMO@@@std@@@std@@@Z 0000000180006210 f i Connector.obj
 0001:00005230       __scrt_stub_for_is_c_termination_complete 0000000180006230 f i MSVCRT:ucrt_stubs.obj
 0001:00005230       ?Operate@CWorkerNm@CWorkThreadNm@@UEAAHAEBV?$basic_string@DU?$char_traits@D@std@@V?$allocator@D@2@@std@@H00@Z 0000000180006230 f i Connector.obj
 0001:00005230       _is_c_termination_complete 0000000180006230 f i MSVCRT:ucrt_stubs.obj
 0001:00005240       ?ID@CWorkThreadNm@@IEAAIXZ 0000000180006240 f i Connector.obj
 0001:00005250       ??0CWorkThreadNm@@QEAA@AEBV0@@Z 0000000180006250 f i Connector.obj
 0001:00005320       ??4CWorkThreadNm@@QEAAAEAV0@AEBV0@@Z 0000000180006320 f i Connector.obj
 0001:000053a0       ??_ECWorkThreadNm@@UEAAPEAXI@Z 00000001800063a0 f i Connector.obj
 0001:00005460       ??_ECWorkerNm@CWorkThreadNm@@UEAAPEAXI@Z 0000000180006460 f i * CIL library *:* CIL module *
 0001:00005460       ??_GCWorkerNm@CWorkThreadNm@@UEAAPEAXI@Z 0000000180006460 f i Connector.obj
 0001:00005490       ?V@CConnector@@AEAAXXZ     0000000180006490 f i Connector.obj
 0001:000054a0       ?P@CConnector@@AEAAXXZ     00000001800064a0 f i Connector.obj
 0001:000054b0       ??0CConnector@@QEAA@AEBV0@@Z 00000001800064b0 f i Connector.obj
 0001:00005590       ??4CConnector@@QEAAAEAV0@AEBV0@@Z 0000000180006590 f i Connector.obj
 0001:00005640       ??_ECConnector@@UEAAPEAXI@Z 0000000180006640 f i Connector.obj
 0001:000056d0       ?SocketID@CListener@@QEAA_KXZ 00000001800066d0 f i Connector.obj
 0001:000056e0       ?ListenPort@CListener@@QEAAHXZ 00000001800066e0 f i Connector.obj
 0001:000056f0       ??0CListener@@QEAA@AEBV0@@Z 00000001800066f0 f i Connector.obj
 0001:00005790       ??4CListener@@QEAAAEAV0@AEBV0@@Z 0000000180006790 f i Connector.obj
 0001:00005820       ??_ECListener@@UEAAPEAXI@Z 0000000180006820 f i Connector.obj
 0001:000058b0       ??1CProtocolCommNm@CProtocolCommImp@@UEAA@XZ 00000001800068b0 f i Connector.obj
 0001:000058c0       ?Query@CProtocolCommNm@CProtocolCommImp@@UEBAHAEAVCNMO@@@Z 00000001800068c0 f i Connector.obj
 0001:000058e0       ?Query@CProtocolCommNm@CProtocolCommImp@@UEBAHAEAV?$vector@VCNMO@@V?$allocator@VCNMO@@@std@@@std@@@Z 00000001800068e0 f i Connector.obj
 0001:00005950       ?Operate@CProtocolCommNm@CProtocolCommImp@@UEAAHAEBV?$basic_string@DU?$char_traits@D@std@@V?$allocator@D@2@@std@@H00@Z 0000000180006950 f i Connector.obj
 0001:00005970       ??1CProtocolCommWorker@CProtocolCommImp@@UEAA@XZ 0000000180006970 f i Connector.obj
 0001:00005a10       ?ThreadEntry@CProtocolCommWorker@CProtocolCommImp@@EEAAHXZ 0000000180006a10 f i Connector.obj
 0001:00005c30       ?End@CProtocolCommWorker@CProtocolCommImp@@EEAAHXZ 0000000180006c30 f i Connector.obj
 0001:00005c60       ?IsNetManaged@CProtocolCommWorker@CProtocolCommImp@@EEAA_NAEAV?$basic_string@DU?$char_traits@D@std@@V?$allocator@D@2@@std@@@Z 0000000180006c60 f i Connector.obj
 0001:00005c80       ??0CProtocolCommImp@@QEAA@AEBV0@@Z 0000000180006c80 f i Connector.obj
 0001:00005d90       ??4CProtocolCommImp@@QEAAAEAV0@AEBV0@@Z 0000000180006d90 f i Connector.obj
 0001:00005e70       ??_ECProtocolCommImp@@UEAAPEAXI@Z 0000000180006e70 f i Connector.obj
 0001:00005f00       ??_GCProtocolCommNm@CProtocolCommImp@@UEAAPEAXI@Z 0000000180006f00 f i Connector.obj
 0001:00005f00       ??_ECProtocolCommNm@CProtocolCommImp@@UEAAPEAXI@Z 0000000180006f00 f i * CIL library *:* CIL module *
 0001:00005f30       ??_ECProtocolCommWorker@CProtocolCommImp@@UEAAPEAXI@Z 0000000180006f30 f i * CIL library *:* CIL module *
 0001:00005f30       ??_GCProtocolCommWorker@CProtocolCommImp@@UEAAPEAXI@Z 0000000180006f30 f i Connector.obj
 0001:00005f70       ??1?$map@_KPEAUtagKeyContex@@U?$less@_K@std@@V?$allocator@U?$pair@$$CB_KPEAUtagKeyContex@@@std@@@3@@std@@QEAA@XZ 0000000180006f70 f i Connector.obj
 0001:00005f70       ??1?$map@_KPEAXU?$less@_K@std@@V?$allocator@U?$pair@$$CB_KPEAX@std@@@2@@std@@QEAA@XZ 0000000180006f70 f i ProtocolComm.obj
 0001:00005fb0       ??0CProtocolCommClient@@QEAA@AEBV0@@Z 0000000180006fb0 f i Connector.obj
 0001:00006020       ??4CProtocolCommClient@@QEAAAEAV0@AEBV0@@Z 0000000180007020 f i Connector.obj
 0001:00006070       ??_ECProtocolCommClient@@UEAAPEAXI@Z 0000000180007070 f i Connector.obj
 0001:00006100       ??0CProtocolCommServer@@QEAA@AEBV0@@Z 0000000180007100 f i Connector.obj
 0001:00006160       ??4CProtocolCommServer@@QEAAAEAV0@AEBV0@@Z 0000000180007160 f i Connector.obj
 0001:000061a0       ??_ECProtocolCommServer@@UEAAPEAXI@Z 00000001800071a0 f i Connector.obj
 0001:00006230       ??0CTcpShortComm@@QEAA@XZ  0000000180007230 f i Connector.obj
 0001:00006320       ??1CTcpShortComm@@UEAA@XZ  0000000180007320 f i Connector.obj
 0001:00006390       ??0CTcpShortComm@@QEAA@AEBV0@@Z 0000000180007390 f i Connector.obj
 0001:00006420       ??4CTcpShortComm@@QEAAAEAV0@AEBV0@@Z 0000000180007420 f i Connector.obj
 0001:00006480       ??_ECTcpShortComm@@UEAAPEAXI@Z 0000000180007480 f i Connector.obj
 0001:00006510       ??1tagProxyData@CTcpShortComm@@QEAA@XZ 0000000180007510 f i Connector.obj
 0001:00006550       ??0tagProxyData@CTcpShortComm@@QEAA@AEBU01@@Z 0000000180007550 f i Connector.obj
 0001:00006610       ??4tagProxyData@CTcpShortComm@@QEAAAEAU01@AEBU01@@Z 0000000180007610 f i Connector.obj
 0001:00006690       ??0CConnector@@QEAA@PEAVCProtocolCommClient@@@Z 0000000180007690 f   Connector.obj
 0001:00006780       ??1CConnector@@UEAA@XZ     0000000180007780 f   Connector.obj
 0001:00006870       ?Init@CConnector@@UEAAHPEAVCConfig@@@Z 0000000180007870 f   Connector.obj
 0001:00007010       ??1?$pair@V?$basic_string@DU?$char_traits@D@std@@V?$allocator@D@2@@std@@H@std@@QEAA@XZ 0000000180008010 f i Connector.obj
 0001:00007030       ?Finish@CConnector@@UEAAXXZ 0000000180008030 f   Connector.obj
 0001:00007040       ?Start@CConnector@@UEAAHXZ 0000000180008040 f   Connector.obj
 0001:00007080       ?Stop@CConnector@@UEAAXXZ  0000000180008080 f   Connector.obj
 0001:000070b0       ?NotifyConnect@CConnector@@QEAAXXZ 00000001800080b0 f   Connector.obj
 0001:00007130       ?ThreadEntry@CConnector@@EEAAHXZ 0000000180008130 f   Connector.obj
 0001:00007870       ?End@CConnector@@EEAAHXZ   0000000180008870 f   Connector.obj
 0001:00007980       ?IsNetManaged@CConnector@@EEAA_NAEAV?$basic_string@DU?$char_traits@D@std@@V?$allocator@D@2@@std@@@Z 0000000180008980 f   Connector.obj
 0001:00007cb0       ??1?$vector@HV?$allocator@H@std@@@std@@QEAA@XZ 0000000180008cb0 f i Connector.obj
 0001:00007cf0       ?push_back@?$vector@HV?$allocator@H@std@@@std@@QEAAX$$QEAH@Z 0000000180008cf0 f i Connector.obj
 0001:00007e50       ??1?$_Tree@V?$_Tmap_traits@_KPEAXU?$less@_K@std@@V?$allocator@U?$pair@$$CB_KPEAX@std@@@2@$0A@@std@@@std@@QEAA@XZ 0000000180008e50 f i ProtocolComm.obj
 0001:00007e50       ??1?$_Tree@V?$_Tmap_traits@_KPEAUtagKeyContex@@U?$less@_K@std@@V?$allocator@U?$pair@$$CB_KPEAUtagKeyContex@@@std@@@3@$0A@@std@@@std@@QEAA@XZ 0000000180008e50 f i Connector.obj
 0001:00007e90       ?push_back@?$deque@U?$pair@_JPEAUtagKeyContex@@@std@@V?$allocator@U?$pair@_JPEAUtagKeyContex@@@std@@@2@@std@@QEAAXAEBU?$pair@_JPEAUtagKeyContex@@@2@@Z 0000000180008e90 f i Connector.obj
 0001:00007e90       ?push_back@?$deque@U?$pair@_KPEAX@std@@V?$allocator@U?$pair@_KPEAX@std@@@2@@std@@QEAAXAEBU?$pair@_KPEAX@2@@Z 0000000180008e90 f i ProtocolComm.obj
 0001:00007f30       ?end@?$deque@PEAUtagKeyContex@@V?$allocator@PEAUtagKeyContex@@@std@@@std@@QEAA?AV?$_Deque_iterator@V?$_Deque_val@U?$_Deque_simple_types@PEAUtagKeyContex@@@std@@@std@@@2@XZ 0000000180008f30 f i Connector.obj
 0001:00007f30       ?end@?$deque@U?$pair@_KPEAX@std@@V?$allocator@U?$pair@_KPEAX@std@@@2@@std@@QEAA?AV?$_Deque_iterator@V?$_Deque_val@U?$_Deque_simple_types@U?$pair@_KPEAX@std@@@std@@@std@@@2@XZ 0000000180008f30 f i ProtocolComm.obj
 0001:00007f30       ?end@?$deque@PEAUtagKeyContex@@V?$allocator@PEAUtagKeyContex@@@std@@@std@@QEBA?AV?$_Deque_const_iterator@V?$_Deque_val@U?$_Deque_simple_types@PEAUtagKeyContex@@@std@@@std@@@2@XZ 0000000180008f30 f i Connector.obj
 0001:00007f30       ?end@?$deque@U?$pair@_KPEAX@std@@V?$allocator@U?$pair@_KPEAX@std@@@2@@std@@QEBA?AV?$_Deque_const_iterator@V?$_Deque_val@U?$_Deque_simple_types@U?$pair@_KPEAX@std@@@std@@@std@@@2@XZ 0000000180008f30 f i ProtocolComm.obj
 0001:00007f30       ?end@?$deque@U?$pair@_JPEAUtagKeyContex@@@std@@V?$allocator@U?$pair@_JPEAUtagKeyContex@@@std@@@2@@std@@QEBA?AV?$_Deque_const_iterator@V?$_Deque_val@U?$_Deque_simple_types@U?$pair@_JPEAUtagKeyContex@@@std@@@std@@@std@@@2@XZ 0000000180008f30 f i Connector.obj
 0001:00007f30       ?end@?$deque@U?$pair@_JPEAUtagKeyContex@@@std@@V?$allocator@U?$pair@_JPEAUtagKeyContex@@@std@@@2@@std@@QEAA?AV?$_Deque_iterator@V?$_Deque_val@U?$_Deque_simple_types@U?$pair@_JPEAUtagKeyContex@@@std@@@std@@@std@@@2@XZ 0000000180008f30 f i Connector.obj
 0001:00007f50       ?begin@?$deque@PEAUtagKeyContex@@V?$allocator@PEAUtagKeyContex@@@std@@@std@@QEAA?AV?$_Deque_iterator@V?$_Deque_val@U?$_Deque_simple_types@PEAUtagKeyContex@@@std@@@std@@@2@XZ 0000000180008f50 f i Connector.obj
 0001:00007f50       ?begin@?$deque@U?$pair@_JPEAUtagKeyContex@@@std@@V?$allocator@U?$pair@_JPEAUtagKeyContex@@@std@@@2@@std@@QEBA?AV?$_Deque_const_iterator@V?$_Deque_val@U?$_Deque_simple_types@U?$pair@_JPEAUtagKeyContex@@@std@@@std@@@std@@@2@XZ 0000000180008f50 f i Connector.obj
 0001:00007f50       ?begin@?$deque@PEAUtagKeyContex@@V?$allocator@PEAUtagKeyContex@@@std@@@std@@QEBA?AV?$_Deque_const_iterator@V?$_Deque_val@U?$_Deque_simple_types@PEAUtagKeyContex@@@std@@@std@@@2@XZ 0000000180008f50 f i Connector.obj
 0001:00007f50       ?begin@?$deque@U?$pair@_KPEAX@std@@V?$allocator@U?$pair@_KPEAX@std@@@2@@std@@QEBA?AV?$_Deque_const_iterator@V?$_Deque_val@U?$_Deque_simple_types@U?$pair@_KPEAX@std@@@std@@@std@@@2@XZ 0000000180008f50 f i ProtocolComm.obj
 0001:00007f50       ?begin@?$deque@U?$pair@_JPEAUtagKeyContex@@@std@@V?$allocator@U?$pair@_JPEAUtagKeyContex@@@std@@@2@@std@@QEAA?AV?$_Deque_iterator@V?$_Deque_val@U?$_Deque_simple_types@U?$pair@_JPEAUtagKeyContex@@@std@@@std@@@std@@@2@XZ 0000000180008f50 f i Connector.obj
 0001:00007f50       ?begin@?$deque@U?$pair@_KPEAX@std@@V?$allocator@U?$pair@_KPEAX@std@@@2@@std@@QEAA?AV?$_Deque_iterator@V?$_Deque_val@U?$_Deque_simple_types@U?$pair@_KPEAX@std@@@std@@@std@@@2@XZ 0000000180008f50 f i ProtocolComm.obj
 0001:00007f70       ??4?$deque@U?$pair@_JPEAUtagKeyContex@@@std@@V?$allocator@U?$pair@_JPEAUtagKeyContex@@@std@@@2@@std@@QEAAAEAV01@AEBV01@@Z 0000000180008f70 f i Connector.obj
 0001:00007f70       ??4?$deque@U?$pair@_KPEAX@std@@V?$allocator@U?$pair@_KPEAX@std@@@2@@std@@QEAAAEAV01@AEBV01@@Z 0000000180008f70 f i ProtocolComm.obj
 0001:000081c0       ??1?$deque@U?$pair@_KPEAX@std@@V?$allocator@U?$pair@_KPEAX@std@@@2@@std@@QEAA@XZ 00000001800091c0 f i ProtocolComm.obj
 0001:000081c0       ??1?$deque@PEAUtagKeyContex@@V?$allocator@PEAUtagKeyContex@@@std@@@std@@QEAA@XZ 00000001800091c0 f i Connector.obj
 0001:000081c0       ??1?$deque@U?$pair@_JPEAUtagKeyContex@@@std@@V?$allocator@U?$pair@_JPEAUtagKeyContex@@@std@@@2@@std@@QEAA@XZ 00000001800091c0 f i Connector.obj
 0001:00008200       ??0?$deque@U?$pair@_JPEAUtagKeyContex@@@std@@V?$allocator@U?$pair@_JPEAUtagKeyContex@@@std@@@2@@std@@QEAA@AEBV01@@Z 0000000180009200 f i Connector.obj
 0001:00008200       ??0?$deque@U?$pair@_KPEAX@std@@V?$allocator@U?$pair@_KPEAX@std@@@2@@std@@QEAA@AEBV01@@Z 0000000180009200 f i ProtocolComm.obj
 0001:000082b0       ?push_back@?$vector@U?$pair@V?$basic_string@DU?$char_traits@D@std@@V?$allocator@D@2@@std@@H@std@@V?$allocator@U?$pair@V?$basic_string@DU?$char_traits@D@std@@V?$allocator@D@2@@std@@H@std@@@2@@std@@QEAAXAEBU?$pair@V?$basic_string@DU?$char_traits@D@std@@V?$allocator@D@2@@std@@H@2@@Z 00000001800092b0 f i Connector.obj
 0001:000083d0       ??4?$vector@U?$pair@V?$basic_string@DU?$char_traits@D@std@@V?$allocator@D@2@@std@@H@std@@V?$allocator@U?$pair@V?$basic_string@DU?$char_traits@D@std@@V?$allocator@D@2@@std@@H@std@@@2@@std@@QEAAAEAV01@AEBV01@@Z 00000001800093d0 f i Connector.obj
 0001:000085b0       ??1?$vector@U?$pair@V?$basic_string@DU?$char_traits@D@std@@V?$allocator@D@2@@std@@H@std@@V?$allocator@U?$pair@V?$basic_string@DU?$char_traits@D@std@@V?$allocator@D@2@@std@@H@std@@@2@@std@@QEAA@XZ 00000001800095b0 f i Connector.obj
 0001:000085d0       ??0?$vector@U?$pair@V?$basic_string@DU?$char_traits@D@std@@V?$allocator@D@2@@std@@H@std@@V?$allocator@U?$pair@V?$basic_string@DU?$char_traits@D@std@@V?$allocator@D@2@@std@@H@std@@@2@@std@@QEAA@AEBV01@@Z 00000001800095d0 f i Connector.obj
 0001:000086a0       ?push_back@?$deque@PEAUtagKeyContex@@V?$allocator@PEAUtagKeyContex@@@std@@@std@@QEAAXAEBQEAUtagKeyContex@@@Z 00000001800096a0 f i Connector.obj
 0001:00008770       ??4?$deque@PEAUtagKeyContex@@V?$allocator@PEAUtagKeyContex@@@std@@@std@@QEAAAEAV01@AEBV01@@Z 0000000180009770 f i Connector.obj
 0001:000089c0       ??0?$deque@PEAUtagKeyContex@@V?$allocator@PEAUtagKeyContex@@@std@@@std@@QEAA@AEBV01@@Z 00000001800099c0 f i Connector.obj
 0001:00008a70       ?push_back@?$vector@V?$basic_string@DU?$char_traits@D@std@@V?$allocator@D@2@@std@@V?$allocator@V?$basic_string@DU?$char_traits@D@std@@V?$allocator@D@2@@std@@@2@@std@@QEAAXAEBV?$basic_string@DU?$char_traits@D@std@@V?$allocator@D@2@@2@@Z 0000000180009a70 f i Connector.obj
 0001:00008c20       ??1?$vector@V?$basic_string@DU?$char_traits@D@std@@V?$allocator@D@2@@std@@V?$allocator@V?$basic_string@DU?$char_traits@D@std@@V?$allocator@D@2@@std@@@2@@std@@QEAA@XZ 0000000180009c20 f i Connector.obj
 0001:00008ca0       ?c_str@?$basic_string@DU?$char_traits@D@std@@V?$allocator@D@2@@std@@QEBAPEBDXZ 0000000180009ca0 f i Connector.obj
 0001:00008cb0       ??1?$basic_string@DU?$char_traits@D@std@@V?$allocator@D@2@@std@@QEAA@XZ 0000000180009cb0 f i Connector.obj
 0001:00008d50       ??4?$basic_string@DU?$char_traits@D@std@@V?$allocator@D@2@@std@@QEAAAEAV01@$$QEAV01@@Z 0000000180009d50 f i Connector.obj
 0001:00008e10       ??0?$basic_string@DU?$char_traits@D@std@@V?$allocator@D@2@@std@@QEAA@$$QEAV01@@Z 0000000180009e10 f i Connector.obj
 0001:00008ea0       ?str@?$basic_stringstream@DU?$char_traits@D@std@@V?$allocator@D@2@@std@@QEBA?AV?$basic_string@DU?$char_traits@D@std@@V?$allocator@D@2@@2@XZ 0000000180009ea0 f i Connector.obj
 0001:00008ee0       ??1?$basic_stringstream@DU?$char_traits@D@std@@V?$allocator@D@2@@std@@UEAA@XZ 0000000180009ee0 f i Connector.obj
 0001:00008f70       ??0?$basic_stringstream@DU?$char_traits@D@std@@V?$allocator@D@2@@std@@QEAA@H@Z 0000000180009f70 f i Connector.obj
 0001:00009030       ?seekpos@?$basic_stringbuf@DU?$char_traits@D@std@@V?$allocator@D@2@@std@@MEAA?AV?$fpos@U_Mbstatet@@@2@V32@H@Z 000000018000a030 f i Connector.obj
 0001:00009140       ?seekoff@?$basic_stringbuf@DU?$char_traits@D@std@@V?$allocator@D@2@@std@@MEAA?AV?$fpos@U_Mbstatet@@@2@_JHH@Z 000000018000a140 f i Connector.obj
 0001:000092e0       ?underflow@?$basic_stringbuf@DU?$char_traits@D@std@@V?$allocator@D@2@@std@@MEAAHXZ 000000018000a2e0 f i Connector.obj
 0001:00009340       ?pbackfail@?$basic_stringbuf@DU?$char_traits@D@std@@V?$allocator@D@2@@std@@MEAAHH@Z 000000018000a340 f i Connector.obj
 0001:00009390       ?overflow@?$basic_stringbuf@DU?$char_traits@D@std@@V?$allocator@D@2@@std@@MEAAHH@Z 000000018000a390 f i Connector.obj
 0001:000095d0       ??1?$basic_stringbuf@DU?$char_traits@D@std@@V?$allocator@D@2@@std@@UEAA@XZ 000000018000a5d0 f i Connector.obj
 0001:00009610       ??_E?$basic_stringstream@DU?$char_traits@D@std@@V?$allocator@D@2@@std@@UEAAPEAXI@Z 000000018000a610 f i * CIL library *:* CIL module *
 0001:00009610       ??_G?$basic_stringstream@DU?$char_traits@D@std@@V?$allocator@D@2@@std@@UEAAPEAXI@Z 000000018000a610 f i Connector.obj
 0001:00009670       ??_G?$basic_stringbuf@DU?$char_traits@D@std@@V?$allocator@D@2@@std@@UEAAPEAXI@Z 000000018000a670 f i Connector.obj
 0001:00009670       ??_E?$basic_stringbuf@DU?$char_traits@D@std@@V?$allocator@D@2@@std@@UEAAPEAXI@Z 000000018000a670 f i * CIL library *:* CIL module *
 0001:000096d0       ??1?$_List_alloc@U?$_List_base_types@PEAUtagBuf@@V?$allocator@PEAUtagBuf@@@std@@@std@@@std@@QEAA@XZ 000000018000a6d0 f i ProtocolProcess.obj
 0001:000096d0       ??1?$_Tree_comp_alloc@V?$_Tmap_traits@_KPEAXU?$less@_K@std@@V?$allocator@U?$pair@$$CB_KPEAX@std@@@2@$0A@@std@@@std@@QEAA@XZ 000000018000a6d0 f i ProtocolComm.obj
 0001:000096d0       ??1?$_Tree_comp_alloc@V?$_Tmap_traits@_KPEAUtagKeyContex@@U?$less@_K@std@@V?$allocator@U?$pair@$$CB_KPEAUtagKeyContex@@@std@@@3@$0A@@std@@@std@@QEAA@XZ 000000018000a6d0 f i Connector.obj
 0001:000096d0       ??1?$_List_alloc@U?$_List_base_types@V?$basic_string@DU?$char_traits@D@std@@V?$allocator@D@2@@std@@V?$allocator@V?$basic_string@DU?$char_traits@D@std@@V?$allocator@D@2@@std@@@2@@std@@@std@@QEAA@XZ 000000018000a6d0 f i ProtocolProcess.obj
 0001:000096f0       ??0?$_Tree@V?$_Tmap_traits@_KPEAUtagKeyContex@@U?$less@_K@std@@V?$allocator@U?$pair@$$CB_KPEAUtagKeyContex@@@std@@@3@$0A@@std@@@std@@QEAA@AEBV01@AEBV?$allocator@U?$pair@$$CB_KPEAUtagKeyContex@@@std@@@1@@Z 000000018000a6f0 f i Connector.obj
 0001:000096f0       ??0?$_Tree@V?$_Tmap_traits@_KPEAXU?$less@_K@std@@V?$allocator@U?$pair@$$CB_KPEAX@std@@@2@$0A@@std@@@std@@QEAA@AEBV01@AEBV?$allocator@U?$pair@$$CB_KPEAX@std@@@1@@Z 000000018000a6f0 f i ProtocolComm.obj
 0001:00009750       ??H?$_Deque_iterator@V?$_Deque_val@U?$_Deque_simple_types@U?$pair@_KPEAX@std@@@std@@@std@@@std@@QEBA?AV01@_J@Z 000000018000a750 f i ProtocolComm.obj
 0001:00009750       ??H?$_Deque_const_iterator@V?$_Deque_val@U?$_Deque_simple_types@PEAUtagKeyContex@@@std@@@std@@@std@@QEBA?AV01@_J@Z 000000018000a750 f i Connector.obj
 0001:00009750       ??H?$_Deque_iterator@V?$_Deque_val@U?$_Deque_simple_types@U?$pair@_JPEAUtagKeyContex@@@std@@@std@@@std@@@std@@QEBA?AV01@_J@Z 000000018000a750 f i Connector.obj
 0001:00009750       ??H?$_Deque_iterator@V?$_Deque_val@U?$_Deque_simple_types@PEAUtagKeyContex@@@std@@@std@@@std@@QEBA?AV01@_J@Z 000000018000a750 f i Connector.obj
 0001:00009750       ??H?$_Deque_const_iterator@V?$_Deque_val@U?$_Deque_simple_types@U?$pair@_JPEAUtagKeyContex@@@std@@@std@@@std@@@std@@QEBA?AV01@_J@Z 000000018000a750 f i Connector.obj
 0001:00009750       ??H?$_Deque_const_iterator@V?$_Deque_val@U?$_Deque_simple_types@U?$pair@_KPEAX@std@@@std@@@std@@@std@@QEBA?AV01@_J@Z 000000018000a750 f i ProtocolComm.obj
 0001:000097a0       ??1?$_Deque_alloc@U?$_Deque_base_types@U?$pair@_KPEAX@std@@V?$allocator@U?$pair@_KPEAX@std@@@2@@std@@@std@@QEAA@XZ 000000018000a7a0 f i ProtocolComm.obj
 0001:000097a0       ??1?$_Deque_alloc@U?$_Deque_base_types@PEAUtagKeyContex@@V?$allocator@PEAUtagKeyContex@@@std@@@std@@@std@@QEAA@XZ 000000018000a7a0 f i Connector.obj
 0001:000097a0       ??1?$_Deque_alloc@U?$_Deque_base_types@U?$pair@_JPEAUtagKeyContex@@@std@@V?$allocator@U?$pair@_JPEAUtagKeyContex@@@std@@@2@@std@@@std@@QEAA@XZ 000000018000a7a0 f i Connector.obj
 0001:000097d0       ?_Tidy@?$deque@PEAUtagKeyContex@@V?$allocator@PEAUtagKeyContex@@@std@@@std@@IEAAXXZ 000000018000a7d0 f i Connector.obj
 0001:000097d0       ?_Tidy@?$deque@U?$pair@_KPEAX@std@@V?$allocator@U?$pair@_KPEAX@std@@@2@@std@@IEAAXXZ 000000018000a7d0 f i ProtocolComm.obj
 0001:000097d0       ?_Tidy@?$deque@U?$pair@_JPEAUtagKeyContex@@@std@@V?$allocator@U?$pair@_JPEAUtagKeyContex@@@std@@@2@@std@@IEAAXXZ 000000018000a7d0 f i Connector.obj
 0001:000098c0       ?_Growmap@?$deque@U?$pair@_JPEAUtagKeyContex@@@std@@V?$allocator@U?$pair@_JPEAUtagKeyContex@@@std@@@2@@std@@IEAAX_K@Z 000000018000a8c0 f i Connector.obj
 0001:000098c0       ?_Growmap@?$deque@U?$pair@_KPEAX@std@@V?$allocator@U?$pair@_KPEAX@std@@@2@@std@@IEAAX_K@Z 000000018000a8c0 f i ProtocolComm.obj
 0001:00009aa0       ?erase@?$deque@U?$pair@_KPEAX@std@@V?$allocator@U?$pair@_KPEAX@std@@@2@@std@@QEAA?AV?$_Deque_iterator@V?$_Deque_val@U?$_Deque_simple_types@U?$pair@_KPEAX@std@@@std@@@std@@@2@V?$_Deque_const_iterator@V?$_Deque_val@U?$_Deque_simple_types@U?$pair@_KPEAX@std@@@std@@@std@@@2@0@Z 000000018000aaa0 f i ProtocolComm.obj
 0001:00009aa0       ?erase@?$deque@U?$pair@_JPEAUtagKeyContex@@@std@@V?$allocator@U?$pair@_JPEAUtagKeyContex@@@std@@@2@@std@@QEAA?AV?$_Deque_iterator@V?$_Deque_val@U?$_Deque_simple_types@U?$pair@_JPEAUtagKeyContex@@@std@@@std@@@std@@@2@V?$_Deque_const_iterator@V?$_Deque_val@U?$_Deque_simple_types@U?$pair@_JPEAUtagKeyContex@@@std@@@std@@@std@@@2@0@Z 000000018000aaa0 f i Connector.obj
 0001:00009cf0       ?deallocate@?$_Wrap_alloc@V?$allocator@U?$pair@V?$basic_string@DU?$char_traits@D@std@@V?$allocator@D@2@@std@@H@std@@@std@@@std@@QEAAXPEAU?$pair@V?$basic_string@DU?$char_traits@D@std@@V?$allocator@D@2@@std@@H@2@_K@Z 000000018000acf0 f i Connector.obj
 0001:00009cf0       ?deallocate@?$_Wrap_alloc@V?$allocator@V?$deque@U?$pair@_KPEAX@std@@V?$allocator@U?$pair@_KPEAX@std@@@2@@std@@@std@@@std@@QEAAXPEAV?$deque@U?$pair@_KPEAX@std@@V?$allocator@U?$pair@_KPEAX@std@@@2@@2@_K@Z 000000018000acf0 f i ProtocolComm.obj
 0001:00009d70       ?_Tidy@?$vector@U?$pair@V?$basic_string@DU?$char_traits@D@std@@V?$allocator@D@2@@std@@H@std@@V?$allocator@U?$pair@V?$basic_string@DU?$char_traits@D@std@@V?$allocator@D@2@@std@@H@std@@@2@@std@@IEAAXXZ 000000018000ad70 f i Connector.obj
 0001:00009e00       ?_Reserve@?$vector@U?$pair@V?$basic_string@DU?$char_traits@D@std@@V?$allocator@D@2@@std@@H@std@@V?$allocator@U?$pair@V?$basic_string@DU?$char_traits@D@std@@V?$allocator@D@2@@std@@H@std@@@2@@std@@IEAAX_K@Z 000000018000ae00 f i Connector.obj
 0001:00009ed0       ?_Destroy@?$vector@U?$pair@V?$basic_string@DU?$char_traits@D@std@@V?$allocator@D@2@@std@@H@std@@V?$allocator@U?$pair@V?$basic_string@DU?$char_traits@D@std@@V?$allocator@D@2@@std@@H@std@@@2@@std@@IEAAXPEAU?$pair@V?$basic_string@DU?$char_traits@D@std@@V?$allocator@D@2@@std@@H@2@0@Z 000000018000aed0 f i Connector.obj
 0001:00009f20       ?_Buy@?$vector@U?$pair@V?$basic_string@DU?$char_traits@D@std@@V?$allocator@D@2@@std@@H@std@@V?$allocator@U?$pair@V?$basic_string@DU?$char_traits@D@std@@V?$allocator@D@2@@std@@H@std@@@2@@std@@IEAA_N_K@Z 000000018000af20 f i Connector.obj
 0001:00009f20       ?_Buy@?$vector@V?$deque@U?$pair@_KPEAX@std@@V?$allocator@U?$pair@_KPEAX@std@@@2@@std@@V?$allocator@V?$deque@U?$pair@_KPEAX@std@@V?$allocator@U?$pair@_KPEAX@std@@@2@@std@@@2@@std@@IEAA_N_K@Z 000000018000af20 f i ProtocolComm.obj
 0001:00009f90       ?deallocate@?$_Wrap_alloc@V?$allocator@V?$basic_string@DU?$char_traits@D@std@@V?$allocator@D@2@@std@@@std@@@std@@QEAAXPEAV?$basic_string@DU?$char_traits@D@std@@V?$allocator@D@2@@2@_K@Z 000000018000af90 f i Connector.obj
 0001:0000a000       ?_Growmap@?$deque@PEAUtagKeyContex@@V?$allocator@PEAUtagKeyContex@@@std@@@std@@IEAAX_K@Z 000000018000b000 f i Connector.obj
 0001:0000a1e0       ?erase@?$deque@PEAUtagKeyContex@@V?$allocator@PEAUtagKeyContex@@@std@@@std@@QEAA?AV?$_Deque_iterator@V?$_Deque_val@U?$_Deque_simple_types@PEAUtagKeyContex@@@std@@@std@@@2@V?$_Deque_const_iterator@V?$_Deque_val@U?$_Deque_simple_types@PEAUtagKeyContex@@@std@@@std@@@2@0@Z 000000018000b1e0 f i Connector.obj
 0001:0000a430       ?_Tidy@?$basic_string@DU?$char_traits@D@std@@V?$allocator@D@2@@std@@QEAAX_N_K@Z 000000018000b430 f i Connector.obj
 0001:0000a4e0       ?assign@?$basic_string@DU?$char_traits@D@std@@V?$allocator@D@2@@std@@QEAAAEAV12@PEBD_K@Z 000000018000b4e0 f i Connector.obj
 0001:0000a610       ?assign@?$basic_string@DU?$char_traits@D@std@@V?$allocator@D@2@@std@@QEAAAEAV12@AEBV12@_K1@Z 000000018000b610 f i Connector.obj
 0001:0000a740       ?append@?$basic_string@DU?$char_traits@D@std@@V?$allocator@D@2@@std@@QEAAAEAV12@PEBD_K@Z 000000018000b740 f i Connector.obj
 0001:0000a890       ?append@?$basic_string@DU?$char_traits@D@std@@V?$allocator@D@2@@std@@QEAAAEAV12@AEBV12@_K1@Z 000000018000b890 f i Connector.obj
 0001:0000a9b0       ?_Assign_rv@?$basic_string@DU?$char_traits@D@std@@V?$allocator@D@2@@std@@QEAAX$$QEAV12@@Z 000000018000b9b0 f i Connector.obj
 0001:0000aa20       ?_Tidy@?$basic_stringbuf@DU?$char_traits@D@std@@V?$allocator@D@2@@std@@IEAAXXZ 000000018000ba20 f i Connector.obj
 0001:0000ab00       ?str@?$basic_stringbuf@DU?$char_traits@D@std@@V?$allocator@D@2@@std@@QEBA?AV?$basic_string@DU?$char_traits@D@std@@V?$allocator@D@2@@2@XZ 000000018000bb00 f i Connector.obj
 0001:0000adc0       ?deallocate@?$allocator@D@std@@QEAAXPEAD_K@Z 000000018000bdc0 f i Connector.obj
 0001:0000ae30       ?deallocate@?$_Wrap_alloc@V?$allocator@H@std@@@std@@QEAAXPEAH_K@Z 000000018000be30 f i Connector.obj
 0001:0000aeb0       ?_Reallocate@?$vector@HV?$allocator@H@std@@@std@@IEAAX_K@Z 000000018000beb0 f i Connector.obj
 0001:0000af40       ?clear@?$_Tree@V?$_Tmap_traits@_KPEAUtagKeyContex@@U?$less@_K@std@@V?$allocator@U?$pair@$$CB_KPEAUtagKeyContex@@@std@@@3@$0A@@std@@@std@@QEAAXXZ 000000018000bf40 f i Connector.obj
 0001:0000af40       ?clear@?$_Tree@V?$_Tmap_traits@_KPEAXU?$less@_K@std@@V?$allocator@U?$pair@$$CB_KPEAX@std@@@2@$0A@@std@@@std@@QEAAXXZ 000000018000bf40 f i ProtocolComm.obj
 0001:0000afc0       ?erase@?$_Tree@V?$_Tmap_traits@_KPEAUtagKeyContex@@U?$less@_K@std@@V?$allocator@U?$pair@$$CB_KPEAUtagKeyContex@@@std@@@3@$0A@@std@@@std@@QEAA?AV?$_Tree_iterator@V?$_Tree_val@U?$_Tree_simple_types@U?$pair@$$CB_KPEAUtagKeyContex@@@std@@@std@@@std@@@2@V?$_Tree_const_iterator@V?$_Tree_val@U?$_Tree_simple_types@U?$pair@$$CB_KPEAUtagKeyContex@@@std@@@std@@@std@@@2@0@Z 000000018000bfc0 f i Connector.obj
 0001:0000afc0       ?erase@?$_Tree@V?$_Tmap_traits@_KPEAXU?$less@_K@std@@V?$allocator@U?$pair@$$CB_KPEAX@std@@@2@$0A@@std@@@std@@QEAA?AV?$_Tree_iterator@V?$_Tree_val@U?$_Tree_simple_types@U?$pair@$$CB_KPEAX@std@@@std@@@std@@@2@V?$_Tree_const_iterator@V?$_Tree_val@U?$_Tree_simple_types@U?$pair@$$CB_KPEAX@std@@@std@@@std@@@2@0@Z 000000018000bfc0 f i ProtocolComm.obj
 0001:0000b0a0       ?_Make_iter@?$deque@U?$pair@_JPEAUtagKeyContex@@@std@@V?$allocator@U?$pair@_JPEAUtagKeyContex@@@std@@@2@@std@@QEBA?AV?$_Deque_iterator@V?$_Deque_val@U?$_Deque_simple_types@U?$pair@_JPEAUtagKeyContex@@@std@@@std@@@std@@@2@V?$_Deque_const_iterator@V?$_Deque_val@U?$_Deque_simple_types@U?$pair@_JPEAUtagKeyContex@@@std@@@std@@@std@@@2@@Z 000000018000c0a0 f i Connector.obj
 0001:0000b0a0       ?_Make_iter@?$deque@PEAUtagKeyContex@@V?$allocator@PEAUtagKeyContex@@@std@@@std@@QEBA?AV?$_Deque_iterator@V?$_Deque_val@U?$_Deque_simple_types@PEAUtagKeyContex@@@std@@@std@@@2@V?$_Deque_const_iterator@V?$_Deque_val@U?$_Deque_simple_types@PEAUtagKeyContex@@@std@@@std@@@2@@Z 000000018000c0a0 f i Connector.obj
 0001:0000b0a0       ?_Make_iter@?$deque@U?$pair@_KPEAX@std@@V?$allocator@U?$pair@_KPEAX@std@@@2@@std@@QEBA?AV?$_Deque_iterator@V?$_Deque_val@U?$_Deque_simple_types@U?$pair@_KPEAX@std@@@std@@@std@@@2@V?$_Deque_const_iterator@V?$_Deque_val@U?$_Deque_simple_types@U?$pair@_KPEAX@std@@@std@@@std@@@2@@Z 000000018000c0a0 f i ProtocolComm.obj
 0001:0000b0c0       ?_Reallocate@?$vector@U?$pair@V?$basic_string@DU?$char_traits@D@std@@V?$allocator@D@2@@std@@H@std@@V?$allocator@U?$pair@V?$basic_string@DU?$char_traits@D@std@@V?$allocator@D@2@@std@@H@std@@@2@@std@@IEAAX_K@Z 000000018000c0c0 f i Connector.obj
 0001:0000b1d0       ?_Reallocate@?$vector@V?$basic_string@DU?$char_traits@D@std@@V?$allocator@D@2@@std@@V?$allocator@V?$basic_string@DU?$char_traits@D@std@@V?$allocator@D@2@@std@@@2@@std@@IEAAX_K@Z 000000018000c1d0 f i Connector.obj
 0001:0000b290       ?erase@?$basic_string@DU?$char_traits@D@std@@V?$allocator@D@2@@std@@QEAAAEAV12@_K0@Z 000000018000c290 f i Connector.obj
 0001:0000b360       ?_Init@?$basic_stringbuf@DU?$char_traits@D@std@@V?$allocator@D@2@@std@@IEAAXPEBD_KH@Z 000000018000c360 f i Connector.obj
 0001:0000b450       ?_Erase@?$_Tree@V?$_Tmap_traits@_KPEAUtagKeyContex@@U?$less@_K@std@@V?$allocator@U?$pair@$$CB_KPEAUtagKeyContex@@@std@@@3@$0A@@std@@@std@@IEAAXPEAU?$_Tree_node@U?$pair@$$CB_KPEAUtagKeyContex@@@std@@PEAX@2@@Z 000000018000c450 f i Connector.obj
 0001:0000b450       ?_Erase@?$_Tree@V?$_Tmap_traits@_KPEAXU?$less@_K@std@@V?$allocator@U?$pair@$$CB_KPEAX@std@@@2@$0A@@std@@@std@@IEAAXPEAU?$_Tree_node@U?$pair@$$CB_KPEAX@std@@PEAX@2@@Z 000000018000c450 f i ProtocolComm.obj
 0001:0000b4a0       ?erase@?$_Tree@V?$_Tmap_traits@_KPEAUtagKeyContex@@U?$less@_K@std@@V?$allocator@U?$pair@$$CB_KPEAUtagKeyContex@@@std@@@3@$0A@@std@@@std@@QEAA?AV?$_Tree_iterator@V?$_Tree_val@U?$_Tree_simple_types@U?$pair@$$CB_KPEAUtagKeyContex@@@std@@@std@@@std@@@2@V?$_Tree_const_iterator@V?$_Tree_val@U?$_Tree_simple_types@U?$pair@$$CB_KPEAUtagKeyContex@@@std@@@std@@@std@@@2@@Z 000000018000c4a0 f i Connector.obj
 0001:0000b4a0       ?erase@?$_Tree@V?$_Tmap_traits@_KPEAXU?$less@_K@std@@V?$allocator@U?$pair@$$CB_KPEAX@std@@@2@$0A@@std@@@std@@QEAA?AV?$_Tree_iterator@V?$_Tree_val@U?$_Tree_simple_types@U?$pair@$$CB_KPEAX@std@@@std@@@std@@@2@V?$_Tree_const_iterator@V?$_Tree_val@U?$_Tree_simple_types@U?$pair@$$CB_KPEAX@std@@@std@@@std@@@2@@Z 000000018000c4a0 f i ProtocolComm.obj
 0001:0000b8b0       ?_Copy@?$basic_string@DU?$char_traits@D@std@@V?$allocator@D@2@@std@@QEAAX_K0@Z 000000018000c8b0 f i Connector.obj
 0001:0000ba10       ?_Rrotate@?$_Tree@V?$_Tmap_traits@_KPEAXU?$less@_K@std@@V?$allocator@U?$pair@$$CB_KPEAX@std@@@2@$0A@@std@@@std@@IEAAXPEAU?$_Tree_node@U?$pair@$$CB_KPEAX@std@@PEAX@2@@Z 000000018000ca10 f i ProtocolComm.obj
 0001:0000ba10       ?_Rrotate@?$_Tree@V?$_Tmap_traits@_KPEAUtagKeyContex@@U?$less@_K@std@@V?$allocator@U?$pair@$$CB_KPEAUtagKeyContex@@@std@@@3@$0A@@std@@@std@@IEAAXPEAU?$_Tree_node@U?$pair@$$CB_KPEAUtagKeyContex@@@std@@PEAX@2@@Z 000000018000ca10 f i Connector.obj
 0001:0000ba70       ?_Lrotate@?$_Tree@V?$_Tmap_traits@_KPEAXU?$less@_K@std@@V?$allocator@U?$pair@$$CB_KPEAX@std@@@2@$0A@@std@@@std@@IEAAXPEAU?$_Tree_node@U?$pair@$$CB_KPEAX@std@@PEAX@2@@Z 000000018000ca70 f i ProtocolComm.obj
 0001:0000ba70       ?_Lrotate@?$_Tree@V?$_Tmap_traits@_KPEAUtagKeyContex@@U?$less@_K@std@@V?$allocator@U?$pair@$$CB_KPEAUtagKeyContex@@@std@@@3@$0A@@std@@@std@@IEAAXPEAU?$_Tree_node@U?$pair@$$CB_KPEAUtagKeyContex@@@std@@PEAX@2@@Z 000000018000ca70 f i Connector.obj
 0001:0000bad0       ??$FromString@H@strutils@@YAHV?$basic_string@DU?$char_traits@D@std@@V?$allocator@D@2@@std@@I@Z 000000018000cad0 f i Connector.obj
 0001:0000bb70       ??$?HDU?$char_traits@D@std@@V?$allocator@D@1@@std@@YA?AV?$basic_string@DU?$char_traits@D@std@@V?$allocator@D@2@@0@PEBDAEBV10@@Z 000000018000cb70 f i Connector.obj
 0001:0000bc90       ??$?HDU?$char_traits@D@std@@V?$allocator@D@1@@std@@YA?AV?$basic_string@DU?$char_traits@D@std@@V?$allocator@D@2@@0@$$QEAV10@PEBD@Z 000000018000cc90 f i Connector.obj
 0001:0000bd00       ??$ToString@H@strutils@@YA?AV?$basic_string@DU?$char_traits@D@std@@V?$allocator@D@2@@std@@HGGDD@Z 000000018000cd00 f i Connector.obj
 0001:0000bdf0       ??$?HDU?$char_traits@D@std@@V?$allocator@D@1@@std@@YA?AV?$basic_string@DU?$char_traits@D@std@@V?$allocator@D@2@@0@$$QEAV10@0@Z 000000018000cdf0 f i Connector.obj
 0001:0000be80       ??$copy@V?$_Deque_const_iterator@V?$_Deque_val@U?$_Deque_simple_types@U?$pair@_KPEAX@std@@@std@@@std@@@std@@V?$_Deque_iterator@V?$_Deque_val@U?$_Deque_simple_types@U?$pair@_KPEAX@std@@@std@@@std@@@2@@std@@YA?AV?$_Deque_iterator@V?$_Deque_val@U?$_Deque_simple_types@U?$pair@_KPEAX@std@@@std@@@std@@@0@V?$_Deque_const_iterator@V?$_Deque_val@U?$_Deque_simple_types@U?$pair@_KPEAX@std@@@std@@@std@@@0@0V10@@Z 000000018000ce80 f i ProtocolComm.obj
 0001:0000be80       ??$move@V?$_Deque_iterator@V?$_Deque_val@U?$_Deque_simple_types@U?$pair@_KPEAX@std@@@std@@@std@@@std@@V12@@std@@YA?AV?$_Deque_iterator@V?$_Deque_val@U?$_Deque_simple_types@U?$pair@_KPEAX@std@@@std@@@std@@@0@V10@00@Z 000000018000ce80 f i ProtocolComm.obj
 0001:0000be80       ??$copy@V?$_Deque_const_iterator@V?$_Deque_val@U?$_Deque_simple_types@U?$pair@_JPEAUtagKeyContex@@@std@@@std@@@std@@@std@@V?$_Deque_iterator@V?$_Deque_val@U?$_Deque_simple_types@U?$pair@_JPEAUtagKeyContex@@@std@@@std@@@std@@@2@@std@@YA?AV?$_Deque_iterator@V?$_Deque_val@U?$_Deque_simple_types@U?$pair@_JPEAUtagKeyContex@@@std@@@std@@@std@@@0@V?$_Deque_const_iterator@V?$_Deque_val@U?$_Deque_simple_types@U?$pair@_JPEAUtagKeyContex@@@std@@@std@@@std@@@0@0V10@@Z 000000018000ce80 f i Connector.obj
 0001:0000be80       ??$move@V?$_Deque_iterator@V?$_Deque_val@U?$_Deque_simple_types@U?$pair@_JPEAUtagKeyContex@@@std@@@std@@@std@@@std@@V12@@std@@YA?AV?$_Deque_iterator@V?$_Deque_val@U?$_Deque_simple_types@U?$pair@_JPEAUtagKeyContex@@@std@@@std@@@std@@@0@V10@00@Z 000000018000ce80 f i Connector.obj
 0001:0000bf40       ??$insert@V?$_Deque_const_iterator@V?$_Deque_val@U?$_Deque_simple_types@U?$pair@_KPEAX@std@@@std@@@std@@@std@@@?$deque@U?$pair@_KPEAX@std@@V?$allocator@U?$pair@_KPEAX@std@@@2@@std@@QEAA?AV?$_Deque_iterator@V?$_Deque_val@U?$_Deque_simple_types@U?$pair@_KPEAX@std@@@std@@@std@@@1@V?$_Deque_const_iterator@V?$_Deque_val@U?$_Deque_simple_types@U?$pair@_KPEAX@std@@@std@@@std@@@1@00@Z 000000018000cf40 f i ProtocolComm.obj
 0001:0000bf40       ??$insert@V?$_Deque_const_iterator@V?$_Deque_val@U?$_Deque_simple_types@U?$pair@_JPEAUtagKeyContex@@@std@@@std@@@std@@@std@@@?$deque@U?$pair@_JPEAUtagKeyContex@@@std@@V?$allocator@U?$pair@_JPEAUtagKeyContex@@@std@@@2@@std@@QEAA?AV?$_Deque_iterator@V?$_Deque_val@U?$_Deque_simple_types@U?$pair@_JPEAUtagKeyContex@@@std@@@std@@@std@@@1@V?$_Deque_const_iterator@V?$_Deque_val@U?$_Deque_simple_types@U?$pair@_JPEAUtagKeyContex@@@std@@@std@@@std@@@1@00@Z 000000018000cf40 f i Connector.obj
 0001:0000c290       ??$_Construct@V?$_Deque_const_iterator@V?$_Deque_val@U?$_Deque_simple_types@U?$pair@_KPEAX@std@@@std@@@std@@@std@@@?$deque@U?$pair@_KPEAX@std@@V?$allocator@U?$pair@_KPEAX@std@@@2@@std@@QEAAXV?$_Deque_const_iterator@V?$_Deque_val@U?$_Deque_simple_types@U?$pair@_KPEAX@std@@@std@@@std@@@1@0@Z 000000018000d290 f i ProtocolComm.obj
 0001:0000c290       ??$_Construct@V?$_Deque_const_iterator@V?$_Deque_val@U?$_Deque_simple_types@U?$pair@_JPEAUtagKeyContex@@@std@@@std@@@std@@@std@@@?$deque@U?$pair@_JPEAUtagKeyContex@@@std@@V?$allocator@U?$pair@_JPEAUtagKeyContex@@@std@@@2@@std@@QEAAXV?$_Deque_const_iterator@V?$_Deque_val@U?$_Deque_simple_types@U?$pair@_JPEAUtagKeyContex@@@std@@@std@@@std@@@1@0@Z 000000018000d290 f i Connector.obj
 0001:0000c380       ??$_Copy_unchecked@PEAU?$pair@V?$basic_string@DU?$char_traits@D@std@@V?$allocator@D@2@@std@@H@std@@PEAU12@@std@@YAPEAU?$pair@V?$basic_string@DU?$char_traits@D@std@@V?$allocator@D@2@@std@@H@0@PEAU10@00@Z 000000018000d380 f i Connector.obj
 0001:0000c410       ??$copy@V?$_Deque_const_iterator@V?$_Deque_val@U?$_Deque_simple_types@PEAUtagKeyContex@@@std@@@std@@@std@@V?$_Deque_iterator@V?$_Deque_val@U?$_Deque_simple_types@PEAUtagKeyContex@@@std@@@std@@@2@@std@@YA?AV?$_Deque_iterator@V?$_Deque_val@U?$_Deque_simple_types@PEAUtagKeyContex@@@std@@@std@@@0@V?$_Deque_const_iterator@V?$_Deque_val@U?$_Deque_simple_types@PEAUtagKeyContex@@@std@@@std@@@0@0V10@@Z 000000018000d410 f i Connector.obj
 0001:0000c410       ??$move@V?$_Deque_iterator@V?$_Deque_val@U?$_Deque_simple_types@PEAUtagKeyContex@@@std@@@std@@@std@@V12@@std@@YA?AV?$_Deque_iterator@V?$_Deque_val@U?$_Deque_simple_types@PEAUtagKeyContex@@@std@@@std@@@0@V10@00@Z 000000018000d410 f i Connector.obj
 0001:0000c4d0       ??$insert@V?$_Deque_const_iterator@V?$_Deque_val@U?$_Deque_simple_types@PEAUtagKeyContex@@@std@@@std@@@std@@@?$deque@PEAUtagKeyContex@@V?$allocator@PEAUtagKeyContex@@@std@@@std@@QEAA?AV?$_Deque_iterator@V?$_Deque_val@U?$_Deque_simple_types@PEAUtagKeyContex@@@std@@@std@@@1@V?$_Deque_const_iterator@V?$_Deque_val@U?$_Deque_simple_types@PEAUtagKeyContex@@@std@@@std@@@1@00@Z 000000018000d4d0 f i Connector.obj
 0001:0000c850       ??$_Construct@V?$_Deque_const_iterator@V?$_Deque_val@U?$_Deque_simple_types@PEAUtagKeyContex@@@std@@@std@@@std@@@?$deque@PEAUtagKeyContex@@V?$allocator@PEAUtagKeyContex@@@std@@@std@@QEAAXV?$_Deque_const_iterator@V?$_Deque_val@U?$_Deque_simple_types@PEAUtagKeyContex@@@std@@@std@@@1@0@Z 000000018000d850 f i Connector.obj
 0001:0000c980       ??$_Copy@U_Copy_tag@?$_Tree@V?$_Tmap_traits@_KPEAXU?$less@_K@std@@V?$allocator@U?$pair@$$CB_KPEAX@std@@@2@$0A@@std@@@std@@@?$_Tree@V?$_Tmap_traits@_KPEAXU?$less@_K@std@@V?$allocator@U?$pair@$$CB_KPEAX@std@@@2@$0A@@std@@@std@@IEAAXAEBV01@U_Copy_tag@01@@Z 000000018000d980 f i ProtocolComm.obj
 0001:0000c980       ??$_Copy@U_Copy_tag@?$_Tree@V?$_Tmap_traits@_KPEAUtagKeyContex@@U?$less@_K@std@@V?$allocator@U?$pair@$$CB_KPEAUtagKeyContex@@@std@@@3@$0A@@std@@@std@@@?$_Tree@V?$_Tmap_traits@_KPEAUtagKeyContex@@U?$less@_K@std@@V?$allocator@U?$pair@$$CB_KPEAUtagKeyContex@@@std@@@3@$0A@@std@@@std@@IEAAXAEBV01@U_Copy_tag@01@@Z 000000018000d980 f i Connector.obj
 0001:0000ca30       ??$move_backward@V?$_Deque_iterator@V?$_Deque_val@U?$_Deque_simple_types@U?$pair@_JPEAUtagKeyContex@@@std@@@std@@@std@@@std@@V12@@std@@YA?AV?$_Deque_iterator@V?$_Deque_val@U?$_Deque_simple_types@U?$pair@_JPEAUtagKeyContex@@@std@@@std@@@std@@@0@V10@00@Z 000000018000da30 f i Connector.obj
 0001:0000ca30       ??$move_backward@V?$_Deque_iterator@V?$_Deque_val@U?$_Deque_simple_types@U?$pair@_KPEAX@std@@@std@@@std@@@std@@V12@@std@@YA?AV?$_Deque_iterator@V?$_Deque_val@U?$_Deque_simple_types@U?$pair@_KPEAX@std@@@std@@@std@@@0@V10@00@Z 000000018000da30 f i ProtocolComm.obj
 0001:0000cb20       ??$move_backward@V?$_Deque_iterator@V?$_Deque_val@U?$_Deque_simple_types@PEAUtagKeyContex@@@std@@@std@@@std@@V12@@std@@YA?AV?$_Deque_iterator@V?$_Deque_val@U?$_Deque_simple_types@PEAUtagKeyContex@@@std@@@std@@@0@V10@00@Z 000000018000db20 f i Connector.obj
 0001:0000cc10       ??0?$basic_stringstream@DU?$char_traits@D@std@@V?$allocator@D@2@@std@@QEAA@AEBV?$basic_string@DU?$char_traits@D@std@@V?$allocator@D@2@@1@H@Z 000000018000dc10 f i Connector.obj
 0001:0000ccf0       ?_Buyheadnode@?$_Tree_comp_alloc@V?$_Tmap_traits@_KPEAXU?$less@_K@std@@V?$allocator@U?$pair@$$CB_KPEAX@std@@@2@$0A@@std@@@std@@QEAAPEAU?$_Tree_node@U?$pair@$$CB_KPEAX@std@@PEAX@2@XZ 000000018000dcf0 f i ProtocolComm.obj
 0001:0000ccf0       ?_Buyheadnode@?$_Tree_comp_alloc@V?$_Tmap_traits@_KPEAUtagKeyContex@@U?$less@_K@std@@V?$allocator@U?$pair@$$CB_KPEAUtagKeyContex@@@std@@@3@$0A@@std@@@std@@QEAAPEAU?$_Tree_node@U?$pair@$$CB_KPEAUtagKeyContex@@@std@@PEAX@2@XZ 000000018000dcf0 f i Connector.obj
 0001:0000cd40       ?insert@?$basic_string@DU?$char_traits@D@std@@V?$allocator@D@2@@std@@QEAAAEAV12@_KAEBV12@00@Z 000000018000dd40 f i Connector.obj
 0001:0000ceb0       ??$_Move_no_deprecate@V?$_Deque_iterator@V?$_Deque_val@U?$_Deque_simple_types@U?$pair@_KPEAX@std@@@std@@@std@@@std@@V12@@std@@YA?AV?$_Deque_iterator@V?$_Deque_val@U?$_Deque_simple_types@U?$pair@_KPEAX@std@@@std@@@std@@@0@V10@00@Z 000000018000deb0 f i ProtocolComm.obj
 0001:0000ceb0       ??$_Copy_no_deprecate@V?$_Deque_const_iterator@V?$_Deque_val@U?$_Deque_simple_types@U?$pair@_KPEAX@std@@@std@@@std@@@std@@V?$_Deque_iterator@V?$_Deque_val@U?$_Deque_simple_types@U?$pair@_KPEAX@std@@@std@@@std@@@2@@std@@YA?AV?$_Deque_iterator@V?$_Deque_val@U?$_Deque_simple_types@U?$pair@_KPEAX@std@@@std@@@std@@@0@V?$_Deque_const_iterator@V?$_Deque_val@U?$_Deque_simple_types@U?$pair@_KPEAX@std@@@std@@@std@@@0@0V10@@Z 000000018000deb0 f i ProtocolComm.obj
 0001:0000ceb0       ??$_Move_no_deprecate@V?$_Deque_iterator@V?$_Deque_val@U?$_Deque_simple_types@U?$pair@_JPEAUtagKeyContex@@@std@@@std@@@std@@@std@@V12@@std@@YA?AV?$_Deque_iterator@V?$_Deque_val@U?$_Deque_simple_types@U?$pair@_JPEAUtagKeyContex@@@std@@@std@@@std@@@0@V10@00@Z 000000018000deb0 f i Connector.obj
 0001:0000ceb0       ??$_Copy_no_deprecate@V?$_Deque_const_iterator@V?$_Deque_val@U?$_Deque_simple_types@U?$pair@_JPEAUtagKeyContex@@@std@@@std@@@std@@@std@@V?$_Deque_iterator@V?$_Deque_val@U?$_Deque_simple_types@U?$pair@_JPEAUtagKeyContex@@@std@@@std@@@std@@@2@@std@@YA?AV?$_Deque_iterator@V?$_Deque_val@U?$_Deque_simple_types@U?$pair@_JPEAUtagKeyContex@@@std@@@std@@@std@@@0@V?$_Deque_const_iterator@V?$_Deque_val@U?$_Deque_simple_types@U?$pair@_JPEAUtagKeyContex@@@std@@@std@@@std@@@0@0V10@@Z 000000018000deb0 f i Connector.obj
 0001:0000cfa0       ??$reverse@V?$_Deque_iterator@V?$_Deque_val@U?$_Deque_simple_types@U?$pair@_JPEAUtagKeyContex@@@std@@@std@@@std@@@std@@@std@@YAXV?$_Deque_iterator@V?$_Deque_val@U?$_Deque_simple_types@U?$pair@_JPEAUtagKeyContex@@@std@@@std@@@std@@@0@0@Z 000000018000dfa0 f i Connector.obj
 0001:0000cfa0       ??$reverse@V?$_Deque_iterator@V?$_Deque_val@U?$_Deque_simple_types@U?$pair@_KPEAX@std@@@std@@@std@@@std@@@std@@YAXV?$_Deque_iterator@V?$_Deque_val@U?$_Deque_simple_types@U?$pair@_KPEAX@std@@@std@@@std@@@0@0@Z 000000018000dfa0 f i ProtocolComm.obj
 0001:0000d0a0       ??$rotate@V?$_Deque_iterator@V?$_Deque_val@U?$_Deque_simple_types@U?$pair@_JPEAUtagKeyContex@@@std@@@std@@@std@@@std@@@std@@YA?AV?$_Deque_iterator@V?$_Deque_val@U?$_Deque_simple_types@U?$pair@_JPEAUtagKeyContex@@@std@@@std@@@std@@@0@V10@00@Z 000000018000e0a0 f i Connector.obj
 0001:0000d0a0       ??$rotate@V?$_Deque_iterator@V?$_Deque_val@U?$_Deque_simple_types@U?$pair@_KPEAX@std@@@std@@@std@@@std@@@std@@YA?AV?$_Deque_iterator@V?$_Deque_val@U?$_Deque_simple_types@U?$pair@_KPEAX@std@@@std@@@std@@@0@V10@00@Z 000000018000e0a0 f i ProtocolComm.obj
 0001:0000d230       ??$_Copy_no_deprecate@V?$_Deque_const_iterator@V?$_Deque_val@U?$_Deque_simple_types@PEAUtagKeyContex@@@std@@@std@@@std@@V?$_Deque_iterator@V?$_Deque_val@U?$_Deque_simple_types@PEAUtagKeyContex@@@std@@@std@@@2@@std@@YA?AV?$_Deque_iterator@V?$_Deque_val@U?$_Deque_simple_types@PEAUtagKeyContex@@@std@@@std@@@0@V?$_Deque_const_iterator@V?$_Deque_val@U?$_Deque_simple_types@PEAUtagKeyContex@@@std@@@std@@@0@0V10@@Z 000000018000e230 f i Connector.obj
 0001:0000d230       ??$_Move_no_deprecate@V?$_Deque_iterator@V?$_Deque_val@U?$_Deque_simple_types@PEAUtagKeyContex@@@std@@@std@@@std@@V12@@std@@YA?AV?$_Deque_iterator@V?$_Deque_val@U?$_Deque_simple_types@PEAUtagKeyContex@@@std@@@std@@@0@V10@00@Z 000000018000e230 f i Connector.obj
 0001:0000d320       ??$reverse@V?$_Deque_iterator@V?$_Deque_val@U?$_Deque_simple_types@PEAUtagKeyContex@@@std@@@std@@@std@@@std@@YAXV?$_Deque_iterator@V?$_Deque_val@U?$_Deque_simple_types@PEAUtagKeyContex@@@std@@@std@@@0@0@Z 000000018000e320 f i Connector.obj
 0001:0000d420       ??$rotate@V?$_Deque_iterator@V?$_Deque_val@U?$_Deque_simple_types@PEAUtagKeyContex@@@std@@@std@@@std@@@std@@YA?AV?$_Deque_iterator@V?$_Deque_val@U?$_Deque_simple_types@PEAUtagKeyContex@@@std@@@std@@@0@V10@00@Z 000000018000e420 f i Connector.obj
 0001:0000d5b0       ??$_Copy_nodes@U_Copy_tag@?$_Tree@V?$_Tmap_traits@_KPEAUtagKeyContex@@U?$less@_K@std@@V?$allocator@U?$pair@$$CB_KPEAUtagKeyContex@@@std@@@3@$0A@@std@@@std@@@?$_Tree@V?$_Tmap_traits@_KPEAUtagKeyContex@@U?$less@_K@std@@V?$allocator@U?$pair@$$CB_KPEAUtagKeyContex@@@std@@@3@$0A@@std@@@std@@IEAAPEAU?$_Tree_node@U?$pair@$$CB_KPEAUtagKeyContex@@@std@@PEAX@1@PEAU21@0U_Copy_tag@01@@Z 000000018000e5b0 f i Connector.obj
 0001:0000d5b0       ??$_Copy_nodes@U_Copy_tag@?$_Tree@V?$_Tmap_traits@_KPEAXU?$less@_K@std@@V?$allocator@U?$pair@$$CB_KPEAX@std@@@2@$0A@@std@@@std@@@?$_Tree@V?$_Tmap_traits@_KPEAXU?$less@_K@std@@V?$allocator@U?$pair@$$CB_KPEAX@std@@@2@$0A@@std@@@std@@IEAAPEAU?$_Tree_node@U?$pair@$$CB_KPEAX@std@@PEAX@1@PEAU21@0U_Copy_tag@01@@Z 000000018000e5b0 f i ProtocolComm.obj
 0001:0000d660       ??$_Move_backward1@V?$_Deque_unchecked_iterator@V?$_Deque_val@U?$_Deque_simple_types@U?$pair@_KPEAX@std@@@std@@@std@@@std@@V?$_Deque_iterator@V?$_Deque_val@U?$_Deque_simple_types@U?$pair@_KPEAX@std@@@std@@@std@@@2@@std@@YA?AV?$_Deque_iterator@V?$_Deque_val@U?$_Deque_simple_types@U?$pair@_KPEAX@std@@@std@@@std@@@0@V?$_Deque_unchecked_iterator@V?$_Deque_val@U?$_Deque_simple_types@U?$pair@_KPEAX@std@@@std@@@std@@@0@0V10@Urandom_access_iterator_tag@0@2@Z 000000018000e660 f i ProtocolComm.obj
 0001:0000d660       ??$_Move_backward1@V?$_Deque_unchecked_iterator@V?$_Deque_val@U?$_Deque_simple_types@U?$pair@_JPEAUtagKeyContex@@@std@@@std@@@std@@@std@@V?$_Deque_iterator@V?$_Deque_val@U?$_Deque_simple_types@U?$pair@_JPEAUtagKeyContex@@@std@@@std@@@std@@@2@@std@@YA?AV?$_Deque_iterator@V?$_Deque_val@U?$_Deque_simple_types@U?$pair@_JPEAUtagKeyContex@@@std@@@std@@@std@@@0@V?$_Deque_unchecked_iterator@V?$_Deque_val@U?$_Deque_simple_types@U?$pair@_JPEAUtagKeyContex@@@std@@@std@@@std@@@0@0V10@Urandom_access_iterator_tag@0@2@Z 000000018000e660 f i Connector.obj
 0001:0000d770       ??$_Move_backward1@V?$_Deque_unchecked_iterator@V?$_Deque_val@U?$_Deque_simple_types@PEAUtagKeyContex@@@std@@@std@@@std@@V?$_Deque_iterator@V?$_Deque_val@U?$_Deque_simple_types@PEAUtagKeyContex@@@std@@@std@@@2@@std@@YA?AV?$_Deque_iterator@V?$_Deque_val@U?$_Deque_simple_types@PEAUtagKeyContex@@@std@@@std@@@0@V?$_Deque_unchecked_iterator@V?$_Deque_val@U?$_Deque_simple_types@PEAUtagKeyContex@@@std@@@std@@@0@0V10@Urandom_access_iterator_tag@0@2@Z 000000018000e770 f i Connector.obj
 0001:0000d8a0       ??$_Copy_no_deprecate1@V?$_Deque_unchecked_const_iterator@V?$_Deque_val@U?$_Deque_simple_types@U?$pair@_KPEAX@std@@@std@@@std@@@std@@V?$_Deque_iterator@V?$_Deque_val@U?$_Deque_simple_types@U?$pair@_KPEAX@std@@@std@@@std@@@2@@std@@YA?AV?$_Deque_iterator@V?$_Deque_val@U?$_Deque_simple_types@U?$pair@_KPEAX@std@@@std@@@std@@@0@V?$_Deque_unchecked_const_iterator@V?$_Deque_val@U?$_Deque_simple_types@U?$pair@_KPEAX@std@@@std@@@std@@@0@0V10@Urandom_access_iterator_tag@0@2@Z 000000018000e8a0 f i ProtocolComm.obj
 0001:0000d8a0       ??$_Move_no_deprecate1@V?$_Deque_unchecked_iterator@V?$_Deque_val@U?$_Deque_simple_types@U?$pair@_JPEAUtagKeyContex@@@std@@@std@@@std@@@std@@V?$_Deque_iterator@V?$_Deque_val@U?$_Deque_simple_types@U?$pair@_JPEAUtagKeyContex@@@std@@@std@@@std@@@2@@std@@YA?AV?$_Deque_iterator@V?$_Deque_val@U?$_Deque_simple_types@U?$pair@_JPEAUtagKeyContex@@@std@@@std@@@std@@@0@V?$_Deque_unchecked_iterator@V?$_Deque_val@U?$_Deque_simple_types@U?$pair@_JPEAUtagKeyContex@@@std@@@std@@@std@@@0@0V10@Urandom_access_iterator_tag@0@2@Z 000000018000e8a0 f i Connector.obj
 0001:0000d8a0       ??$_Move_no_deprecate1@V?$_Deque_unchecked_iterator@V?$_Deque_val@U?$_Deque_simple_types@U?$pair@_KPEAX@std@@@std@@@std@@@std@@V?$_Deque_iterator@V?$_Deque_val@U?$_Deque_simple_types@U?$pair@_KPEAX@std@@@std@@@std@@@2@@std@@YA?AV?$_Deque_iterator@V?$_Deque_val@U?$_Deque_simple_types@U?$pair@_KPEAX@std@@@std@@@std@@@0@V?$_Deque_unchecked_iterator@V?$_Deque_val@U?$_Deque_simple_types@U?$pair@_KPEAX@std@@@std@@@std@@@0@0V10@Urandom_access_iterator_tag@0@2@Z 000000018000e8a0 f i ProtocolComm.obj
 0001:0000d8a0       ??$_Copy_no_deprecate1@V?$_Deque_unchecked_const_iterator@V?$_Deque_val@U?$_Deque_simple_types@U?$pair@_JPEAUtagKeyContex@@@std@@@std@@@std@@@std@@V?$_Deque_iterator@V?$_Deque_val@U?$_Deque_simple_types@U?$pair@_JPEAUtagKeyContex@@@std@@@std@@@std@@@2@@std@@YA?AV?$_Deque_iterator@V?$_Deque_val@U?$_Deque_simple_types@U?$pair@_JPEAUtagKeyContex@@@std@@@std@@@std@@@0@V?$_Deque_unchecked_const_iterator@V?$_Deque_val@U?$_Deque_simple_types@U?$pair@_JPEAUtagKeyContex@@@std@@@std@@@std@@@0@0V10@Urandom_access_iterator_tag@0@2@Z 000000018000e8a0 f i Connector.obj
 0001:0000d9b0       ??$_Rotate@V?$_Deque_unchecked_iterator@V?$_Deque_val@U?$_Deque_simple_types@U?$pair@_KPEAX@std@@@std@@@std@@@std@@@std@@YA?AV?$_Deque_unchecked_iterator@V?$_Deque_val@U?$_Deque_simple_types@U?$pair@_KPEAX@std@@@std@@@std@@@0@V10@00Urandom_access_iterator_tag@0@@Z 000000018000e9b0 f i ProtocolComm.obj
 0001:0000d9b0       ??$_Rotate@V?$_Deque_unchecked_iterator@V?$_Deque_val@U?$_Deque_simple_types@U?$pair@_JPEAUtagKeyContex@@@std@@@std@@@std@@@std@@@std@@YA?AV?$_Deque_unchecked_iterator@V?$_Deque_val@U?$_Deque_simple_types@U?$pair@_JPEAUtagKeyContex@@@std@@@std@@@std@@@0@V10@00Urandom_access_iterator_tag@0@@Z 000000018000e9b0 f i Connector.obj
 0001:0000dbc0       ??$_Copy_no_deprecate1@V?$_Deque_unchecked_const_iterator@V?$_Deque_val@U?$_Deque_simple_types@PEAUtagKeyContex@@@std@@@std@@@std@@V?$_Deque_iterator@V?$_Deque_val@U?$_Deque_simple_types@PEAUtagKeyContex@@@std@@@std@@@2@@std@@YA?AV?$_Deque_iterator@V?$_Deque_val@U?$_Deque_simple_types@PEAUtagKeyContex@@@std@@@std@@@0@V?$_Deque_unchecked_const_iterator@V?$_Deque_val@U?$_Deque_simple_types@PEAUtagKeyContex@@@std@@@std@@@0@0V10@Urandom_access_iterator_tag@0@2@Z 000000018000ebc0 f i Connector.obj
 0001:0000dbc0       ??$_Move_no_deprecate1@V?$_Deque_unchecked_iterator@V?$_Deque_val@U?$_Deque_simple_types@PEAUtagKeyContex@@@std@@@std@@@std@@V?$_Deque_iterator@V?$_Deque_val@U?$_Deque_simple_types@PEAUtagKeyContex@@@std@@@std@@@2@@std@@YA?AV?$_Deque_iterator@V?$_Deque_val@U?$_Deque_simple_types@PEAUtagKeyContex@@@std@@@std@@@0@V?$_Deque_unchecked_iterator@V?$_Deque_val@U?$_Deque_simple_types@PEAUtagKeyContex@@@std@@@std@@@0@0V10@Urandom_access_iterator_tag@0@2@Z 000000018000ebc0 f i Connector.obj
 0001:0000dcf0       ??$_Rotate@V?$_Deque_unchecked_iterator@V?$_Deque_val@U?$_Deque_simple_types@PEAUtagKeyContex@@@std@@@std@@@std@@@std@@YA?AV?$_Deque_unchecked_iterator@V?$_Deque_val@U?$_Deque_simple_types@PEAUtagKeyContex@@@std@@@std@@@0@V10@00Urandom_access_iterator_tag@0@@Z 000000018000ecf0 f i Connector.obj
 0001:0000df20       ??$_Uninitialized_copy_al_unchecked1@PEAU?$pair@V?$basic_string@DU?$char_traits@D@std@@V?$allocator@D@2@@std@@H@std@@PEAU12@V?$allocator@U?$pair@V?$basic_string@DU?$char_traits@D@std@@V?$allocator@D@2@@std@@H@std@@@2@@std@@YAPEAU?$pair@V?$basic_string@DU?$char_traits@D@std@@V?$allocator@D@2@@std@@H@0@PEAU10@00AEAU?$_Wrap_alloc@V?$allocator@U?$pair@V?$basic_string@DU?$char_traits@D@std@@V?$allocator@D@2@@std@@H@std@@@std@@@0@U_General_ptr_iterator_tag@0@@Z 000000018000ef20 f i Connector.obj
 0001:0000df20       ??$_Uninitialized_copy_al_unchecked1@PEBU?$pair@V?$basic_string@DU?$char_traits@D@std@@V?$allocator@D@2@@std@@H@std@@PEAU12@V?$allocator@U?$pair@V?$basic_string@DU?$char_traits@D@std@@V?$allocator@D@2@@std@@H@std@@@2@@std@@YAPEAU?$pair@V?$basic_string@DU?$char_traits@D@std@@V?$allocator@D@2@@std@@H@0@PEBU10@0PEAU10@AEAU?$_Wrap_alloc@V?$allocator@U?$pair@V?$basic_string@DU?$char_traits@D@std@@V?$allocator@D@2@@std@@H@std@@@std@@@0@U_General_ptr_iterator_tag@0@@Z 000000018000ef20 f i Connector.obj
 0001:0000dfd0       ??$_Buynode@AEAU?$pair@$$CB_KPEAX@std@@@?$_Tree_comp_alloc@V?$_Tmap_traits@_KPEAXU?$less@_K@std@@V?$allocator@U?$pair@$$CB_KPEAX@std@@@2@$0A@@std@@@std@@QEAAPEAU?$_Tree_node@U?$pair@$$CB_KPEAX@std@@PEAX@1@AEAU?$pair@$$CB_KPEAX@1@@Z 000000018000efd0 f i ProtocolComm.obj
 0001:0000dfd0       ??$_Buynode@AEAU?$pair@$$CB_KPEAUtagKeyContex@@@std@@@?$_Tree_comp_alloc@V?$_Tmap_traits@_KPEAUtagKeyContex@@U?$less@_K@std@@V?$allocator@U?$pair@$$CB_KPEAUtagKeyContex@@@std@@@3@$0A@@std@@@std@@QEAAPEAU?$_Tree_node@U?$pair@$$CB_KPEAUtagKeyContex@@@std@@PEAX@1@AEAU?$pair@$$CB_KPEAUtagKeyContex@@@1@@Z 000000018000efd0 f i Connector.obj
 0001:0000e010       ??$_Uninitialized_move_al_unchecked1@PEAU?$pair@V?$basic_string@DU?$char_traits@D@std@@V?$allocator@D@2@@std@@H@std@@PEAU12@V?$allocator@U?$pair@V?$basic_string@DU?$char_traits@D@std@@V?$allocator@D@2@@std@@H@std@@@2@@std@@YAPEAU?$pair@V?$basic_string@DU?$char_traits@D@std@@V?$allocator@D@2@@std@@H@0@PEAU10@00AEAU?$_Wrap_alloc@V?$allocator@U?$pair@V?$basic_string@DU?$char_traits@D@std@@V?$allocator@D@2@@std@@H@std@@@std@@@0@U_General_ptr_iterator_tag@0@@Z 000000018000f010 f i Connector.obj
 0001:0000e080       ??$_Uninitialized_move_al_unchecked1@PEAV?$basic_string@DU?$char_traits@D@std@@V?$allocator@D@2@@std@@PEAV12@V?$allocator@V?$basic_string@DU?$char_traits@D@std@@V?$allocator@D@2@@std@@@2@@std@@YAPEAV?$basic_string@DU?$char_traits@D@std@@V?$allocator@D@2@@0@PEAV10@00AEAU?$_Wrap_alloc@V?$allocator@V?$basic_string@DU?$char_traits@D@std@@V?$allocator@D@2@@std@@@std@@@0@U_General_ptr_iterator_tag@0@@Z 000000018000f080 f i Connector.obj
 0001:0000e170       ?_Buynode0@?$_Tree_comp_alloc@V?$_Tmap_traits@_KPEAXU?$less@_K@std@@V?$allocator@U?$pair@$$CB_KPEAX@std@@@2@$0A@@std@@@std@@QEAAPEAU?$_Tree_node@U?$pair@$$CB_KPEAX@std@@PEAX@2@XZ 000000018000f170 f i ProtocolComm.obj
 0001:0000e170       ?_Buynode0@?$_Tree_comp_alloc@V?$_Tmap_traits@_KPEAUtagKeyContex@@U?$less@_K@std@@V?$allocator@U?$pair@$$CB_KPEAUtagKeyContex@@@std@@@3@$0A@@std@@@std@@QEAAPEAU?$_Tree_node@U?$pair@$$CB_KPEAUtagKeyContex@@@std@@PEAX@2@XZ 000000018000f170 f i Connector.obj
 0001:0000e1cc       ??_E?$basic_stringstream@DU?$char_traits@D@std@@V?$allocator@D@2@@std@@$4PPPPPPPM@A@EAAPEAXI@Z 000000018000f1cc f i Connector.obj
 0001:0000e1d8       ?Stop@CListener@@$4PPPPPPPM@A@EAAXXZ 000000018000f1d8 f i Connector.obj
 0001:0000e1e4       ?Start@CListener@@$4PPPPPPPM@A@EAAHXZ 000000018000f1e4 f i Connector.obj
 0001:0000e1f0       ??_ECConnector@@WHI@EAAPEAXI@Z 000000018000f1f0 f i Connector.obj
 0001:0000e1fc       ??_ECListener@@$4PPPPPPPM@A@EAAPEAXI@Z 000000018000f1fc f i Connector.obj
 0001:0000e208       ?Init@CListener@@$4PPPPPPPM@A@EAAHPEAVCConfig@@@Z 000000018000f208 f i Connector.obj
 0001:0000e214       ?Finish@CListener@@$4PPPPPPPM@A@EAAXXZ 000000018000f214 f i Connector.obj
 0001:0000e220       ??0CListener@@QEAA@PEAVCProtocolCommServer@@@Z 000000018000f220 f   Listener.obj
 0001:0000e2b0       ??1CListener@@UEAA@XZ      000000018000f2b0 f   Listener.obj
 0001:0000e380       ?Init@CListener@@UEAAHPEAVCConfig@@@Z 000000018000f380 f   Listener.obj
 0001:0000e700       ?Finish@CListener@@UEAAXXZ 000000018000f700 f   Listener.obj
 0001:0000e750       ?Start@CListener@@UEAAHXZ  000000018000f750 f   Listener.obj
 0001:0000e9f0       ?Stop@CListener@@UEAAXXZ   000000018000f9f0 f   Listener.obj
 0001:0000eaa0       ?OnAccept@CListener@@UEAAH_KAEBV?$basic_string@DU?$char_traits@D@std@@V?$allocator@D@2@@std@@H@Z 000000018000faa0 f   Listener.obj
 0001:0000eb70       ?OnAccept@CListener@@UEAAHXZ 000000018000fb70 f   Listener.obj
 0001:0000ed50       __local_stdio_printf_options 000000018000fd50 f i ProtocolComm.obj
 0001:0000ed60       sprintf                    000000018000fd60 f i ProtocolComm.obj
 0001:0000edc0       ??0CProtocolCommWorker@CProtocolCommImp@@QEAA@XZ 000000018000fdc0 f i ProtocolComm.obj
 0001:0000ee50       ?Enque@CProtocolCommWorker@CProtocolCommImp@@QEAAXPEAUtagKeyContex@@@Z 000000018000fe50 f i ProtocolComm.obj
 0001:0000ef20       ??0CSelector@@QEAA@AEBV0@@Z 000000018000ff20 f i ProtocolComm.obj
 0001:0000f0e0       ??4CSelector@@QEAAAEAV0@AEBV0@@Z 00000001800100e0 f i ProtocolComm.obj
 0001:0000f280       ??_ECSelector@@MEAAPEAXI@Z 0000000180010280 f i ProtocolComm.obj
 0001:0000f310       ??0CSelectorListen@@IEAA@XZ 0000000180010310 f i ProtocolComm.obj
 0001:0000f3d0       ??1CSelectorListen@@MEAA@XZ 00000001800103d0 f i ProtocolComm.obj
 0001:0000f440       ??_ECSelectorListen@@MEAAPEAXI@Z 0000000180010440 f i ProtocolComm.obj
 0001:0000f4d0       ??_DCSelectorListen@@IEAAXXZ 00000001800104d0 f i ProtocolComm.obj
 0001:0000f560       ??0CSelectorIo@@IEAA@XZ    0000000180010560 f i ProtocolComm.obj
 0001:0000f620       ??1CSelectorIo@@MEAA@XZ    0000000180010620 f i ProtocolComm.obj
 0001:0000f690       ??_ECSelectorIo@@MEAAPEAXI@Z 0000000180010690 f i ProtocolComm.obj
 0001:0000f720       ??_DCSelectorIo@@IEAAXXZ   0000000180010720 f i ProtocolComm.obj
 0001:0000f7b0       ??0CProtocolCommImp@@QEAA@XZ 00000001800107b0 f   ProtocolComm.obj
 0001:0000f860       ??1CProtocolCommImp@@UEAA@XZ 0000000180010860 f   ProtocolComm.obj
 0001:0000f900       ?Init@CProtocolCommImp@@UEAAHPEAVCConfig@@@Z 0000000180010900 f   ProtocolComm.obj
 0001:0000f9a0       ?Finish@CProtocolCommImp@@UEAAXXZ 00000001800109a0 f   ProtocolComm.obj
 0001:0000f9c0       ?Start@CProtocolCommImp@@UEAAHXZ 00000001800109c0 f   ProtocolComm.obj
 0001:0000fa00       ?Stop@CProtocolCommImp@@UEAAXXZ 0000000180010a00 f   ProtocolComm.obj
 0001:0000fbe0       ?RegisterAio@CProtocolCommImp@@IEAAHPEAVCProtocolProcess@@@Z 0000000180010be0 f   ProtocolComm.obj
 0001:0000fe30       ?UnRegisterAio@CProtocolCommImp@@IEAAPEAUtagKeyContex@@PEAVCProtocolProcess@@@Z 0000000180010e30 f   ProtocolComm.obj
 0001:0000ff20       ?SendData@CProtocolCommImp@@UEAAHPEAVCProtocolProcess@@PEBDH@Z 0000000180010f20 f   ProtocolComm.obj
 0001:00010040       ?RecvData@CProtocolCommImp@@UEAAHPEAUtagKeyContex@@@Z 0000000180011040 f   ProtocolComm.obj
 0001:00010170       ?OnClose@CProtocolCommImp@@MEAAHAEBV?$basic_string@DU?$char_traits@D@std@@V?$allocator@D@2@@std@@H0H@Z 0000000180011170 f   ProtocolComm.obj
 0001:000101b0       ?OnLogin@CProtocolCommImp@@UEAAHAEBV?$basic_string@DU?$char_traits@D@std@@V?$allocator@D@2@@std@@H0HH@Z 00000001800111b0 f   ProtocolComm.obj
 0001:00010200       ?OnRecvPacket@CProtocolCommImp@@UEAAHAEAVCPacket@@@Z 0000000180011200 f   ProtocolComm.obj
 0001:00010220       ?Bind@CProtocolCommImp@@UEAAXPEAVCConnectPointAsyn@@@Z 0000000180011220 f   ProtocolComm.obj
 0001:000102a0       ?ReqClose@CProtocolCommImp@@UEAAXPEAVCProtocolProcess@@@Z 00000001800112a0 f   ProtocolComm.obj
 0001:000102d0       ?Handle@CProtocolCommImp@@AEAAHPEAUtagKeyContex@@@Z 00000001800112d0 f   ProtocolComm.obj
 0001:00010420       ??0CProtocolCommClient@@QEAA@XZ 0000000180011420 f   ProtocolComm.obj
 0001:00010470       ??1CProtocolCommClient@@UEAA@XZ 0000000180011470 f   ProtocolComm.obj
 0001:000104e0       ?Init@CProtocolCommClient@@UEAAHPEAVCConfig@@@Z 00000001800114e0 f   ProtocolComm.obj
 0001:000105b0       ?Finish@CProtocolCommClient@@UEAAXXZ 00000001800115b0 f   ProtocolComm.obj
 0001:00010630       ?Start@CProtocolCommClient@@UEAAHXZ 0000000180011630 f   ProtocolComm.obj
 0001:000106b0       ?Stop@CProtocolCommClient@@UEAAXXZ 00000001800116b0 f   ProtocolComm.obj
 0001:00010740       ?NotifyConnect@CProtocolCommClient@@IEAAXXZ 0000000180011740 f   ProtocolComm.obj
 0001:00010750       ?OnConnect@CProtocolCommClient@@MEAAH_KV?$basic_string@DU?$char_traits@D@std@@V?$allocator@D@2@@std@@H1HH@Z 0000000180011750 f   ProtocolComm.obj
 0001:00010870       ?GetConnState@CProtocolCommClient@@IEBAHXZ 0000000180011870 f   ProtocolComm.obj
 0001:00010880       ??0CProtocolCommServer@@QEAA@XZ 0000000180011880 f   ProtocolComm.obj
 0001:000108c0       ??1CProtocolCommServer@@UEAA@XZ 00000001800118c0 f   ProtocolComm.obj
 0001:00010930       ?Init@CProtocolCommServer@@UEAAHPEAVCConfig@@@Z 0000000180011930 f   ProtocolComm.obj
 0001:00010a00       ?Finish@CProtocolCommServer@@UEAAXXZ 0000000180011a00 f   ProtocolComm.obj
 0001:00010a90       ?Start@CProtocolCommServer@@UEAAHXZ 0000000180011a90 f   ProtocolComm.obj
 0001:00010b10       ?Stop@CProtocolCommServer@@UEAAXXZ 0000000180011b10 f   ProtocolComm.obj
 0001:00010bb0       ?OnAccept@CProtocolCommServer@@MEAAH_KV?$basic_string@DU?$char_traits@D@std@@V?$allocator@D@2@@std@@H1H@Z 0000000180011bb0 f   ProtocolComm.obj
 0001:00010cb0       ?Init@CTcpShortComm@@QEAAHPEAVCConfig@@@Z 0000000180011cb0 f   ProtocolComm.obj
 0001:00010f50       ?SetIp@CTcpShortComm@@QEAAXAEBV?$basic_string@DU?$char_traits@D@std@@V?$allocator@D@2@@std@@H@Z 0000000180011f50 f   ProtocolComm.obj
 0001:00010fa0       ?Connect@CTcpShortComm@@QEAAHAEBV?$basic_string@DU?$char_traits@D@std@@V?$allocator@D@2@@std@@H@Z 0000000180011fa0 f   ProtocolComm.obj
 0001:00011120       ?Connect@CTcpShortComm@@QEAAHXZ 0000000180012120 f   ProtocolComm.obj
 0001:00011170       ?IsConnected@CTcpShortComm@@QEAA_NXZ 0000000180012170 f   ProtocolComm.obj
 0001:00011180       ?DisConnect@CTcpShortComm@@QEAAXXZ 0000000180012180 f   ProtocolComm.obj
 0001:000111a0       ?SendData@CTcpShortComm@@QEAAHPEBDH@Z 00000001800121a0 f   ProtocolComm.obj
 0001:00011220       ?RecvData@CTcpShortComm@@QEAAHPEADAEAHI@Z 0000000180012220 f   ProtocolComm.obj
 0001:000112f0       ?SetProxy@CTcpShortComm@@QEAAXHV?$basic_string@DU?$char_traits@D@std@@V?$allocator@D@2@@std@@H00@Z 00000001800122f0 f   ProtocolComm.obj
 0001:000113c0       ?LoginProxy@CTcpShortComm@@AEAAHXZ 00000001800123c0 f   ProtocolComm.obj
 0001:00012230       ??_GCBase64Coding@@UEAAPEAXI@Z 0000000180013230 f i ProtocolComm.obj
 0001:00012230       ??_ECBase64Coding@@UEAAPEAXI@Z 0000000180013230 f i * CIL library *:* CIL module *
 0001:00012260       ??1CBase64Coding@@UEAA@XZ  0000000180013260 f   ProtocolComm.obj
 0001:00012270       ?Encode@CBase64Coding@@UEAAHAEBV?$basic_string@DU?$char_traits@D@std@@V?$allocator@D@2@@std@@AEAV23@@Z 0000000180013270 f   ProtocolComm.obj
 0001:000124c0       ?Destroy@?$CSingleton@VCSelectorIo@@@@CAXXZ 00000001800134c0 f i ProtocolComm.obj
 0001:00012510       ?Instance@?$CSingleton@VCSelectorIo@@@@SAPEAVCSelectorIo@@XZ 0000000180013510 f i ProtocolComm.obj
 0001:00012590       ?Destroy@?$CSingleton@VCSelectorListen@@@@CAXXZ 0000000180013590 f i ProtocolComm.obj
 0001:000125e0       ?Instance@?$CSingleton@VCSelectorListen@@@@SAPEAVCSelectorListen@@XZ 00000001800135e0 f i ProtocolComm.obj
 0001:00012660       ??4?$vector@PEAVCSelectorWorker@@V?$allocator@PEAVCSelectorWorker@@@std@@@std@@QEAAAEAV01@AEBV01@@Z 0000000180013660 f i ProtocolComm.obj
 0001:00012660       ??4?$vector@PEAVCGessMutex@@V?$allocator@PEAVCGessMutex@@@std@@@std@@QEAAAEAV01@AEBV01@@Z 0000000180013660 f i ProtocolComm.obj
 0001:00012790       ??1?$vector@PEAVCGessMutex@@V?$allocator@PEAVCGessMutex@@@std@@@std@@QEAA@XZ 0000000180013790 f i ProtocolComm.obj
 0001:00012790       ??1?$vector@PEAVCSelectorWorker@@V?$allocator@PEAVCSelectorWorker@@@std@@@std@@QEAA@XZ 0000000180013790 f i ProtocolComm.obj
 0001:000127d0       ??0?$vector@PEAVCSelectorWorker@@V?$allocator@PEAVCSelectorWorker@@@std@@@std@@QEAA@AEBV01@@Z 00000001800137d0 f i ProtocolComm.obj
 0001:000127d0       ??0?$vector@PEAVCGessMutex@@V?$allocator@PEAVCGessMutex@@@std@@@std@@QEAA@AEBV01@@Z 00000001800137d0 f i ProtocolComm.obj
 0001:000128a0       ??4?$vector@V?$deque@U?$pair@_KPEAX@std@@V?$allocator@U?$pair@_KPEAX@std@@@2@@std@@V?$allocator@V?$deque@U?$pair@_KPEAX@std@@V?$allocator@U?$pair@_KPEAX@std@@@2@@std@@@2@@std@@QEAAAEAV01@AEBV01@@Z 00000001800138a0 f i ProtocolComm.obj
 0001:00012a60       ??1?$vector@V?$deque@U?$pair@_KPEAX@std@@V?$allocator@U?$pair@_KPEAX@std@@@2@@std@@V?$allocator@V?$deque@U?$pair@_KPEAX@std@@V?$allocator@U?$pair@_KPEAX@std@@@2@@std@@@2@@std@@QEAA@XZ 0000000180013a60 f i ProtocolComm.obj
 0001:00012a80       ??0?$vector@V?$deque@U?$pair@_KPEAX@std@@V?$allocator@U?$pair@_KPEAX@std@@@2@@std@@V?$allocator@V?$deque@U?$pair@_KPEAX@std@@V?$allocator@U?$pair@_KPEAX@std@@@2@@std@@@2@@std@@QEAA@AEBV01@@Z 0000000180013a80 f i ProtocolComm.obj
 0001:00012b50       ?substr@?$basic_string@DU?$char_traits@D@std@@V?$allocator@D@2@@std@@QEBA?AV12@_K0@Z 0000000180013b50 f i ProtocolComm.obj
 0001:00012ba0       ?deallocate@?$_Wrap_alloc@V?$allocator@PEAVCSelectorWorker@@@std@@@std@@QEAAXPEAPEAVCSelectorWorker@@_K@Z 0000000180013ba0 f i ProtocolComm.obj
 0001:00012ba0       ?deallocate@?$_Wrap_alloc@V?$allocator@PEAVCGessMutex@@@std@@@std@@QEAAXPEAPEAVCGessMutex@@_K@Z 0000000180013ba0 f i ProtocolComm.obj
 0001:00012c20       ?_Buy@?$vector@PEAVCSelectorWorker@@V?$allocator@PEAVCSelectorWorker@@@std@@@std@@IEAA_N_K@Z 0000000180013c20 f i ProtocolComm.obj
 0001:00012c20       ?_Buy@?$vector@PEAVCGessMutex@@V?$allocator@PEAVCGessMutex@@@std@@@std@@IEAA_N_K@Z 0000000180013c20 f i ProtocolComm.obj
 0001:00012c90       ?_Tidy@?$vector@V?$deque@U?$pair@_KPEAX@std@@V?$allocator@U?$pair@_KPEAX@std@@@2@@std@@V?$allocator@V?$deque@U?$pair@_KPEAX@std@@V?$allocator@U?$pair@_KPEAX@std@@@2@@std@@@2@@std@@IEAAXXZ 0000000180013c90 f i ProtocolComm.obj
 0001:00012d40       ?_Destroy@?$vector@V?$deque@U?$pair@_KPEAX@std@@V?$allocator@U?$pair@_KPEAX@std@@@2@@std@@V?$allocator@V?$deque@U?$pair@_KPEAX@std@@V?$allocator@U?$pair@_KPEAX@std@@@2@@std@@@2@@std@@IEAAXPEAV?$deque@U?$pair@_KPEAX@std@@V?$allocator@U?$pair@_KPEAX@std@@@2@@2@0@Z 0000000180013d40 f i ProtocolComm.obj
 0001:00012db0       ?clear@?$vector@V?$deque@U?$pair@_KPEAX@std@@V?$allocator@U?$pair@_KPEAX@std@@@2@@std@@V?$allocator@V?$deque@U?$pair@_KPEAX@std@@V?$allocator@U?$pair@_KPEAX@std@@@2@@std@@@2@@std@@QEAAXXZ 0000000180013db0 f i ProtocolComm.obj
 0001:00012e30       ??1sentry@?$basic_ostream@DU?$char_traits@D@std@@@std@@QEAA@XZ 0000000180013e30 f i ProtocolComm.obj
 0001:00012e90       ?find@?$basic_string@DU?$char_traits@D@std@@V?$allocator@D@2@@std@@QEBA_KPEBD_K1@Z 0000000180013e90 f i ProtocolComm.obj
 0001:00012f60       ??1_Sentry_base@?$basic_ostream@DU?$char_traits@D@std@@@std@@QEAA@XZ 0000000180013f60 f i ProtocolComm.obj
 0001:00012fa0       ??$?6U?$char_traits@D@std@@@std@@YAAEAV?$basic_ostream@DU?$char_traits@D@std@@@0@AEAV10@PEBD@Z 0000000180013fa0 f i ProtocolComm.obj
 0001:000131a0       ??$?6DU?$char_traits@D@std@@V?$allocator@D@1@@std@@YAAEAV?$basic_ostream@DU?$char_traits@D@std@@@0@AEAV10@AEBV?$basic_string@DU?$char_traits@D@std@@V?$allocator@D@2@@0@@Z 00000001800141a0 f i ProtocolComm.obj
 0001:00013390       ??$_Copy_unchecked@PEAV?$deque@U?$pair@_KPEAX@std@@V?$allocator@U?$pair@_KPEAX@std@@@2@@std@@PEAV12@@std@@YAPEAV?$deque@U?$pair@_KPEAX@std@@V?$allocator@U?$pair@_KPEAX@std@@@2@@0@PEAV10@00@Z 0000000180014390 f i ProtocolComm.obj
 0001:000133e0       ??$?8DU?$char_traits@D@std@@V?$allocator@D@1@@std@@YA_NAEBV?$basic_string@DU?$char_traits@D@std@@V?$allocator@D@2@@0@0@Z 00000001800143e0 f i ProtocolComm.obj
 0001:00013460       ?deallocate@?$_Wrap_alloc@V?$allocator@U?$pair@_KPEAX@std@@@std@@@std@@QEAAXPEAU?$pair@_KPEAX@2@_K@Z 0000000180014460 f i ProtocolComm.obj
 0001:000134d0       ??$_Uninitialized_copy_al_unchecked1@PEAV?$deque@U?$pair@_KPEAX@std@@V?$allocator@U?$pair@_KPEAX@std@@@2@@std@@PEAV12@V?$allocator@V?$deque@U?$pair@_KPEAX@std@@V?$allocator@U?$pair@_KPEAX@std@@@2@@std@@@2@@std@@YAPEAV?$deque@U?$pair@_KPEAX@std@@V?$allocator@U?$pair@_KPEAX@std@@@2@@0@PEAV10@00AEAU?$_Wrap_alloc@V?$allocator@V?$deque@U?$pair@_KPEAX@std@@V?$allocator@U?$pair@_KPEAX@std@@@2@@std@@@std@@@0@U_General_ptr_iterator_tag@0@@Z 00000001800144d0 f i ProtocolComm.obj
 0001:000134d0       ??$_Uninitialized_copy_al_unchecked1@PEBV?$deque@U?$pair@_KPEAX@std@@V?$allocator@U?$pair@_KPEAX@std@@@2@@std@@PEAV12@V?$allocator@V?$deque@U?$pair@_KPEAX@std@@V?$allocator@U?$pair@_KPEAX@std@@@2@@std@@@2@@std@@YAPEAV?$deque@U?$pair@_KPEAX@std@@V?$allocator@U?$pair@_KPEAX@std@@@2@@0@PEBV10@0PEAV10@AEAU?$_Wrap_alloc@V?$allocator@V?$deque@U?$pair@_KPEAX@std@@V?$allocator@U?$pair@_KPEAX@std@@@2@@std@@@std@@@0@U_General_ptr_iterator_tag@0@@Z 00000001800144d0 f i ProtocolComm.obj
 0001:00013540       ??$_Buynode@AEBUpiecewise_construct_t@std@@V?$tuple@AEB_K@2@V?$tuple@$$V@2@@?$_Tree_comp_alloc@V?$_Tmap_traits@_KPEAXU?$less@_K@std@@V?$allocator@U?$pair@$$CB_KPEAX@std@@@2@$0A@@std@@@std@@QEAAPEAU?$_Tree_node@U?$pair@$$CB_KPEAX@std@@PEAX@1@AEBUpiecewise_construct_t@1@$$QEAV?$tuple@AEB_K@1@$$QEAV?$tuple@$$V@1@@Z 0000000180014540 f i Selector.obj
 0001:00013540       ??$_Buynode@AEBUpiecewise_construct_t@std@@V?$tuple@AEB_K@2@V?$tuple@$$V@2@@?$_Tree_comp_alloc@V?$_Tmap_traits@_KPEAUtagKeyContex@@U?$less@_K@std@@V?$allocator@U?$pair@$$CB_KPEAUtagKeyContex@@@std@@@3@$0A@@std@@@std@@QEAAPEAU?$_Tree_node@U?$pair@$$CB_KPEAUtagKeyContex@@@std@@PEAX@1@AEBUpiecewise_construct_t@1@$$QEAV?$tuple@AEB_K@1@$$QEAV?$tuple@$$V@1@@Z 0000000180014540 f i ProtocolComm.obj
 0001:000135a0       ??$_Insert_hint@AEAU?$pair@$$CB_KPEAUtagKeyContex@@@std@@PEAU?$_Tree_node@U?$pair@$$CB_KPEAUtagKeyContex@@@std@@PEAX@2@@?$_Tree@V?$_Tmap_traits@_KPEAUtagKeyContex@@U?$less@_K@std@@V?$allocator@U?$pair@$$CB_KPEAUtagKeyContex@@@std@@@3@$0A@@std@@@std@@IEAA?AV?$_Tree_iterator@V?$_Tree_val@U?$_Tree_simple_types@U?$pair@$$CB_KPEAUtagKeyContex@@@std@@@std@@@std@@@1@V?$_Tree_const_iterator@V?$_Tree_val@U?$_Tree_simple_types@U?$pair@$$CB_KPEAUtagKeyContex@@@std@@@std@@@std@@@1@AEAU?$pair@$$CB_KPEAUtagKeyContex@@@1@PEAU?$_Tree_node@U?$pair@$$CB_KPEAUtagKeyContex@@@std@@PEAX@1@@Z 00000001800145a0 f i ProtocolComm.obj
 0001:000135a0       ??$_Insert_hint@AEAU?$pair@$$CB_KPEAX@std@@PEAU?$_Tree_node@U?$pair@$$CB_KPEAX@std@@PEAX@2@@?$_Tree@V?$_Tmap_traits@_KPEAXU?$less@_K@std@@V?$allocator@U?$pair@$$CB_KPEAX@std@@@2@$0A@@std@@@std@@IEAA?AV?$_Tree_iterator@V?$_Tree_val@U?$_Tree_simple_types@U?$pair@$$CB_KPEAX@std@@@std@@@std@@@1@V?$_Tree_const_iterator@V?$_Tree_val@U?$_Tree_simple_types@U?$pair@$$CB_KPEAX@std@@@std@@@std@@@1@AEAU?$pair@$$CB_KPEAX@1@PEAU?$_Tree_node@U?$pair@$$CB_KPEAX@std@@PEAX@1@@Z 00000001800145a0 f i Selector.obj
 0001:000137b0       ??F?$_Tree_const_iterator@V?$_Tree_val@U?$_Tree_simple_types@U?$pair@$$CB_KPEAUtagKeyContex@@@std@@@std@@@std@@@std@@QEAAAEAV01@XZ 00000001800147b0 f i ProtocolComm.obj
 0001:000137b0       ??F?$_Tree_const_iterator@V?$_Tree_val@U?$_Tree_simple_types@U?$pair@$$CB_KPEAX@std@@@std@@@std@@@std@@QEAAAEAV01@XZ 00000001800147b0 f i Selector.obj
 0001:00013830       ??$_Insert_at@AEAU?$pair@$$CB_KPEAX@std@@PEAU?$_Tree_node@U?$pair@$$CB_KPEAX@std@@PEAX@2@@?$_Tree@V?$_Tmap_traits@_KPEAXU?$less@_K@std@@V?$allocator@U?$pair@$$CB_KPEAX@std@@@2@$0A@@std@@@std@@IEAA?AV?$_Tree_iterator@V?$_Tree_val@U?$_Tree_simple_types@U?$pair@$$CB_KPEAX@std@@@std@@@std@@@1@_NPEAU?$_Tree_node@U?$pair@$$CB_KPEAX@std@@PEAX@1@AEAU?$pair@$$CB_KPEAX@1@1@Z 0000000180014830 f i Selector.obj
 0001:00013830       ??$_Insert_at@AEAU?$pair@$$CB_KPEAUtagKeyContex@@@std@@PEAU?$_Tree_node@U?$pair@$$CB_KPEAUtagKeyContex@@@std@@PEAX@2@@?$_Tree@V?$_Tmap_traits@_KPEAUtagKeyContex@@U?$less@_K@std@@V?$allocator@U?$pair@$$CB_KPEAUtagKeyContex@@@std@@@3@$0A@@std@@@std@@IEAA?AV?$_Tree_iterator@V?$_Tree_val@U?$_Tree_simple_types@U?$pair@$$CB_KPEAUtagKeyContex@@@std@@@std@@@std@@@1@_NPEAU?$_Tree_node@U?$pair@$$CB_KPEAUtagKeyContex@@@std@@PEAX@1@AEAU?$pair@$$CB_KPEAUtagKeyContex@@@1@1@Z 0000000180014830 f i ProtocolComm.obj
 0001:00013ae0       ??$_Insert_nohint@AEAU?$pair@$$CB_KPEAX@std@@PEAU?$_Tree_node@U?$pair@$$CB_KPEAX@std@@PEAX@2@@?$_Tree@V?$_Tmap_traits@_KPEAXU?$less@_K@std@@V?$allocator@U?$pair@$$CB_KPEAX@std@@@2@$0A@@std@@@std@@IEAA?AU?$pair@V?$_Tree_iterator@V?$_Tree_val@U?$_Tree_simple_types@U?$pair@$$CB_KPEAX@std@@@std@@@std@@@std@@_N@1@_NAEAU?$pair@$$CB_KPEAX@1@PEAU?$_Tree_node@U?$pair@$$CB_KPEAX@std@@PEAX@1@@Z 0000000180014ae0 f i Selector.obj
 0001:00013ae0       ??$_Insert_nohint@AEAU?$pair@$$CB_KPEAUtagKeyContex@@@std@@PEAU?$_Tree_node@U?$pair@$$CB_KPEAUtagKeyContex@@@std@@PEAX@2@@?$_Tree@V?$_Tmap_traits@_KPEAUtagKeyContex@@U?$less@_K@std@@V?$allocator@U?$pair@$$CB_KPEAUtagKeyContex@@@std@@@3@$0A@@std@@@std@@IEAA?AU?$pair@V?$_Tree_iterator@V?$_Tree_val@U?$_Tree_simple_types@U?$pair@$$CB_KPEAUtagKeyContex@@@std@@@std@@@std@@@std@@_N@1@_NAEAU?$pair@$$CB_KPEAUtagKeyContex@@@1@PEAU?$_Tree_node@U?$pair@$$CB_KPEAUtagKeyContex@@@std@@PEAX@1@@Z 0000000180014ae0 f i ProtocolComm.obj
 0001:00013c28       ?Stop@CSelector@@$4PPPPPPPM@A@EAAXXZ 0000000180014c28 f i ProtocolComm.obj
 0001:00013c34       ?Finish@CSelectorListen@@$4PPPPPPPM@A@EAAXXZ 0000000180014c34 f i ProtocolComm.obj
 0001:00013c34       ?Finish@CSelectorIo@@$4PPPPPPPM@A@EAAXXZ 0000000180014c34 f i ProtocolComm.obj
 0001:00013c40       ??_ECSelector@@$2PPPPPPPM@BIA@EAAPEAXI@Z 0000000180014c40 f i ProtocolComm.obj
 0001:00013c54       ??_ECSelectorIo@@$2PPPPPPPM@BIA@EAAPEAXI@Z 0000000180014c54 f i ProtocolComm.obj
 0001:00013c68       ?Start@CSelector@@$4PPPPPPPM@A@EAAHXZ 0000000180014c68 f i ProtocolComm.obj
 0001:00013c74       ?Finish@CSelector@@$4PPPPPPPM@A@EAAXXZ 0000000180014c74 f i ProtocolComm.obj
 0001:00013c80       ?Init@CSelector@@$4PPPPPPPM@A@EAAHPEAVCConfig@@@Z 0000000180014c80 f i ProtocolComm.obj
 0001:00013c8c       ??_ECSelectorListen@@$2PPPPPPPM@BIA@EAAPEAXI@Z 0000000180014c8c f i ProtocolComm.obj
 0001:00013ca0       ??1CProcessTimer@CAppProcess@@UEAA@XZ 0000000180014ca0 f i ProtocolProcess.obj
 0001:00013cb0       ?TimeOut@CProcessTimer@CAppProcess@@UEAAHAEBV?$basic_string@DU?$char_traits@D@std@@V?$allocator@D@2@@std@@AEAK@Z 0000000180014cb0 f i ProtocolProcess.obj
 0001:00013cd0       ??0CAppProcess@@QEAA@XZ    0000000180014cd0 f i ProtocolProcess.obj
 0001:00013da0       ??1CAppProcess@@UEAA@XZ    0000000180014da0 f i ProtocolProcess.obj
 0001:00013e30       ?Bind@CAppProcess@@UEAAXPEAVCProtocolComm@@@Z 0000000180014e30 f i ProtocolProcess.obj
 0001:00013e40       ?SocketID@CAppProcess@@UEAAX_K@Z 0000000180014e40 f i ProtocolProcess.obj
 0001:00013e50       ?SocketID@CAppProcess@@UEAA_KXZ 0000000180014e50 f i ProtocolProcess.obj
 0001:00013e60       ?SetPeerInfo@CAppProcess@@UEAAXAEBV?$basic_string@DU?$char_traits@D@std@@V?$allocator@D@2@@std@@H0H@Z 0000000180014e60 f i ProtocolProcess.obj
 0001:00013ed0       ?GetPeerInfo@CAppProcess@@UEAAXAEAV?$basic_string@DU?$char_traits@D@std@@V?$allocator@D@2@@std@@AEAH01@Z 0000000180014ed0 f i ProtocolProcess.obj
 0001:00013f50       ?SendData@CAppProcess@@IEAAHPEBDH@Z 0000000180014f50 f i ProtocolProcess.obj
 0001:00014070       ?ReqClose@CAppProcess@@IEAAXXZ 0000000180015070 f i ProtocolProcess.obj
 0001:000140b0       ?UpdateStatics@CAppProcess@@IEAAXW4eProcessStaticType@@H@Z 00000001800150b0 f i ProtocolProcess.obj
 0001:000140d0       ?GetProcessStatics@CAppProcess@@IEAAXQEAI@Z 00000001800150d0 f i ProtocolProcess.obj
 0001:00014100       ?GetOutFlowStatics@CAppProcess@@IEAAXAEAI0@Z 0000000180015100 f i ProtocolProcess.obj
 0001:000141b0       ?CreateTimer@CAppProcess@@IEAAHAEAK@Z 00000001800151b0 f i ProtocolProcess.obj
 0001:000142b0       ?DestroyTimer@CAppProcess@@IEAAXXZ 00000001800152b0 f i ProtocolProcess.obj
 0001:000143a0       ?OnTimeout@CAppProcess@@AEAAHAEBV?$basic_string@DU?$char_traits@D@std@@V?$allocator@D@2@@std@@AEAK@Z 00000001800153a0 f i ProtocolProcess.obj
 0001:000143b0       ??0CAppProcess@@QEAA@AEBV0@@Z 00000001800153b0 f i ProtocolProcess.obj
 0001:000144e0       ??4CAppProcess@@QEAAAEAV0@AEBV0@@Z 00000001800154e0 f i ProtocolProcess.obj
 0001:00014600       ??_ECAppProcess@@UEAAPEAXI@Z 0000000180015600 f i ProtocolProcess.obj
 0001:000146b0       ??_ECProcessTimer@CAppProcess@@UEAAPEAXI@Z 00000001800156b0 f i * CIL library *:* CIL module *
 0001:000146b0       ??_GCProcessTimer@CAppProcess@@UEAAPEAXI@Z 00000001800156b0 f i ProtocolProcess.obj
 0001:000146e0       ??0CAppProcessClient@@QEAA@XZ 00000001800156e0 f i ProtocolProcess.obj
 0001:00014750       ??1CAppProcessClient@@UEAA@XZ 0000000180015750 f i ProtocolProcess.obj
 0001:000147b0       ?OnRecvPacket@CAppProcessClient@@IEAAHAEAVCPacket@@@Z 00000001800157b0 f i ProtocolProcess.obj
 0001:000147d0       ?OnLogin@CAppProcessClient@@MEAAHH@Z 00000001800157d0 f i ProtocolProcess.obj
 0001:000149c0       ??0CAppProcessClient@@QEAA@AEBV0@@Z 00000001800159c0 f i ProtocolProcess.obj
 0001:00014a20       ??4CAppProcessClient@@QEAAAEAV0@AEBV0@@Z 0000000180015a20 f i ProtocolProcess.obj
 0001:00014a60       ??_ECAppProcessClient@@UEAAPEAXI@Z 0000000180015a60 f i ProtocolProcess.obj
 0001:00014b40       ??0CAppProcessServer@@QEAA@XZ 0000000180015b40 f i ProtocolProcess.obj
 0001:00014be0       ??1CAppProcessServer@@UEAA@XZ 0000000180015be0 f i ProtocolProcess.obj
 0001:00014c70       ?Keys@CAppProcessServer@@QEAAAEBV?$list@V?$basic_string@DU?$char_traits@D@std@@V?$allocator@D@2@@std@@V?$allocator@V?$basic_string@DU?$char_traits@D@std@@V?$allocator@D@2@@std@@@2@@std@@XZ 0000000180015c70 f i ProtocolProcess.obj
 0001:00014c80       ?RemoveKey@CAppProcessServer@@QEAAXV?$basic_string@DU?$char_traits@D@std@@V?$allocator@D@2@@std@@@Z 0000000180015c80 f i ProtocolProcess.obj
 0001:00014cb0       ?OnRecvPacket@CAppProcessServer@@IEAAHV?$basic_string@DU?$char_traits@D@std@@V?$allocator@D@2@@std@@AEAVCPacket@@@Z 0000000180015cb0 f i ProtocolProcess.obj
 0001:00014d60       ?OnLogin@CAppProcessServer@@MEAAHH@Z 0000000180015d60 f i ProtocolProcess.obj
 0001:00014f50       ?Is1stPacket@CAppProcessServer@@AEAA_NAEBV?$basic_string@DU?$char_traits@D@std@@V?$allocator@D@2@@std@@@Z 0000000180015f50 f i ProtocolProcess.obj
 0001:00015000       ??0CAppProcessServer@@QEAA@AEBV0@@Z 0000000180016000 f i ProtocolProcess.obj
 0001:00015080       ??4CAppProcessServer@@QEAAAEAV0@AEBV0@@Z 0000000180016080 f i ProtocolProcess.obj
 0001:000150f0       ??_ECAppProcessServer@@UEAAPEAXI@Z 00000001800160f0 f i ProtocolProcess.obj
 0001:00015180       ??0CTcpHandler@@QEAA@XZ    0000000180016180 f i ProtocolProcess.obj
 0001:00015190       ??1CTcpHandler@@UEAA@XZ    0000000180016190 f i ProtocolProcess.obj
 0001:000151a0       ?InitPacketInfo@CTcpHandler@@QEAAHXZ 00000001800161a0 f i ProtocolProcess.obj
 0001:000151c0       ??0CTcpHandler@@QEAA@AEBV0@@Z 00000001800161c0 f i ProtocolProcess.obj
 0001:000151f0       ??4CTcpHandler@@QEAAAEAV0@AEBV0@@Z 00000001800161f0 f i ProtocolProcess.obj
 0001:00015220       ??_ECTcpHandler@@UEAAPEAXI@Z 0000000180016220 f i ProtocolProcess.obj
 0001:000152b0       ?GetRcvBufTcp@CTcpHandlerLong@@QEAAPEAUtagBuf@@XZ 00000001800162b0 f i ProtocolProcess.obj
 0001:000152c0       ?GetInFlowStatics@CTcpHandlerLong@@IEAAXAEAI0@Z 00000001800162c0 f i ProtocolProcess.obj
 0001:00015350       ??0CTcpHandlerLong@@QEAA@AEBV0@@Z 0000000180016350 f i ProtocolProcess.obj
 0001:00015470       ??4CTcpHandlerLong@@QEAAAEAV0@AEBV0@@Z 0000000180016470 f i ProtocolProcess.obj
 0001:00015590       ??_ECTcpHandlerLong@@UEAAPEAXI@Z 0000000180016590 f i ProtocolProcess.obj
 0001:00015650       ??0CTcpAppProcessClient@@QEAA@XZ 0000000180016650 f i ProtocolProcess.obj
 0001:000156e0       ??1CTcpAppProcessClient@@UEAA@XZ 00000001800166e0 f i ProtocolProcess.obj
 0001:00015770       ?OnRecv@CTcpAppProcessClient@@UEAAHPEADH@Z 0000000180016770 f i ProtocolProcess.obj
 0001:00015770       ?OnRecv@CTcpAppProcessServer@@UEAAHPEADH@Z 0000000180016770 f i ProtocolProcess.obj
 0001:00015790       ?OnRecv@CTcpAppProcessServer@@UEAAHXZ 0000000180016790 f i ProtocolProcess.obj
 0001:00015790       ?OnRecv@CTcpAppProcessClient@@UEAAHXZ 0000000180016790 f i ProtocolProcess.obj
 0001:000157b0       ?GetRcvBuf@CTcpAppProcessClient@@UEAAPEAUtagBuf@@XZ 00000001800167b0 f i ProtocolProcess.obj
 0001:000157b0       ?GetRcvBuf@CTcpAppProcessServer@@UEAAPEAUtagBuf@@XZ 00000001800167b0 f i ProtocolProcess.obj
 0001:000157c0       ?Init@CTcpAppProcessServer@@UEAAHPEAVCConfig@@@Z 00000001800167c0 f i ProtocolProcess.obj
 0001:000157c0       ?Init@CTcpAppProcessClient@@UEAAHPEAVCConfig@@@Z 00000001800167c0 f i ProtocolProcess.obj
 0001:000157f0       ?GetFlowStatics@CTcpAppProcessClient@@QEAAXAEAI000@Z 00000001800167f0 f i ProtocolProcess.obj
 0001:000157f0       ?GetFlowStatics@CTcpAppProcessServer@@QEAAXAEAI000@Z 00000001800167f0 f i ProtocolProcess.obj
 0001:00015830       ??0CTcpAppProcessClient@@QEAA@AEBV0@@Z 0000000180016830 f i ProtocolProcess.obj
 0001:000158b0       ??4CTcpAppProcessClient@@QEAAAEAV0@AEBV0@@Z 00000001800168b0 f i ProtocolProcess.obj
 0001:00015950       ??_ECTcpAppProcessClient@@UEAAPEAXI@Z 0000000180016950 f i ProtocolProcess.obj
 0001:00015a60       ??0CTcpAppProcessServer@@QEAA@XZ 0000000180016a60 f i ProtocolProcess.obj
 0001:00015af0       ??1CTcpAppProcessServer@@UEAA@XZ 0000000180016af0 f i ProtocolProcess.obj
 0001:00015b80       ??0CTcpAppProcessServer@@QEAA@AEBV0@@Z 0000000180016b80 f i ProtocolProcess.obj
 0001:00015c00       ??4CTcpAppProcessServer@@QEAAAEAV0@AEBV0@@Z 0000000180016c00 f i ProtocolProcess.obj
 0001:00015cd0       ??_ECTcpAppProcessServer@@UEAAPEAXI@Z 0000000180016cd0 f i ProtocolProcess.obj
 0001:00015de0       ??0CTcpShortProcess@@QEAA@XZ 0000000180016de0 f i ProtocolProcess.obj
 0001:00015e10       ??1CTcpShortProcess@@UEAA@XZ 0000000180016e10 f i ProtocolProcess.obj
 0001:00015e30       ?Init@CTcpShortProcess@@UEAAHPEAVCConfig@@@Z 0000000180016e30 f i ProtocolProcess.obj
 0001:00015e60       ?SendPacket@CTcpShortProcess@@UEAAHAEAVCPacket@@0I@Z 0000000180016e60 f i ProtocolProcess.obj
 0001:00016340       ?Bind@CTcpShortProcess@@QEAAXPEAVCTcpShortComm@@@Z 0000000180017340 f i ProtocolProcess.obj
 0001:00016350       ?SendData@CTcpShortProcess@@IEAAHPEBDH@Z 0000000180017350 f i ProtocolProcess.obj
 0001:00016360       ??0CTcpShortProcess@@QEAA@AEBV0@@Z 0000000180017360 f i ProtocolProcess.obj
 0001:000163a0       ??4CTcpShortProcess@@QEAAAEAV0@AEBV0@@Z 00000001800173a0 f i ProtocolProcess.obj
 0001:00016410       ??_ECTcpShortProcess@@UEAAPEAXI@Z 0000000180017410 f i ProtocolProcess.obj
 0001:000164b0       ??0CTcpHandlerLong@@QEAA@XZ 00000001800174b0 f   ProtocolProcess.obj
 0001:00016550       ??1CTcpHandlerLong@@UEAA@XZ 0000000180017550 f   ProtocolProcess.obj
 0001:000165a0       ?GetPacketLength@CTcpHandler@@MEAA_KPEBD@Z 00000001800175a0 f   ProtocolProcess.obj
 0001:000167d0       ?OnRecvTcp@CTcpHandlerLong@@QEAAHPEADH@Z 00000001800177d0 f   ProtocolProcess.obj
 0001:00016be0       ?OnRecvTcp@CTcpHandlerLong@@QEAAHXZ 0000000180017be0 f   ProtocolProcess.obj
 0001:00016f00       ?UpdateStatics@CTcpHandlerLong@@IEAAXW4eCommStaticType@@H@Z 0000000180017f00 f   ProtocolProcess.obj
 0001:00016f20       ??1?$list@PEAUtagBuf@@V?$allocator@PEAUtagBuf@@@std@@@std@@QEAA@XZ 0000000180017f20 f i ProtocolProcess.obj
 0001:00016f80       ?remove@?$list@V?$basic_string@DU?$char_traits@D@std@@V?$allocator@D@2@@std@@V?$allocator@V?$basic_string@DU?$char_traits@D@std@@V?$allocator@D@2@@std@@@2@@std@@QEAAXAEBV?$basic_string@DU?$char_traits@D@std@@V?$allocator@D@2@@2@@Z 0000000180017f80 f i ProtocolProcess.obj
 0001:000170a0       ?clear@?$list@V?$basic_string@DU?$char_traits@D@std@@V?$allocator@D@2@@std@@V?$allocator@V?$basic_string@DU?$char_traits@D@std@@V?$allocator@D@2@@std@@@2@@std@@QEAAXXZ 00000001800180a0 f i ProtocolProcess.obj
 0001:00017110       ??1?$list@V?$basic_string@DU?$char_traits@D@std@@V?$allocator@D@2@@std@@V?$allocator@V?$basic_string@DU?$char_traits@D@std@@V?$allocator@D@2@@std@@@2@@std@@QEAA@XZ 0000000180018110 f i ProtocolProcess.obj
 0001:00017140       ??0?$list@V?$basic_string@DU?$char_traits@D@std@@V?$allocator@D@2@@std@@V?$allocator@V?$basic_string@DU?$char_traits@D@std@@V?$allocator@D@2@@std@@@2@@std@@QEAA@AEBV01@@Z 0000000180018140 f i ProtocolProcess.obj
 0001:000171a0       ??1?$_List_buy@PEAUtagBuf@@V?$allocator@PEAUtagBuf@@@std@@@std@@QEAA@XZ 00000001800181a0 f i ProtocolProcess.obj
 0001:000171a0       ??1?$_List_buy@V?$basic_string@DU?$char_traits@D@std@@V?$allocator@D@2@@std@@V?$allocator@V?$basic_string@DU?$char_traits@D@std@@V?$allocator@D@2@@std@@@2@@std@@QEAA@XZ 00000001800181a0 f i ProtocolProcess.obj
 0001:000171c0       ?_Buynode0@?$_List_alloc@U?$_List_base_types@PEAUtagBuf@@V?$allocator@PEAUtagBuf@@@std@@@std@@@std@@QEAAPEAU?$_List_node@PEAUtagBuf@@PEAX@2@PEAU32@0@Z 00000001800181c0 f i ProtocolProcess.obj
 0001:00017220       ?_Buynode0@?$_List_alloc@U?$_List_base_types@V?$basic_string@DU?$char_traits@D@std@@V?$allocator@D@2@@std@@V?$allocator@V?$basic_string@DU?$char_traits@D@std@@V?$allocator@D@2@@std@@@2@@std@@@std@@QEAAPEAU?$_List_node@V?$basic_string@DU?$char_traits@D@std@@V?$allocator@D@2@@std@@PEAX@2@PEAU32@0@Z 0000000180018220 f i ProtocolProcess.obj
 0001:00017280       ??$assign@V?$_List_const_iterator@V?$_List_val@U?$_List_simple_types@V?$basic_string@DU?$char_traits@D@std@@V?$allocator@D@2@@std@@@std@@@std@@@std@@@?$list@V?$basic_string@DU?$char_traits@D@std@@V?$allocator@D@2@@std@@V?$allocator@V?$basic_string@DU?$char_traits@D@std@@V?$allocator@D@2@@std@@@2@@std@@QEAAXV?$_List_const_iterator@V?$_List_val@U?$_List_simple_types@V?$basic_string@DU?$char_traits@D@std@@V?$allocator@D@2@@std@@@std@@@std@@@1@0@Z 0000000180018280 f i ProtocolProcess.obj
 0001:000173c0       ??$_Buynode@AEBQEAUtagBuf@@@?$_List_buy@PEAUtagBuf@@V?$allocator@PEAUtagBuf@@@std@@@std@@QEAAPEAU?$_List_node@PEAUtagBuf@@PEAX@1@PEAU21@0AEBQEAUtagBuf@@@Z 00000001800183c0 f i ProtocolProcess.obj
 0001:00017400       ??$_Buynode@AEBV?$basic_string@DU?$char_traits@D@std@@V?$allocator@D@2@@std@@@?$_List_buy@V?$basic_string@DU?$char_traits@D@std@@V?$allocator@D@2@@std@@V?$allocator@V?$basic_string@DU?$char_traits@D@std@@V?$allocator@D@2@@std@@@2@@std@@QEAAPEAU?$_List_node@V?$basic_string@DU?$char_traits@D@std@@V?$allocator@D@2@@std@@PEAX@1@PEAU21@0AEBV?$basic_string@DU?$char_traits@D@std@@V?$allocator@D@2@@1@@Z 0000000180018400 f i ProtocolProcess.obj
 0001:00017490       ??$_Reusenode@AEBV?$basic_string@DU?$char_traits@D@std@@V?$allocator@D@2@@std@@@?$list@V?$basic_string@DU?$char_traits@D@std@@V?$allocator@D@2@@std@@V?$allocator@V?$basic_string@DU?$char_traits@D@std@@V?$allocator@D@2@@std@@@2@@std@@QEAAXV?$_List_iterator@V?$_List_val@U?$_List_simple_types@V?$basic_string@DU?$char_traits@D@std@@V?$allocator@D@2@@std@@@std@@@std@@@1@AEBV?$basic_string@DU?$char_traits@D@std@@V?$allocator@D@2@@1@@Z 0000000180018490 f i ProtocolProcess.obj
 0001:00017510       ??$_Insert_range@V?$_List_const_iterator@V?$_List_val@U?$_List_simple_types@V?$basic_string@DU?$char_traits@D@std@@V?$allocator@D@2@@std@@@std@@@std@@@std@@@?$list@V?$basic_string@DU?$char_traits@D@std@@V?$allocator@D@2@@std@@V?$allocator@V?$basic_string@DU?$char_traits@D@std@@V?$allocator@D@2@@std@@@2@@std@@QEAAXV?$_List_unchecked_const_iterator@V?$_List_val@U?$_List_simple_types@V?$basic_string@DU?$char_traits@D@std@@V?$allocator@D@2@@std@@@std@@@std@@U_Iterator_base0@2@@1@V?$_List_const_iterator@V?$_List_val@U?$_List_simple_types@V?$basic_string@DU?$char_traits@D@std@@V?$allocator@D@2@@std@@@std@@@std@@@1@1Uforward_iterator_tag@1@@Z 0000000180018510 f i ProtocolProcess.obj
 0001:000175b0       ??$_Find@V?$_List_unchecked_iterator@V?$_List_val@U?$_List_simple_types@V?$basic_string@DU?$char_traits@D@std@@V?$allocator@D@2@@std@@@std@@@std@@@std@@V?$basic_string@DU?$char_traits@D@std@@V?$allocator@D@2@@2@@std@@YA?AV?$_List_unchecked_iterator@V?$_List_val@U?$_List_simple_types@V?$basic_string@DU?$char_traits@D@std@@V?$allocator@D@2@@std@@@std@@@std@@@0@V10@0AEBV?$basic_string@DU?$char_traits@D@std@@V?$allocator@D@2@@0@U?$integral_constant@_N$0A@@0@@Z 00000001800185b0 f i ProtocolProcess.obj
 0001:00017670       ??_ECTcpAppProcessClient@@$4PPPPPPPM@A@EAAPEAXI@Z 0000000180018670 f i ProtocolProcess.obj
 0001:0001767c       ??_ECAppProcess@@$4PPPPPPPM@A@EAAPEAXI@Z 000000018001867c f i ProtocolProcess.obj
 0001:00017688       ?Init@CTcpAppProcessClient@@$4PPPPPPPM@A@EAAHPEAVCConfig@@@Z 0000000180018688 f i ProtocolProcess.obj
 0001:00017688       ?Init@CTcpAppProcessServer@@$4PPPPPPPM@A@EAAHPEAVCConfig@@@Z 0000000180018688 f i ProtocolProcess.obj
 0001:00017694       ?SocketID@CAppProcess@@$R4BA@7PPPPPPPM@NA@EAAX_K@Z 0000000180018694 f i ProtocolProcess.obj
 0001:000176b0       ?SocketID@CAppProcess@@$R4BA@7PPPPPPPM@NA@EAA_KXZ 00000001800186b0 f i ProtocolProcess.obj
 0001:000176cc       ?OnLogin@CAppProcessClient@@$R2CA@M@PPPPPPPM@CI@EAAHH@Z 00000001800186cc f i ProtocolProcess.obj
 0001:000176e8       ??_ECAppProcessServer@@$4PPPPPPPM@A@EAAPEAXI@Z 00000001800186e8 f i ProtocolProcess.obj
 0001:000176f4       ?Bind@CAppProcess@@$R4BA@7PPPPPPPM@NA@EAAXPEAVCProtocolComm@@@Z 00000001800186f4 f i ProtocolProcess.obj
 0001:00017710       ?SetPeerInfo@CAppProcess@@$4PPPPPPPM@A@EAAXAEBV?$basic_string@DU?$char_traits@D@std@@V?$allocator@D@2@@std@@H0H@Z 0000000180018710 f i ProtocolProcess.obj
 0001:0001771c       ?OnRecv@CTcpAppProcessServer@@$4PPPPPPPM@A@EAAHPEADH@Z 000000018001871c f i ProtocolProcess.obj
 0001:0001771c       ?OnRecv@CTcpAppProcessClient@@$4PPPPPPPM@A@EAAHPEADH@Z 000000018001871c f i ProtocolProcess.obj
 0001:00017728       ?OnRecv@CTcpAppProcessClient@@$4PPPPPPPM@A@EAAHXZ 0000000180018728 f i ProtocolProcess.obj
 0001:00017728       ?OnRecv@CTcpAppProcessServer@@$4PPPPPPPM@A@EAAHXZ 0000000180018728 f i ProtocolProcess.obj
 0001:00017734       ?GetPeerInfo@CAppProcess@@$4PPPPPPPM@A@EAAXAEAV?$basic_string@DU?$char_traits@D@std@@V?$allocator@D@2@@std@@AEAH01@Z 0000000180018734 f i ProtocolProcess.obj
 0001:00017740       ?SetPeerInfo@CAppProcess@@$R4CA@7PPPPPPPM@NA@EAAXAEBV?$basic_string@DU?$char_traits@D@std@@V?$allocator@D@2@@std@@H0H@Z 0000000180018740 f i ProtocolProcess.obj
 0001:0001775c       ?GetPeerInfo@CAppProcess@@$R4CA@7PPPPPPPM@NA@EAAXAEAV?$basic_string@DU?$char_traits@D@std@@V?$allocator@D@2@@std@@AEAH01@Z 000000018001875c f i ProtocolProcess.obj
 0001:00017778       ?GetRcvBuf@CTcpAppProcessClient@@$4PPPPPPPM@A@EAAPEAUtagBuf@@XZ 0000000180018778 f i ProtocolProcess.obj
 0001:00017778       ?GetRcvBuf@CTcpAppProcessServer@@$4PPPPPPPM@A@EAAPEAUtagBuf@@XZ 0000000180018778 f i ProtocolProcess.obj
 0001:00017784       ?OnLogin@CAppProcessClient@@$2PPPPPPPM@A@EAAHH@Z 0000000180018784 f i ProtocolProcess.obj
 0001:00017790       ??_ECAppProcessClient@@$4PPPPPPPM@A@EAAPEAXI@Z 0000000180018790 f i ProtocolProcess.obj
 0001:0001779c       ??_ECTcpAppProcessClient@@WOI@EAAPEAXI@Z 000000018001879c f i ProtocolProcess.obj
 0001:000177a8       ?OnLogin@CAppProcessServer@@$2PPPPPPPM@A@EAAHH@Z 00000001800187a8 f i ProtocolProcess.obj
 0001:000177b4       ?SocketID@CAppProcess@@$4PPPPPPPM@A@EAAX_K@Z 00000001800187b4 f i ProtocolProcess.obj
 0001:000177c0       ?SocketID@CAppProcess@@$4PPPPPPPM@A@EAA_KXZ 00000001800187c0 f i ProtocolProcess.obj
 0001:000177cc       ?Bind@CAppProcess@@$4PPPPPPPM@A@EAAXPEAVCProtocolComm@@@Z 00000001800187cc f i ProtocolProcess.obj
 0001:000177d8       ?SocketID@CAppProcess@@$R4CA@7PPPPPPPM@NA@EAAX_K@Z 00000001800187d8 f i ProtocolProcess.obj
 0001:000177f4       ?SocketID@CAppProcess@@$R4CA@7PPPPPPPM@NA@EAA_KXZ 00000001800187f4 f i ProtocolProcess.obj
 0001:00017810       ?Bind@CAppProcess@@$R4CA@7PPPPPPPM@NA@EAAXPEAVCProtocolComm@@@Z 0000000180018810 f i ProtocolProcess.obj
 0001:0001782c       ?SetPeerInfo@CAppProcess@@$R4BA@7PPPPPPPM@NA@EAAXAEBV?$basic_string@DU?$char_traits@D@std@@V?$allocator@D@2@@std@@H0H@Z 000000018001882c f i ProtocolProcess.obj
 0001:00017848       ?GetPeerInfo@CAppProcess@@$R4BA@7PPPPPPPM@NA@EAAXAEAV?$basic_string@DU?$char_traits@D@std@@V?$allocator@D@2@@std@@AEAH01@Z 0000000180018848 f i ProtocolProcess.obj
 0001:00017864       ??_ECTcpAppProcessServer@@$4PPPPPPPM@A@EAAPEAXI@Z 0000000180018864 f i ProtocolProcess.obj
 0001:00017870       ??_ECTcpAppProcessServer@@WPI@EAAPEAXI@Z 0000000180018870 f i ProtocolProcess.obj
 0001:0001787c       ?OnLogin@CAppProcessServer@@$R2CA@M@PPPPPPPM@DI@EAAHH@Z 000000018001887c f i ProtocolProcess.obj
 0001:000178a0       ?ThreadEntry@CSelectorWorker@@EEAAHXZ 00000001800188a0 f i Selector.obj
 0001:00017970       ?End@CSelectorWorker@@EEAAHXZ 0000000180018970 f i Selector.obj
 0001:00017a40       ?IsNetManaged@CSelectorWorker@@EEAA_NAEAV?$basic_string@DU?$char_traits@D@std@@V?$allocator@D@2@@std@@@Z 0000000180018a40 f i Selector.obj
 0001:00017b40       ??_GCSelectorWorker@@UEAAPEAXI@Z 0000000180018b40 f i Selector.obj
 0001:00017b40       ??_ECSelectorWorker@@UEAAPEAXI@Z 0000000180018b40 f i * CIL library *:* CIL module *
 0001:00017bd0       ??0CSelector@@IEAA@XZ      0000000180018bd0 f   Selector.obj
 0001:00017d10       ??1CSelector@@MEAA@XZ      0000000180018d10 f   Selector.obj
 0001:00017e80       ?Init@CSelector@@UEAAHPEAVCConfig@@@Z 0000000180018e80 f   Selector.obj
 0001:000183e0       ?Finish@CSelector@@UEAAXXZ 00000001800193e0 f   Selector.obj
 0001:000185d0       ?Start@CSelector@@UEAAHXZ  00000001800195d0 f   Selector.obj
 0001:00018600       ?Stop@CSelector@@UEAAXXZ   0000000180019600 f   Selector.obj
 0001:00018630       ?Signal@CSelector@@AEAAXXZ 0000000180019630 f   Selector.obj
 0001:00018720       ?Register@CSelector@@UEAAH_KPEAX@Z 0000000180019720 f   Selector.obj
 0001:00018900       ?UnRegister@CSelector@@UEAAX_K@Z 0000000180019900 f   Selector.obj
 0001:000189a0       ?Lock@CSelector@@IEAAXH@Z  00000001800199a0 f   Selector.obj
 0001:000189c0       ?Unlock@CSelector@@IEAAXH@Z 00000001800199c0 f   Selector.obj
 0001:000189e0       ?Push@CSelector@@IEAAH_KPEAX@Z 00000001800199e0 f   Selector.obj
 0001:00018af0       ?NotifyQueue@CSelector@@IEAAXXZ 0000000180019af0 f   Selector.obj
 0001:00018bc0       ?ThreadEntry@CSelector@@MEAAHXZ 0000000180019bc0 f   Selector.obj
 0001:00018fb0       ?End@CSelector@@MEAAHXZ    0000000180019fb0 f   Selector.obj
 0001:00018fe0       ?ToString@CSelector@@QEAA?AV?$basic_string@DU?$char_traits@D@std@@V?$allocator@D@2@@std@@XZ 0000000180019fe0 f   Selector.obj
 0001:000195b0       ?Handle@CSelectorListen@@MEAAHH@Z 000000018001a5b0 f   Selector.obj
 0001:00019840       ?OnActive@CSelectorListen@@MEAAX_KPEAX@Z 000000018001a840 f   Selector.obj
 0001:00019840       ?OnActive@CSelectorIo@@MEAAX_KPEAX@Z 000000018001a840 f   Selector.obj
 0001:00019850       ?UdpSocket@CSelectorListen@@MEAAHAEA_KAEAH@Z 000000018001a850 f   Selector.obj
 0001:00019b20       ?Finish@CSelectorIo@@UEAAXXZ 000000018001ab20 f   Selector.obj
 0001:00019b20       ?Finish@CSelectorListen@@UEAAXXZ 000000018001ab20 f   Selector.obj
 0001:00019b60       ?IsNetManaged@CSelectorListen@@EEAA_NAEAV?$basic_string@DU?$char_traits@D@std@@V?$allocator@D@2@@std@@@Z 000000018001ab60 f   Selector.obj
 0001:00019b80       ?Handle@CSelectorIo@@MEAAHH@Z 000000018001ab80 f   Selector.obj
 0001:00019dd0       ?UdpSocket@CSelectorIo@@MEAAHAEA_KAEAH@Z 000000018001add0 f   Selector.obj
 0001:0001a010       ?IsNetManaged@CSelectorIo@@EEAA_NAEAV?$basic_string@DU?$char_traits@D@std@@V?$allocator@D@2@@std@@@Z 000000018001b010 f   Selector.obj
 0001:0001a030       ?push_back@?$vector@U?$pair@_KPEAX@std@@V?$allocator@U?$pair@_KPEAX@std@@@2@@std@@QEAAXAEBU?$pair@_KPEAX@2@@Z 000000018001b030 f i Selector.obj
 0001:0001a1a0       ??1?$vector@U?$pair@_KPEAX@std@@V?$allocator@U?$pair@_KPEAX@std@@@2@@std@@QEAA@XZ 000000018001b1a0 f i Selector.obj
 0001:0001a1e0       ?push_back@?$vector@PEAVCGessMutex@@V?$allocator@PEAVCGessMutex@@@std@@@std@@QEAAXAEBQEAVCGessMutex@@@Z 000000018001b1e0 f i Selector.obj
 0001:0001a1e0       ?push_back@?$vector@PEAVCSelectorWorker@@V?$allocator@PEAVCSelectorWorker@@@std@@@std@@QEAAXAEBQEAVCSelectorWorker@@@Z 000000018001b1e0 f i Selector.obj
 0001:0001a350       ?_Reserve@?$vector@V?$deque@U?$pair@_KPEAX@std@@V?$allocator@U?$pair@_KPEAX@std@@@2@@std@@V?$allocator@V?$deque@U?$pair@_KPEAX@std@@V?$allocator@U?$pair@_KPEAX@std@@@2@@std@@@2@@std@@IEAAX_K@Z 000000018001b350 f i Selector.obj
 0001:0001a420       ?_Reallocate@?$vector@U?$pair@_KPEAX@std@@V?$allocator@U?$pair@_KPEAX@std@@@2@@std@@IEAAX_K@Z 000000018001b420 f i Selector.obj
 0001:0001a4b0       ?_Reallocate@?$vector@PEAVCGessMutex@@V?$allocator@PEAVCGessMutex@@@std@@@std@@IEAAX_K@Z 000000018001b4b0 f i Selector.obj
 0001:0001a4b0       ?_Reallocate@?$vector@PEAVCSelectorWorker@@V?$allocator@PEAVCSelectorWorker@@@std@@@std@@IEAAX_K@Z 000000018001b4b0 f i Selector.obj
 0001:0001a540       ?_Reallocate@?$vector@V?$deque@U?$pair@_KPEAX@std@@V?$allocator@U?$pair@_KPEAX@std@@@2@@std@@V?$allocator@V?$deque@U?$pair@_KPEAX@std@@V?$allocator@U?$pair@_KPEAX@std@@@2@@std@@@2@@std@@IEAAX_K@Z 000000018001b540 f i Selector.obj
 0001:0001a660       ??$_Uninitialized_move_al_unchecked1@PEAU?$pair@_KPEAX@std@@PEAU12@V?$allocator@U?$pair@_KPEAX@std@@@2@@std@@YAPEAU?$pair@_KPEAX@0@PEAU10@00AEAU?$_Wrap_alloc@V?$allocator@U?$pair@_KPEAX@std@@@std@@@0@U_General_ptr_iterator_tag@0@@Z 000000018001b660 f i Selector.obj
 0001:0001a6a0       ??$_Uninitialized_move_al_unchecked1@PEAV?$deque@U?$pair@_KPEAX@std@@V?$allocator@U?$pair@_KPEAX@std@@@2@@std@@PEAV12@V?$allocator@V?$deque@U?$pair@_KPEAX@std@@V?$allocator@U?$pair@_KPEAX@std@@@2@@std@@@2@@std@@YAPEAV?$deque@U?$pair@_KPEAX@std@@V?$allocator@U?$pair@_KPEAX@std@@@2@@0@PEAV10@00AEAU?$_Wrap_alloc@V?$allocator@V?$deque@U?$pair@_KPEAX@std@@V?$allocator@U?$pair@_KPEAX@std@@@2@@std@@@std@@@0@U_General_ptr_iterator_tag@0@@Z 000000018001b6a0 f i Selector.obj
 0001:0001a7a0       ??0CWorkThreadNm@@QEAA@XZ  000000018001b7a0 f   WorkThreadNm.obj
 0001:0001a870       ??1CWorkThreadNm@@UEAA@XZ  000000018001b870 f   WorkThreadNm.obj
 0001:0001a8c0       ?BeginThread@CWorkThreadNm@@UEAAHXZ 000000018001b8c0 f   WorkThreadNm.obj
 0001:0001a9d0       ?OnStart@CWorkThreadNm@@MEAAXXZ 000000018001b9d0 f   WorkThreadNm.obj
 0001:0001aed0       ?OnStop@CWorkThreadNm@@MEAAXXZ 000000018001bed0 f   WorkThreadNm.obj
 0001:0001b0d0       ?ThreadQuery@CWorkThreadNm@@MEBAHAEAVCNMO@@@Z 000000018001c0d0 f   WorkThreadNm.obj
 0001:0001b550       ?ThreadQuery@CWorkThreadNm@@MEBAHAEAV?$vector@VCNMO@@V?$allocator@VCNMO@@@std@@@std@@@Z 000000018001c550 f   WorkThreadNm.obj
 0001:0001b5a0       ??$?HDU?$char_traits@D@std@@V?$allocator@D@1@@std@@YA?AV?$basic_string@DU?$char_traits@D@std@@V?$allocator@D@2@@0@AEBV10@PEBD@Z 000000018001c5a0 f i WorkThreadNm.obj
 0001:0001b6c0       ??$?HDU?$char_traits@D@std@@V?$allocator@D@1@@std@@YA?AV?$basic_string@DU?$char_traits@D@std@@V?$allocator@D@2@@0@$$QEAV10@AEBV10@@Z 000000018001c6c0 f i WorkThreadNm.obj
 0001:0001b720       ??$ToString@I@strutils@@YA?AV?$basic_string@DU?$char_traits@D@std@@V?$allocator@D@2@@std@@IGGDD@Z 000000018001c720 f i WorkThreadNm.obj
 0001:0001b804       ?EndThread@CThreadInferface@@UEAAXXZ 000000018001c804 f   Utility:Utility.dll
 0001:0001b80a       ?_Lock@?$basic_streambuf@DU?$char_traits@D@std@@@std@@UEAAXXZ 000000018001c80a f   msvcprt:MSVCP140.dll
 0001:0001b810       ?_Unlock@?$basic_streambuf@DU?$char_traits@D@std@@@std@@UEAAXXZ 000000018001c810 f   msvcprt:MSVCP140.dll
 0001:0001b816       ?showmanyc@?$basic_streambuf@DU?$char_traits@D@std@@@std@@MEAA_JXZ 000000018001c816 f   msvcprt:MSVCP140.dll
 0001:0001b81c       ?uflow@?$basic_streambuf@DU?$char_traits@D@std@@@std@@MEAAHXZ 000000018001c81c f   msvcprt:MSVCP140.dll
 0001:0001b822       ?xsgetn@?$basic_streambuf@DU?$char_traits@D@std@@@std@@MEAA_JPEAD_J@Z 000000018001c822 f   msvcprt:MSVCP140.dll
 0001:0001b828       ?xsputn@?$basic_streambuf@DU?$char_traits@D@std@@@std@@MEAA_JPEBD_J@Z 000000018001c828 f   msvcprt:MSVCP140.dll
 0001:0001b82e       ?setbuf@?$basic_streambuf@DU?$char_traits@D@std@@@std@@MEAAPEAV12@PEAD_J@Z 000000018001c82e f   msvcprt:MSVCP140.dll
 0001:0001b834       ?sync@?$basic_streambuf@DU?$char_traits@D@std@@@std@@MEAAHXZ 000000018001c834 f   msvcprt:MSVCP140.dll
 0001:0001b83a       ?imbue@?$basic_streambuf@DU?$char_traits@D@std@@@std@@MEAAXAEBVlocale@2@@Z 000000018001c83a f   msvcprt:MSVCP140.dll
 0001:0001b840       ??_V@YAXPEAX_K@Z           000000018001c840 f   MSVCRT:delete_array_size.obj
 0001:0001b848       ??2@YAPEAX_K@Z             000000018001c848 f   MSVCRT:new_scalar.obj
 0001:0001b884       ??_M@YAXPEAX_K1P6AX0@Z@Z   000000018001c884 f   MSVCRT:ehvecdtr.obj
 0001:0001b8f0       ?__ArrayUnwind@@YAXPEAX_K1P6AX0@Z@Z 000000018001c8f0 f   MSVCRT:ehvecdtr.obj
 0001:0001b954       __scrt_acquire_startup_lock 000000018001c954 f   MSVCRT:utility.obj
 0001:0001b990       __scrt_dllmain_after_initialize_c 000000018001c990 f   MSVCRT:utility.obj
 0001:0001b9c4       __scrt_dllmain_before_initialize_c 000000018001c9c4 f   MSVCRT:utility.obj
 0001:0001b9dc       __scrt_dllmain_crt_thread_attach 000000018001c9dc f   MSVCRT:utility.obj
 0001:0001ba04       __scrt_dllmain_crt_thread_detach 000000018001ca04 f   MSVCRT:utility.obj
 0001:0001ba1c       __scrt_dllmain_exception_filter 000000018001ca1c f   MSVCRT:utility.obj
 0001:0001ba80       __scrt_dllmain_uninitialize_c 000000018001ca80 f   MSVCRT:utility.obj
 0001:0001bab0       __scrt_dllmain_uninitialize_critical 000000018001cab0 f   MSVCRT:utility.obj
 0001:0001bac4       __scrt_initialize_crt      000000018001cac4 f   MSVCRT:utility.obj
 0001:0001bb10       __scrt_initialize_onexit_tables 000000018001cb10 f   MSVCRT:utility.obj
 0001:0001bbdc       __scrt_is_nonwritable_in_current_image 000000018001cbdc f   MSVCRT:utility.obj
 0001:0001bc78       __scrt_release_startup_lock 000000018001cc78 f   MSVCRT:utility.obj
 0001:0001bc9c       __scrt_uninitialize_crt    000000018001cc9c f   MSVCRT:utility.obj
 0001:0001bcc8       _onexit                    000000018001ccc8 f   MSVCRT:utility.obj
 0001:0001bd18       atexit                     000000018001cd18 f   MSVCRT:utility.obj
 0001:0001bd30       ??3@YAXPEAX@Z              000000018001cd30 f   MSVCRT:delete_scalar.obj
 0001:0001bd38       ??3@YAXPEAX_K@Z            000000018001cd38 f   MSVCRT:delete_scalar_size.obj
 0001:0001bd38       ??_V@YAXPEAX@Z             000000018001cd38 f   MSVCRT:delete_array.obj
 0001:0001bd40       ??_Gtype_info@@UEAAPEAXI@Z 000000018001cd40 f i MSVCRT:std_type_info_static.obj
 0001:0001bd40       ??_Etype_info@@UEAAPEAXI@Z 000000018001cd40 f i MSVCRT:std_type_info_static.obj
 0001:0001bd6c       ??_U@YAPEAX_K@Z            000000018001cd6c f   MSVCRT:new_array.obj
 0001:0001c0e4       _DllMainCRTStartup         000000018001d0e4 f   MSVCRT:dll_dllmain.obj
 0001:0001c124       ??0bad_alloc@std@@QEAA@AEBV01@@Z 000000018001d124 f i MSVCRT:throw_bad_alloc.obj
 0001:0001c164       ??0bad_alloc@std@@QEAA@XZ  000000018001d164 f i MSVCRT:throw_bad_alloc.obj
 0001:0001c184       ??0bad_array_new_length@std@@QEAA@AEBV01@@Z 000000018001d184 f i MSVCRT:throw_bad_alloc.obj
 0001:0001c1c4       ??0bad_array_new_length@std@@QEAA@XZ 000000018001d1c4 f i MSVCRT:throw_bad_alloc.obj
 0001:0001c1e4       ??0exception@std@@QEAA@AEBV01@@Z 000000018001d1e4 f i MSVCRT:throw_bad_alloc.obj
 0001:0001c21c       ??1bad_array_new_length@std@@UEAA@XZ 000000018001d21c f i MSVCRT:throw_bad_alloc.obj
 0001:0001c21c       ??1bad_alloc@std@@UEAA@XZ  000000018001d21c f i MSVCRT:throw_bad_alloc.obj
 0001:0001c230       ??_Gbad_array_new_length@std@@UEAAPEAXI@Z 000000018001d230 f i MSVCRT:throw_bad_alloc.obj
 0001:0001c230       ??_Gbad_alloc@std@@UEAAPEAXI@Z 000000018001d230 f i MSVCRT:throw_bad_alloc.obj
 0001:0001c230       ??_Ebad_array_new_length@std@@UEAAPEAXI@Z 000000018001d230 f i MSVCRT:throw_bad_alloc.obj
 0001:0001c230       ??_Ebad_alloc@std@@UEAAPEAXI@Z 000000018001d230 f i MSVCRT:throw_bad_alloc.obj
 0001:0001c274       ?__scrt_throw_std_bad_alloc@@YAXXZ 000000018001d274 f   MSVCRT:throw_bad_alloc.obj
 0001:0001c294       ?__scrt_throw_std_bad_array_new_length@@YAXXZ 000000018001d294 f   MSVCRT:throw_bad_alloc.obj
 0001:0001c2b4       _guard_check_icall         000000018001d2b4 f i MSVCRT:checkcfg.obj
 0001:0001c2bc       __isa_available_init       000000018001d2bc f   MSVCRT:_cpu_disp_.obj
 0001:0001c480       _get_startup_argv_mode     000000018001d480 f   MSVCRT:argv_mode.obj
 0001:0001c488       __scrt_is_ucrt_dll_in_use  000000018001d488 f   MSVCRT:ucrt_detection.obj
 0001:0001c494       __scrt_fastfail            000000018001d494 f   MSVCRT:utility_desktop.obj
 0001:0001c5dc       __security_init_cookie     000000018001d5dc f   MSVCRT:gs_support.obj
 0001:0001c688       DllMain                    000000018001d688 f   MSVCRT:dll_dllmain_stub.obj
 0001:0001c6ac       ?__scrt_initialize_type_info@@YAXXZ 000000018001d6ac f   MSVCRT:tncleanup.obj
 0001:0001c6bc       ?__scrt_uninitialize_type_info@@YAXXZ 000000018001d6bc f   MSVCRT:tncleanup.obj
 0001:0001c6c8       __local_stdio_scanf_options 000000018001d6c8 f i MSVCRT:default_local_stdio_options.obj
 0001:0001c6d0       __scrt_initialize_default_local_stdio_options 000000018001d6d0 f   MSVCRT:default_local_stdio_options.obj
 0001:0001c6ec       __scrt_get_dyn_tls_init_callback 000000018001d6ec f   MSVCRT:dyn_tls_init.obj
 0001:0001c6f4       _RTC_Initialize            000000018001d6f4 f   MSVCRT:_initsect_.obj
 0001:0001c740       _RTC_Terminate             000000018001d740 f   MSVCRT:_initsect_.obj
 0001:0001c790       __std_exception_destroy    000000018001d790 f   vcruntime:VCRUNTIME140.dll
 0001:0001c796       _purecall                  000000018001d796 f   vcruntime:VCRUNTIME140.dll
 0001:0001c79c       __C_specific_handler       000000018001d79c f   vcruntime:VCRUNTIME140.dll
 0001:0001c7a2       __telemetry_main_invoke_trigger 000000018001d7a2 f   vcruntime:VCRUNTIME140.dll
 0001:0001c7a8       __telemetry_main_return_trigger 000000018001d7a8 f   vcruntime:VCRUNTIME140.dll
 0001:0001c7ae       __std_exception_copy       000000018001d7ae f   vcruntime:VCRUNTIME140.dll
 0001:0001c7b4       _CxxThrowException         000000018001d7b4 f   vcruntime:VCRUNTIME140.dll
 0001:0001c7ba       memset                     000000018001d7ba f   vcruntime:VCRUNTIME140.dll
 0001:0001c7c0       __std_type_info_destroy_list 000000018001d7c0 f   vcruntime:VCRUNTIME140.dll
 0001:0001c7c6       _callnewh                  000000018001d7c6 f   ucrt:api-ms-win-crt-heap-l1-1-0.dll
 0001:0001c7cc       malloc                     000000018001d7cc f   ucrt:api-ms-win-crt-heap-l1-1-0.dll
 0001:0001c7d2       terminate                  000000018001d7d2 f   ucrt:api-ms-win-crt-runtime-l1-1-0.dll
 0001:0001c7d8       _seh_filter_dll            000000018001d7d8 f   ucrt:api-ms-win-crt-runtime-l1-1-0.dll
 0001:0001c7de       _configure_narrow_argv     000000018001d7de f   ucrt:api-ms-win-crt-runtime-l1-1-0.dll
 0001:0001c7e4       _initialize_narrow_environment 000000018001d7e4 f   ucrt:api-ms-win-crt-runtime-l1-1-0.dll
 0001:0001c7ea       _initialize_onexit_table   000000018001d7ea f   ucrt:api-ms-win-crt-runtime-l1-1-0.dll
 0001:0001c7f0       _register_onexit_function  000000018001d7f0 f   ucrt:api-ms-win-crt-runtime-l1-1-0.dll
 0001:0001c7f6       _execute_onexit_table      000000018001d7f6 f   ucrt:api-ms-win-crt-runtime-l1-1-0.dll
 0001:0001c7fc       _crt_atexit                000000018001d7fc f   ucrt:api-ms-win-crt-runtime-l1-1-0.dll
 0001:0001c802       _cexit                     000000018001d802 f   ucrt:api-ms-win-crt-runtime-l1-1-0.dll
 0001:0001c808       free                       000000018001d808 f   ucrt:api-ms-win-crt-heap-l1-1-0.dll
 0001:0001c80e       _initterm                  000000018001d80e f   ucrt:api-ms-win-crt-runtime-l1-1-0.dll
 0001:0001c814       _initterm_e                000000018001d814 f   ucrt:api-ms-win-crt-runtime-l1-1-0.dll
 0001:0001c81a       IsProcessorFeaturePresent  000000018001d81a f   kernel32:KERNEL32.dll
 0001:0001c820       __scrt_stub_for_acrt_initialize 000000018001d820 f   MSVCRT:ucrt_stubs.obj
 0001:0001c820       __scrt_stub_for_acrt_uninitialize 000000018001d820 f   MSVCRT:ucrt_stubs.obj
 0001:0001c820       __acrt_uninitialize_critical 000000018001d820 f   MSVCRT:ucrt_stubs.obj
 0001:0001c820       __acrt_thread_attach       000000018001d820 f   MSVCRT:ucrt_stubs.obj
 0001:0001c820       __acrt_initialize          000000018001d820 f   MSVCRT:ucrt_stubs.obj
 0001:0001c820       __acrt_uninitialize        000000018001d820 f   MSVCRT:ucrt_stubs.obj
 0001:0001c820       __acrt_thread_detach       000000018001d820 f   MSVCRT:ucrt_stubs.obj
 0001:0001c820       __vcrt_uninitialize_critical 000000018001d820 f   MSVCRT:ucrt_stubs.obj
 0001:0001c820       __scrt_stub_for_acrt_thread_detach 000000018001d820 f   MSVCRT:ucrt_stubs.obj
 0001:0001c820       __scrt_stub_for_acrt_thread_attach 000000018001d820 f   MSVCRT:ucrt_stubs.obj
 0001:0001c820       __scrt_stub_for_acrt_uninitialize_critical 000000018001d820 f   MSVCRT:ucrt_stubs.obj
 0001:0001c820       __vcrt_uninitialize        000000018001d820 f   MSVCRT:ucrt_stubs.obj
 0001:0001c820       __vcrt_thread_attach       000000018001d820 f   MSVCRT:ucrt_stubs.obj
 0001:0001c820       __vcrt_thread_detach       000000018001d820 f   MSVCRT:ucrt_stubs.obj
 0001:0001c820       __vcrt_initialize          000000018001d820 f   MSVCRT:ucrt_stubs.obj
 0001:0001c824       __CxxFrameHandler3         000000018001d824 f   vcruntime:VCRUNTIME140.dll
 0001:0001c82a       __RTDynamicCast            000000018001d82a f   vcruntime:VCRUNTIME140.dll
 0001:0001c830       memcmp                     000000018001d830 f   vcruntime:VCRUNTIME140.dll
 0001:0001c836       memcpy                     000000018001d836 f   vcruntime:VCRUNTIME140.dll
 0001:0001c850       _guard_dispatch_icall_nop  000000018001d850 f   MSVCRT:_guard_dispatch_.obj
 0002:00000000       __imp_Sleep                0000000180028000     kernel32:KERNEL32.dll
 0002:00000008       __imp_RtlCaptureContext    0000000180028008     kernel32:KERNEL32.dll
 0002:00000010       __imp_RtlLookupFunctionEntry 0000000180028010     kernel32:KERNEL32.dll
 0002:00000018       __imp_InitializeSListHead  0000000180028018     kernel32:KERNEL32.dll
 0002:00000020       __imp_DisableThreadLibraryCalls 0000000180028020     kernel32:KERNEL32.dll
 0002:00000028       __imp_GetSystemTimeAsFileTime 0000000180028028     kernel32:KERNEL32.dll
 0002:00000030       __imp_GetCurrentThreadId   0000000180028030     kernel32:KERNEL32.dll
 0002:00000038       __imp_GetCurrentProcessId  0000000180028038     kernel32:KERNEL32.dll
 0002:00000040       __imp_QueryPerformanceCounter 0000000180028040     kernel32:KERNEL32.dll
 0002:00000048       __imp_IsProcessorFeaturePresent 0000000180028048     kernel32:KERNEL32.dll
 0002:00000050       __imp_SetUnhandledExceptionFilter 0000000180028050     kernel32:KERNEL32.dll
 0002:00000058       __imp_UnhandledExceptionFilter 0000000180028058     kernel32:KERNEL32.dll
 0002:00000060       __imp_IsDebuggerPresent    0000000180028060     kernel32:KERNEL32.dll
 0002:00000068       __imp_RtlVirtualUnwind     0000000180028068     kernel32:KERNEL32.dll
 0002:00000070       \177KERNEL32_NULL_THUNK_DATA 0000000180028070     kernel32:KERNEL32.dll
 0002:00000078       __imp_?setstate@?$basic_ios@DU?$char_traits@D@std@@@std@@QEAAXH_N@Z 0000000180028078     msvcprt:MSVCP140.dll
 0002:00000080       __imp_?flush@?$basic_ostream@DU?$char_traits@D@std@@@std@@QEAAAEAV12@XZ 0000000180028080     msvcprt:MSVCP140.dll
 0002:00000088       __imp_?_Osfx@?$basic_ostream@DU?$char_traits@D@std@@@std@@QEAAXXZ 0000000180028088     msvcprt:MSVCP140.dll
 0002:00000090       __imp_?sputc@?$basic_streambuf@DU?$char_traits@D@std@@@std@@QEAAHD@Z 0000000180028090     msvcprt:MSVCP140.dll
 0002:00000098       __imp_?sputn@?$basic_streambuf@DU?$char_traits@D@std@@@std@@QEAA_JPEBD_J@Z 0000000180028098     msvcprt:MSVCP140.dll
 0002:000000a0       __imp_?uncaught_exception@std@@YA_NXZ 00000001800280a0     msvcprt:MSVCP140.dll
 0002:000000a8       __imp_??1?$basic_iostream@DU?$char_traits@D@std@@@std@@UEAA@XZ 00000001800280a8     msvcprt:MSVCP140.dll
 0002:000000b0       __imp_??6?$basic_ostream@DU?$char_traits@D@std@@@std@@QEAAAEAV01@H@Z 00000001800280b0     msvcprt:MSVCP140.dll
 0002:000000b8       __imp_??6?$basic_ostream@DU?$char_traits@D@std@@@std@@QEAAAEAV01@I@Z 00000001800280b8     msvcprt:MSVCP140.dll
 0002:000000c0       __imp_?imbue@?$basic_streambuf@DU?$char_traits@D@std@@@std@@MEAAXAEBVlocale@2@@Z 00000001800280c0     msvcprt:MSVCP140.dll
 0002:000000c8       __imp_?sync@?$basic_streambuf@DU?$char_traits@D@std@@@std@@MEAAHXZ 00000001800280c8     msvcprt:MSVCP140.dll
 0002:000000d0       __imp_?setbuf@?$basic_streambuf@DU?$char_traits@D@std@@@std@@MEAAPEAV12@PEAD_J@Z 00000001800280d0     msvcprt:MSVCP140.dll
 0002:000000d8       __imp_?xsputn@?$basic_streambuf@DU?$char_traits@D@std@@@std@@MEAA_JPEBD_J@Z 00000001800280d8     msvcprt:MSVCP140.dll
 0002:000000e0       __imp_?xsgetn@?$basic_streambuf@DU?$char_traits@D@std@@@std@@MEAA_JPEAD_J@Z 00000001800280e0     msvcprt:MSVCP140.dll
 0002:000000e8       __imp_?uflow@?$basic_streambuf@DU?$char_traits@D@std@@@std@@MEAAHXZ 00000001800280e8     msvcprt:MSVCP140.dll
 0002:000000f0       __imp_?showmanyc@?$basic_streambuf@DU?$char_traits@D@std@@@std@@MEAA_JXZ 00000001800280f0     msvcprt:MSVCP140.dll
 0002:000000f8       __imp_?_Unlock@?$basic_streambuf@DU?$char_traits@D@std@@@std@@UEAAXXZ 00000001800280f8     msvcprt:MSVCP140.dll
 0002:00000100       __imp_?_Lock@?$basic_streambuf@DU?$char_traits@D@std@@@std@@UEAAXXZ 0000000180028100     msvcprt:MSVCP140.dll
 0002:00000108       __imp_??1?$basic_streambuf@DU?$char_traits@D@std@@@std@@UEAA@XZ 0000000180028108     msvcprt:MSVCP140.dll
 0002:00000110       __imp_??1?$basic_ios@DU?$char_traits@D@std@@@std@@UEAA@XZ 0000000180028110     msvcprt:MSVCP140.dll
 0002:00000118       __imp_??0?$basic_iostream@DU?$char_traits@D@std@@@std@@QEAA@PEAV?$basic_streambuf@DU?$char_traits@D@std@@@1@@Z 0000000180028118     msvcprt:MSVCP140.dll
 0002:00000120       __imp_?_Pninc@?$basic_streambuf@DU?$char_traits@D@std@@@std@@IEAAPEADXZ 0000000180028120     msvcprt:MSVCP140.dll
 0002:00000128       __imp_??0?$basic_ios@DU?$char_traits@D@std@@@std@@IEAA@XZ 0000000180028128     msvcprt:MSVCP140.dll
 0002:00000130       __imp_??0?$basic_streambuf@DU?$char_traits@D@std@@@std@@IEAA@XZ 0000000180028130     msvcprt:MSVCP140.dll
 0002:00000138       __imp_??6?$basic_ostream@DU?$char_traits@D@std@@@std@@QEAAAEAV01@P6AAEAVios_base@1@AEAV21@@Z@Z 0000000180028138     msvcprt:MSVCP140.dll
 0002:00000140       __imp_??5?$basic_istream@DU?$char_traits@D@std@@@std@@QEAAAEAV01@AEAH@Z 0000000180028140     msvcprt:MSVCP140.dll
 0002:00000148       __imp_?_Xbad_alloc@std@@YAXXZ 0000000180028148     msvcprt:MSVCP140.dll
 0002:00000150       __imp_?_Xout_of_range@std@@YAXPEBD@Z 0000000180028150     msvcprt:MSVCP140.dll
 0002:00000158       __imp_?_BADOFF@std@@3_JB   0000000180028158     msvcprt:MSVCP140.dll
 0002:00000160       __imp_?_Xlength_error@std@@YAXPEBD@Z 0000000180028160     msvcprt:MSVCP140.dll
 0002:00000168       __imp_?setprecision@std@@YA?AU?$_Smanip@_J@1@_J@Z 0000000180028168     msvcprt:MSVCP140.dll
 0002:00000170       \177MSVCP140_NULL_THUNK_DATA 0000000180028170     msvcprt:MSVCP140.dll
 0002:00000178       __imp_??0CNMO@@QEAA@XZ     0000000180028178     NetMgr:NetMgr.dll
 0002:00000180       __imp_?Instance@?$CSingleton@VCNetMgr@@@@SAPEAVCNetMgr@@XZ 0000000180028180     NetMgr:NetMgr.dll
 0002:00000188       __imp_??1CNMO@@QEAA@XZ     0000000180028188     NetMgr:NetMgr.dll
 0002:00000190       \177NetMgr_NULL_THUNK_DATA 0000000180028190     NetMgr:NetMgr.dll
 0002:00000198       __imp_?NowToString@CGessDate@@SA?AV?$basic_string@DU?$char_traits@D@std@@V?$allocator@D@2@@std@@AEBV23@@Z 0000000180028198     Utility:Utility.dll
 0002:000001a0       __imp_?NowToString@CGessTime@@SA?AV?$basic_string@DU?$char_traits@D@std@@V?$allocator@D@2@@std@@AEBV23@@Z 00000001800281a0     Utility:Utility.dll
 0002:000001a8       __imp_??0CThreadInferface@@QEAA@XZ 00000001800281a8     Utility:Utility.dll
 0002:000001b0       __imp_?BeginThread@CThreadInferface@@UEAAHXZ 00000001800281b0     Utility:Utility.dll
 0002:000001b8       __imp_?IntervalToNow@CGessTime@@QEAAHXZ 00000001800281b8     Utility:Utility.dll
 0002:000001c0       __imp_?ToNow@CGessTime@@QEAAXXZ 00000001800281c0     Utility:Utility.dll
 0002:000001c8       __imp_?trim@strutils@@YA?AV?$basic_string@DU?$char_traits@D@std@@V?$allocator@D@2@@std@@AEBV23@@Z 00000001800281c8     Utility:Utility.dll
 0002:000001d0       __imp_?Instance@?$CSingleton@VCGessTimerMgrImp@@@@SAPEAVCGessTimerMgrImp@@XZ 00000001800281d0     Utility:Utility.dll
 0002:000001d8       __imp_??0CGessTime@@QEAA@AEBV0@@Z 00000001800281d8     Utility:Utility.dll
 0002:000001e0       __imp_??0CGessTime@@QEAA@XZ 00000001800281e0     Utility:Utility.dll
 0002:000001e8       __imp_??0CGessMutex@@QEAA@XZ 00000001800281e8     Utility:Utility.dll
 0002:000001f0       __imp_??1CGessMutex@@QEAA@XZ 00000001800281f0     Utility:Utility.dll
 0002:000001f8       __imp_?Unlock@CGessMutex@@QEAAXXZ 00000001800281f8     Utility:Utility.dll
 0002:00000200       __imp_??0CCondMutex@@QEAA@XZ 0000000180028200     Utility:Utility.dll
 0002:00000208       __imp_??1CCondMutex@@QEAA@XZ 0000000180028208     Utility:Utility.dll
 0002:00000210       __imp_?Lock@CCondMutex@@QEAAXXZ 0000000180028210     Utility:Utility.dll
 0002:00000218       __imp_?Unlock@CCondMutex@@QEAAXXZ 0000000180028218     Utility:Utility.dll
 0002:00000220       __imp_?Wait@CCondMutex@@QEAAXXZ 0000000180028220     Utility:Utility.dll
 0002:00000228       __imp_?Signal@CCondMutex@@QEAAXXZ 0000000180028228     Utility:Utility.dll
 0002:00000230       __imp_??0CGessSem@@QEAA@XZ 0000000180028230     Utility:Utility.dll
 0002:00000238       __imp_??1CGessSem@@QEAA@XZ 0000000180028238     Utility:Utility.dll
 0002:00000240       __imp_?V@CGessSem@@QEAAHXZ 0000000180028240     Utility:Utility.dll
 0002:00000248       __imp_?P@CGessSem@@QEAAHXZ 0000000180028248     Utility:Utility.dll
 0002:00000250       __imp_?Instance@?$CSingleton@VCLogger@@@@SAPEAVCLogger@@XZ 0000000180028250     Utility:Utility.dll
 0002:00000258       __imp_??_7CThreadInferface@@6B@ 0000000180028258     Utility:Utility.dll
 0002:00000260       __imp_?Log@CLogger@@QEAAHPEBDJW4GESS_LOG_LEVEL@@H0ZZ 0000000180028260     Utility:Utility.dll
 0002:00000268       __imp_??1CThreadInferface@@UEAA@XZ 0000000180028268     Utility:Utility.dll
 0002:00000270       __imp_?EndThread@CThreadInferface@@UEAAXXZ 0000000180028270     Utility:Utility.dll
 0002:00000278       __imp_?Wait@CThreadInferface@@IEAAXXZ 0000000180028278     Utility:Utility.dll
 0002:00000280       __imp_?explodeQuoted@strutils@@YA?AV?$vector@V?$basic_string@DU?$char_traits@D@std@@V?$allocator@D@2@@std@@V?$allocator@V?$basic_string@DU?$char_traits@D@std@@V?$allocator@D@2@@std@@@2@@std@@AEBV?$basic_string@DU?$char_traits@D@std@@V?$allocator@D@2@@3@0@Z 0000000180028280     Utility:Utility.dll
 0002:00000288       __imp_?Lock@CGessMutex@@QEAAXXZ 0000000180028288     Utility:Utility.dll
 0002:00000290       \177Utility_NULL_THUNK_DATA 0000000180028290     Utility:Utility.dll
 0002:00000298       __imp___RTDynamicCast      0000000180028298     vcruntime:VCRUNTIME140.dll
 0002:000002a0       __imp_memcmp               00000001800282a0     vcruntime:VCRUNTIME140.dll
 0002:000002a8       __imp___CxxFrameHandler3   00000001800282a8     vcruntime:VCRUNTIME140.dll
 0002:000002b0       __imp_memcpy               00000001800282b0     vcruntime:VCRUNTIME140.dll
 0002:000002b8       __imp___std_exception_destroy 00000001800282b8     vcruntime:VCRUNTIME140.dll
 0002:000002c0       __imp_memmove              00000001800282c0     vcruntime:VCRUNTIME140.dll
 0002:000002c8       __imp__purecall            00000001800282c8     vcruntime:VCRUNTIME140.dll
 0002:000002d0       __imp_memchr               00000001800282d0     vcruntime:VCRUNTIME140.dll
 0002:000002d8       __imp___C_specific_handler 00000001800282d8     vcruntime:VCRUNTIME140.dll
 0002:000002e0       __imp___telemetry_main_invoke_trigger 00000001800282e0     vcruntime:VCRUNTIME140.dll
 0002:000002e8       __imp___telemetry_main_return_trigger 00000001800282e8     vcruntime:VCRUNTIME140.dll
 0002:000002f0       __imp___std_exception_copy 00000001800282f0     vcruntime:VCRUNTIME140.dll
 0002:000002f8       __imp__CxxThrowException   00000001800282f8     vcruntime:VCRUNTIME140.dll
 0002:00000300       __imp_memset               0000000180028300     vcruntime:VCRUNTIME140.dll
 0002:00000308       __imp___std_type_info_destroy_list 0000000180028308     vcruntime:VCRUNTIME140.dll
 0002:00000310       \177VCRUNTIME140_NULL_THUNK_DATA 0000000180028310     vcruntime:VCRUNTIME140.dll
 0002:00000318       __imp_htons                0000000180028318     Ws2_32:WS2_32.dll
 0002:00000320       __imp_inet_ntoa            0000000180028320     Ws2_32:WS2_32.dll
 0002:00000328       __imp_listen               0000000180028328     Ws2_32:WS2_32.dll
 0002:00000330       __imp_connect              0000000180028330     Ws2_32:WS2_32.dll
 0002:00000338       __imp_bind                 0000000180028338     Ws2_32:WS2_32.dll
 0002:00000340       __imp_ntohs                0000000180028340     Ws2_32:WS2_32.dll
 0002:00000348       __imp_socket               0000000180028348     Ws2_32:WS2_32.dll
 0002:00000350       __imp_accept               0000000180028350     Ws2_32:WS2_32.dll
 0002:00000358       __imp_recv                 0000000180028358     Ws2_32:WS2_32.dll
 0002:00000360       __imp_send                 0000000180028360     Ws2_32:WS2_32.dll
 0002:00000368       __imp_select               0000000180028368     Ws2_32:WS2_32.dll
 0002:00000370       __imp_ntohl                0000000180028370     Ws2_32:WS2_32.dll
 0002:00000378       __imp_sendto               0000000180028378     Ws2_32:WS2_32.dll
 0002:00000380       __imp___WSAFDIsSet         0000000180028380     Ws2_32:WS2_32.dll
 0002:00000388       __imp_closesocket          0000000180028388     Ws2_32:WS2_32.dll
 0002:00000390       __imp_inet_addr            0000000180028390     Ws2_32:WS2_32.dll
 0002:00000398       __imp_getsockname          0000000180028398     Ws2_32:WS2_32.dll
 0002:000003a0       __imp_setsockopt           00000001800283a0     Ws2_32:WS2_32.dll
 0002:000003a8       \177WS2_32_NULL_THUNK_DATA 00000001800283a8     Ws2_32:WS2_32.dll
 0002:000003b0       __imp_strtoul              00000001800283b0     ucrt:api-ms-win-crt-convert-l1-1-0.dll
 0002:000003b8       \177api-ms-win-crt-convert-l1-1-0_NULL_THUNK_DATA 00000001800283b8     ucrt:api-ms-win-crt-convert-l1-1-0.dll
 0002:000003c0       __imp_free                 00000001800283c0     ucrt:api-ms-win-crt-heap-l1-1-0.dll
 0002:000003c8       __imp_malloc               00000001800283c8     ucrt:api-ms-win-crt-heap-l1-1-0.dll
 0002:000003d0       __imp__callnewh            00000001800283d0     ucrt:api-ms-win-crt-heap-l1-1-0.dll
 0002:000003d8       \177api-ms-win-crt-heap-l1-1-0_NULL_THUNK_DATA 00000001800283d8     ucrt:api-ms-win-crt-heap-l1-1-0.dll
 0002:000003e0       __imp__crt_atexit          00000001800283e0     ucrt:api-ms-win-crt-runtime-l1-1-0.dll
 0002:000003e8       __imp__execute_onexit_table 00000001800283e8     ucrt:api-ms-win-crt-runtime-l1-1-0.dll
 0002:000003f0       __imp__initialize_onexit_table 00000001800283f0     ucrt:api-ms-win-crt-runtime-l1-1-0.dll
 0002:000003f8       __imp__initialize_narrow_environment 00000001800283f8     ucrt:api-ms-win-crt-runtime-l1-1-0.dll
 0002:00000400       __imp__configure_narrow_argv 0000000180028400     ucrt:api-ms-win-crt-runtime-l1-1-0.dll
 0002:00000408       __imp__seh_filter_dll      0000000180028408     ucrt:api-ms-win-crt-runtime-l1-1-0.dll
 0002:00000410       __imp_terminate            0000000180028410     ucrt:api-ms-win-crt-runtime-l1-1-0.dll
 0002:00000418       __imp__initterm_e          0000000180028418     ucrt:api-ms-win-crt-runtime-l1-1-0.dll
 0002:00000420       __imp__initterm            0000000180028420     ucrt:api-ms-win-crt-runtime-l1-1-0.dll
 0002:00000428       __imp__register_onexit_function 0000000180028428     ucrt:api-ms-win-crt-runtime-l1-1-0.dll
 0002:00000430       __imp__invalid_parameter_noinfo_noreturn 0000000180028430     ucrt:api-ms-win-crt-runtime-l1-1-0.dll
 0002:00000438       __imp__cexit               0000000180028438     ucrt:api-ms-win-crt-runtime-l1-1-0.dll
 0002:00000440       \177api-ms-win-crt-runtime-l1-1-0_NULL_THUNK_DATA 0000000180028440     ucrt:api-ms-win-crt-runtime-l1-1-0.dll
 0002:00000448       __imp___stdio_common_vsprintf 0000000180028448     ucrt:api-ms-win-crt-stdio-l1-1-0.dll
 0002:00000450       \177api-ms-win-crt-stdio-l1-1-0_NULL_THUNK_DATA 0000000180028450     ucrt:api-ms-win-crt-stdio-l1-1-0.dll
 0002:00000458       __imp__time64              0000000180028458     ucrt:api-ms-win-crt-time-l1-1-0.dll
 0002:00000460       __imp__difftime64          0000000180028460     ucrt:api-ms-win-crt-time-l1-1-0.dll
 0002:00000468       \177api-ms-win-crt-time-l1-1-0_NULL_THUNK_DATA 0000000180028468     ucrt:api-ms-win-crt-time-l1-1-0.dll
 0002:00000470       __imp_srand                0000000180028470     ucrt:api-ms-win-crt-utility-l1-1-0.dll
 0002:00000478       __imp_rand                 0000000180028478     ucrt:api-ms-win-crt-utility-l1-1-0.dll
 0002:00000480       \177api-ms-win-crt-utility-l1-1-0_NULL_THUNK_DATA 0000000180028480     ucrt:api-ms-win-crt-utility-l1-1-0.dll
 0002:00000488       __guard_check_icall_fptr   0000000180028488     MSVCRT:guard_support.obj
 0002:00000490       __guard_dispatch_icall_fptr 0000000180028490     MSVCRT:guard_support.obj
 0002:00000498       __xc_a                     0000000180028498     MSVCRT:initializers.obj
 0002:00000a90       __xc_z                     0000000180028a90     MSVCRT:initializers.obj
 0002:00000a98       __xi_a                     0000000180028a98     MSVCRT:initializers.obj
 0002:00000aa0       __xi_z                     0000000180028aa0     MSVCRT:initializers.obj
 0002:00000aa8       __xp_a                     0000000180028aa8     MSVCRT:initializers.obj
 0002:00000ab0       __xp_z                     0000000180028ab0     MSVCRT:initializers.obj
 0002:00000ab8       __xt_a                     0000000180028ab8     MSVCRT:initializers.obj
 0002:00000ac0       __xt_z                     0000000180028ac0     MSVCRT:initializers.obj
 0002:00000ad8       ??_7type_info@@6B@         0000000180028ad8     MSVCRT:std_type_info_static.obj
 0002:00000ae0       _pDefaultRawDllMain        0000000180028ae0     MSVCRT:dll_dllmain.obj
 0002:00000ae0       _pRawDllMain               0000000180028ae0     MSVCRT:dll_dllmain.obj
 0002:00000af0       ??_7exception@std@@6B@     0000000180028af0     MSVCRT:throw_bad_alloc.obj
 0002:00000b08       ??_7bad_alloc@std@@6B@     0000000180028b08     MSVCRT:throw_bad_alloc.obj
 0002:00000b18       ??_C@_0P@GHFPNOJB@bad?5allocation?$AA@ 0000000180028b18     MSVCRT:throw_bad_alloc.obj
 0002:00000b30       ??_7bad_array_new_length@std@@6B@ 0000000180028b30     MSVCRT:throw_bad_alloc.obj
 0002:00000b40       ??_C@_0BF@KINCDENJ@bad?5array?5new?5length?$AA@ 0000000180028b40     MSVCRT:throw_bad_alloc.obj
 0002:00000b58       ??_C@_0BC@EOODALEL@Unknown?5exception?$AA@ 0000000180028b58     Connector.obj
 0002:00000b6c       ??_C@_05LAPONLG@false?$AA@ 0000000180028b6c     Connector.obj
 0002:00000b74       ??_C@_04LOAJBDKD@true?$AA@ 0000000180028b74     Connector.obj
 0002:00000b79       ??_C@_00CNPNBAHC@?$AA@     0000000180028b79     Connector.obj
 0002:00000b7c       ??_C@_01GBGANLPD@0?$AA@    0000000180028b7c     Connector.obj
 0002:00000b80       ??_C@_01HIHLOKLC@1?$AA@    0000000180028b80     Connector.obj
 0002:00000b84       ??_C@_01FDFGLJHB@2?$AA@    0000000180028b84     Connector.obj
 0002:00000b88       ??_C@_01EKENIIDA@3?$AA@    0000000180028b88     Connector.obj
 0002:00000b8c       ??_C@_01FAMBOPH@4?$AA@     0000000180028b8c     Connector.obj
 0002:00000b90       ??_C@_09KFMIAGN@1?41?41?41?41?$AA@ 0000000180028b90     Connector.obj
 0002:00000ba0       ??_C@_0M@EPPBICGA@1?41?41?42?41?41?$AA@ 0000000180028ba0     Connector.obj
 0002:00000bb0       ??_C@_0M@GENMNBKD@1?41?41?42?41?42?$AA@ 0000000180028bb0     Connector.obj
 0002:00000bc0       ??_C@_0M@HNMHOAOC@1?41?41?42?41?43?$AA@ 0000000180028bc0     Connector.obj
 0002:00000bd0       ??_C@_09KAFFEIOG@1?41?41?43?41?$AA@ 0000000180028bd0     Connector.obj
 0002:00000be0       ??_C@_0O@NIPLNIDC@1?41?41?43?42?41?41?$AA@ 0000000180028be0     Connector.obj
 0002:00000bf0       ??_C@_0O@PDNGILPB@1?41?41?43?42?41?42?$AA@ 0000000180028bf0     Connector.obj
 0002:00000c00       ??_C@_0O@OKMNLKLA@1?41?41?43?42?41?43?$AA@ 0000000180028c00     Connector.obj
 0002:00000c10       ??_C@_0O@KFIMCMHH@1?41?41?43?42?41?44?$AA@ 0000000180028c10     Connector.obj
 0002:00000c20       ??_C@_07FDEDCIKL@1?41?42?41?$AA@ 0000000180028c20     Connector.obj
 0002:00000c28       ??_C@_0M@MBHOIFID@1?41?42?42?41?41?$AA@ 0000000180028c28     Connector.obj
 0002:00000c38       ??_C@_0M@OKFDNGEA@1?41?42?42?41?42?$AA@ 0000000180028c38     Connector.obj
 0002:00000c48       ??_C@_0M@CGPJNGNO@1?41?43?42?41?42?$AA@ 0000000180028c48     Connector.obj
 0002:00000c58       ??_C@_0M@DPOCOHJP@1?41?43?42?41?43?$AA@ 0000000180028c58     Connector.obj
 0002:00000c68       ??_C@_0M@HAKDHBFI@1?41?43?42?41?44?$AA@ 0000000180028c68     Connector.obj
 0002:00000c78       ??_C@_0M@GJLIEABJ@1?41?43?42?41?45?$AA@ 0000000180028c78     Connector.obj
 0002:00000c88       ??_C@_0M@ECJFBDNK@1?41?43?42?41?46?$AA@ 0000000180028c88     Connector.obj
 0002:00000c98       ??_C@_0M@FLIOCCJL@1?41?43?42?41?47?$AA@ 0000000180028c98     Connector.obj
 0002:00000ca8       ??_C@_0M@NMBGDOFE@1?41?43?42?41?48?$AA@ 0000000180028ca8     Connector.obj
 0002:00000cb8       ??_C@_0M@CIJHECNE@1?42?46?41?41?41?$AA@ 0000000180028cb8     Connector.obj
 0002:00000cc8       ??_C@_0M@DLKBBBH@1?42?46?41?41?42?$AA@ 0000000180028cc8     Connector.obj
 0002:00000cd8       ??_C@_0M@BKKBCAFG@1?42?46?41?41?43?$AA@ 0000000180028cd8     Connector.obj
 0002:00000ce8       ??_C@_0M@KKKIKNGJ@1?41?44?41?41?42?$AA@ 0000000180028ce8     Connector.obj
 0002:00000cf8       ??_C@_0BD@GNNPGOPA@Unknown?5exception?$CB?$AA@ 0000000180028cf8     Connector.obj
 0002:00000d0c       ??_C@_02DKCKIIND@?$CFs?$AA@ 0000000180028d0c     Connector.obj
 0002:00000d10       ??_C@_0DD@IHKFGNNB@CProtocolCommImp?3?3CProtocolCommW@ 0000000180028d10     Connector.obj
 0002:00000d48       ??_C@_0BF@FFGKPLJJ@ProtocolThread?5exit?$CB?$AA@ 0000000180028d48     Connector.obj
 0002:00000d60       ??_C@_0O@MFHFIOCB@exception?3?$CFs?$CB?$AA@ 0000000180028d60     Connector.obj
 0002:00000d70       ??_C@_0P@BBDDCKNO@?M?$KI?Q?$LG?$LJ?$NM?$MA?m?F?w?O?$NP?$LD?L?$AA@ 0000000180028d70     Connector.obj
 0002:00000d80       ??_C@_02GIIHKPLE@ip?$AA@   0000000180028d80     Connector.obj
 0002:00000d84       ??_C@_01IHBHIGKO@?0?$AA@   0000000180028d84     Connector.obj
 0002:00000d88       ??_C@_04LPGMAPLE@port?$AA@ 0000000180028d88     Connector.obj
 0002:00000d90       ??_C@_0O@MCODKIBD@NotifyConnect?$AA@ 0000000180028d90     Connector.obj
 0002:00000da0       ??_C@_0BK@KMOHMBGK@CConnector?3?3NotifyConnect?$AA@ 0000000180028da0     Connector.obj
 0002:00000dc0       ??_C@_0BD@HKHIDEFL@?E?d?V?C?$LE?m?N?s?0?O?$NP?$LD?L?M?K?$LD?v?$CB?$AA@ 0000000180028dc0     Connector.obj
 0002:00000dd8       ??_C@_0BI@DNBLBLGM@CConnector?3?3ThreadEntry?$AA@ 0000000180028dd8     Connector.obj
 0002:00000df0       ??_C@_0BL@IAAHBNFE@Error?5at?5Connect?5socket?$CI?$CJ?6?$AA@ 0000000180028df0     Connector.obj
 0002:00000e10       ??_C@_0O@BNJLLCM@?A?$KM?$FL?$CFs?3?$CFd?$FN?J?$KH?$LA?$NM?$AA@ 0000000180028e10     Connector.obj
 0002:00000e20       ??_C@_09PFCHIMEP@127?40?40?41?$AA@ 0000000180028e20     Connector.obj
 0002:00000e30       ??_C@_0BI@IMNJILHN@Unknown?5exception?$CB?$CFs?3?$CFd?$AA@ 0000000180028e30     Connector.obj
 0002:00000e48       ??_C@_0BE@MHKDMILP@?S?k?$FL?$CFs?3?$CFd?$FN?$LF?D?A?$KM?$LN?S?$LD?I?$LJ?$KG?$AA@ 0000000180028e48     Connector.obj
 0002:00000e60       ??_C@_0BO@OCLGIPNB@Connector?$FL?$CFs?3?$CFd?$FN?5Thread?5exit?$CB?$AA@ 0000000180028e60     Connector.obj
 0002:00000e80       ??_C@_0CE@LGHOEFHG@exception?3?$CFs?$CB?5m_bEndThread?$DN?$CFs?0?$CFs@ 0000000180028e80     Connector.obj
 0002:00000ea8       ??_C@_0CJ@EPLEPPKN@Unknown?5exception?$CB?5m_bEndThread?$DN@ 0000000180028ea8     Connector.obj
 0002:00000ed8       ??_C@_0BN@BCGBHNOL@Signal?5Connector?$FL?$CFs?3?$CFd?$FN?5end?$CB?$AA@ 0000000180028ed8     Connector.obj
 0002:00000ef8       ??_C@_0BA@EFAJLFCO@CConnector?3?3End?$AA@ 0000000180028ef8     Connector.obj
 0002:00000f08       ??_C@_0BL@OPPOLIIE@Wait?5Connector?$FL?$CFs?3?$CFd?$FN?5end?$CB?$AA@ 0000000180028f08     Connector.obj
 0002:00000f24       ??_C@_01PKGAHCOL@?$CJ?$AA@ 0000000180028f24     Connector.obj
 0002:00000f28       ??_C@_01JLIPDDHJ@?3?$AA@   0000000180028f28     Connector.obj
 0002:00000f30       ??_C@_0M@JCNEBJMK@?$LP?M?$LL?$KH?$LG?K?A?$KM?$LN?S?$CI?$AA@ 0000000180028f30     Connector.obj
 0002:00000f40       ??_C@_0BD@OLBABOEK@vector?$DMT?$DO?5too?5long?$AA@ 0000000180028f40     Connector.obj
 0002:00000f58       ??_C@_0BC@KBDMBKEH@deque?$DMT?$DO?5too?5long?$AA@ 0000000180028f58     Connector.obj
 0002:00000f70       ??_C@_0BA@JFNIOLAK@string?5too?5long?$AA@ 0000000180028f70     Connector.obj
 0002:00000f80       ??_C@_0BI@CFPLBAOH@invalid?5string?5position?$AA@ 0000000180028f80     Connector.obj
 0002:00000fa0       ??_7CProtocolCommImp@@6B@  0000000180028fa0     Connector.obj
 0002:00001040       ??_7CListener@@6B0@@       0000000180029040     Connector.obj
 0002:00001060       ??_7CTcpShortComm@@6B@     0000000180029060     Connector.obj
 0002:00001070       ??_7CConnectPointSync@@6B@ 0000000180029070     Connector.obj
 0002:00001098       ??_7CAio@@6BCAction@@@     0000000180029098     Connector.obj
 0002:000010d8       ??_7CAio@@6B0@@            00000001800290d8     Connector.obj
 0002:000010e8       ??_8?$basic_stringstream@DU?$char_traits@D@std@@V?$allocator@D@2@@std@@7B?$basic_ostream@DU?$char_traits@D@std@@@1@@ 00000001800290e8     Connector.obj
 0002:000010f8       ??_7CConnector@@6BCAction@@@ 00000001800290f8     Connector.obj
 0002:00001138       ??_7CPacket@@6B@           0000000180029138     Connector.obj
 0002:00001158       ??_7CProtocolProcess@@6B@  0000000180029158     Connector.obj
 0002:000011c8       ??_7CProtocolCpMgr@@6BCConnectPointManager@@@ 00000001800291c8     Connector.obj
 0002:000011d8       ??_7CWorkThreadNm@@6B@     00000001800291d8     Connector.obj
 0002:00001230       ??_7CAction@@6B@           0000000180029230     Connector.obj
 0002:00001270       ??_7CProtocolCommNm@CProtocolCommImp@@6B@ 0000000180029270     Connector.obj
 0002:00001298       ??_7CConnectPointManager@@6B@ 0000000180029298     Connector.obj
 0002:000012a8       ??_7?$basic_stringbuf@DU?$char_traits@D@std@@V?$allocator@D@2@@std@@6B@ 00000001800292a8     Connector.obj
 0002:00001328       ??_7CConnector@@6BCWorkThreadNm@@@ 0000000180029328     Connector.obj
 0002:00001380       ??_7CConnectPointAsyn@@6B@ 0000000180029380     Connector.obj
 0002:000013c0       ??_7CProtocolCommClient@@6B@ 00000001800293c0     Connector.obj
 0002:00001468       ??_7?$basic_stringstream@DU?$char_traits@D@std@@V?$allocator@D@2@@std@@6B@ 0000000180029468     Connector.obj
 0002:00001478       ??_7CProtocolCpMgr@@6B0@@  0000000180029478     Connector.obj
 0002:000014a0       ??_7CListener@@6BCAction@@@ 00000001800294a0     Connector.obj
 0002:000014e0       ??_7CProtocolComm@@6B@     00000001800294e0     Connector.obj
 0002:00001550       ??_7CPacketRouteable@@6BCPacket@@@ 0000000180029550     Connector.obj
 0002:00001568       ??_8?$basic_stringstream@DU?$char_traits@D@std@@V?$allocator@D@2@@std@@7B?$basic_istream@DU?$char_traits@D@std@@@1@@ 0000000180029568     Connector.obj
 0002:00001578       ??_7CPacketRouteable@@6B0@@ 0000000180029578     Connector.obj
 0002:00001588       ??_7CProtocolCommServer@@6B@ 0000000180029588     Connector.obj
 0002:00001648       ??_7CProtocolCommWorker@CProtocolCommImp@@6B@ 0000000180029648     Connector.obj
 0002:000016a0       ??_7CWorkerNm@CWorkThreadNm@@6B@ 00000001800296a0     Connector.obj
 0002:000016c0       ??_C@_0M@KDBDIPF@listen_port?$AA@ 00000001800296c0     Listener.obj
 0002:000016d0       ??_C@_0BA@HJLPGDLH@No?5Lisent?5port?$CB?$AA@ 00000001800296d0     Listener.obj
 0002:000016e0       ??_C@_0BA@KEJEIKKO@CListener?3?3Init?$AA@ 00000001800296e0     Listener.obj
 0002:000016f0       ??_C@_09JIPKOHKL@listen_ip?$AA@ 00000001800296f0     Listener.obj
 0002:00001700       ??_C@_0BG@FPKPHBHI@No?5Lisent?5ip?0bind?5any?$AA@ 0000000180029700     Listener.obj
 0002:00001718       ??_C@_0O@KHBNAHNE@wait_conn_num?$AA@ 0000000180029718     Listener.obj
 0002:00001728       ??_C@_0CE@EPNFCOMB@No?5wait_conn_num?0set?5default?5val@ 0000000180029728     Listener.obj
 0002:00001750       ??_C@_07HNFCDACO@No?5mem?$CB?$AA@ 0000000180029750     Listener.obj
 0002:00001758       ??_C@_0O@ELMNCLLB@socket?$CI?$CJ?5fail?$AA@ 0000000180029758     Listener.obj
 0002:00001768       ??_C@_0BB@DDLNFMBE@CListener?3?3Start?$AA@ 0000000180029768     Listener.obj
 0002:00001780       ??_C@_0BN@FPOLJGEO@setsockopt?5SO_REUSEADDR?5fail?$AA@ 0000000180029780     Listener.obj
 0002:000017a0       ??_C@_0BC@KILAMD@bind?$CI?$CFs?3?$CFd?$CJ?5fail?$CB?$AA@ 00000001800297a0     Listener.obj
 0002:000017b8       ??_C@_0BE@NIFBKICJ@listen?$CI?$CFs?3?$CFd?$CJ?5fail?$CB?$AA@ 00000001800297b8     Listener.obj
 0002:000017d0       ??_C@_0CI@LGAMMJK@socket?5?$CFd?5listening?5on?5?$CFd?0queue?5@ 00000001800297d0     Listener.obj
 0002:000017f8       ??_C@_0BH@DNIPNDLA@close?5Listen?5socket?3?$CFd?$AA@ 00000001800297f8     Listener.obj
 0002:00001810       ??_C@_0BA@NBIBALMA@CListener?3?3Stop?$AA@ 0000000180029810     Listener.obj
 0002:00001820       ??_8CSelectorIo@@7B@       0000000180029820     ProtocolComm.obj
 0002:00001820       ??_8CSelectorListen@@7B@   0000000180029820     ProtocolComm.obj
 0002:00001830       ??_7CSelectorListen@@6B@   0000000180029830     ProtocolComm.obj
 0002:000018a0       ??_7CSelector@@6B@         00000001800298a0     ProtocolComm.obj
 0002:00001910       ??_7CSelector@@6BCAio@@@   0000000180029910     ProtocolComm.obj
 0002:00001928       ??_7CBase64Coding@@6B@     0000000180029928     ProtocolComm.obj
 0002:00001940       ??_7CSelectorListen@@6BCAction@@@ 0000000180029940     ProtocolComm.obj
 0002:00001988       ??_7CSelector@@6BCAction@@@ 0000000180029988     ProtocolComm.obj
 0002:000019c8       ??_7CSelectorIo@@6B@       00000001800299c8     ProtocolComm.obj
 0002:00001a38       ??_7CSelectorIo@@6BCAio@@@ 0000000180029a38     ProtocolComm.obj
 0002:00001a50       ??_7CSelectorIo@@6BCAction@@@ 0000000180029a50     ProtocolComm.obj
 0002:00001a90       ??_7CSelectorListen@@6BCAio@@@ 0000000180029a90     ProtocolComm.obj
 0002:00001aa0       ??_C@_06BJMHIPNB@No?5mem?$AA@ 0000000180029aa0     ProtocolComm.obj
 0002:00001aa8       ??_C@_0BH@GDNODLHL@CProtocolCommImp?3?3Init?$AA@ 0000000180029aa8     ProtocolComm.obj
 0002:00001ac0       ??_C@_0BC@LMNAKIBM@Stop?5ReadWriteAio?$AA@ 0000000180029ac0     ProtocolComm.obj
 0002:00001ad8       ??_C@_0BH@BGMLLKBF@CProtocolCommImp?3?3Stop?$AA@ 0000000180029ad8     ProtocolComm.obj
 0002:00001af0       ??_C@_0BO@OFHBEGNL@CProtocolCommImp?3?3RegisterAio?$AA@ 0000000180029af0     ProtocolComm.obj
 0002:00001b10       ??_C@_0BN@HPOHNDPC@Register?5?$CFd?5fail?$CB?$CFs?3?$CFd?9?$CFs?3?$CFd?$AA@ 0000000180029b10     ProtocolComm.obj
 0002:00001b30       ??_C@_0BE@CIKCJBDN@not?5all?5data?5sended?$AA@ 0000000180029b30     ProtocolComm.obj
 0002:00001b48       ??_C@_0N@OBGOAHJO@socket?3?$CFd?3?$CFs?$AA@ 0000000180029b48     ProtocolComm.obj
 0002:00001b58       ??_C@_0BL@PMACOJLG@CProtocolCommImp?3?3SendData?$AA@ 0000000180029b58     ProtocolComm.obj
 0002:00001b78       ??_C@_0BJ@JDINJBM@socket?3?$CFd?3sended?5err?3?5?$CFd?$AA@ 0000000180029b78     ProtocolComm.obj
 0002:00001b98       ??_C@_0CA@HMNEJAKF@cast?5CProtocolConnectPoint?5null?$AA@ 0000000180029b98     ProtocolComm.obj
 0002:00001bb8       ??_C@_0BH@MGFEDGAH@CProtocolCommImp?3?3Bind?$AA@ 0000000180029bb8     ProtocolComm.obj
 0002:00001bd0       ??_C@_0BJ@JBJPLFIP@CProtocolCommImp?3?3Handle?$AA@ 0000000180029bd0     ProtocolComm.obj
 0002:00001bf0       ??_C@_0BK@NLMIMLIK@CProtocolCommClient?3?3Init?$AA@ 0000000180029bf0     ProtocolComm.obj
 0002:00001c10       ??_C@_0O@IHEFAOO@Stop?5Connetor?$AA@ 0000000180029c10     ProtocolComm.obj
 0002:00001c20       ??_C@_0BK@KONNEKOE@CProtocolCommClient?3?3Stop?$AA@ 0000000180029c20     ProtocolComm.obj
 0002:00001c40       ??_C@_0CG@FFFDLBKN@cast?5CProtocolConnectPointClient@ 0000000180029c40     ProtocolComm.obj
 0002:00001c68       ??_C@_0BP@LONNLFEJ@CProtocolCommClient?3?3OnConnect?$AA@ 0000000180029c68     ProtocolComm.obj
 0002:00001c88       ??_C@_0BK@PHBCLJPP@CProtocolCommServer?3?3Init?$AA@ 0000000180029c88     ProtocolComm.obj
 0002:00001ca8       ??_C@_0N@LNAHEIPH@Stop?5Listner?$AA@ 0000000180029ca8     ProtocolComm.obj
 0002:00001cb8       ??_C@_0BK@ICAHDIJB@CProtocolCommServer?3?3Stop?$AA@ 0000000180029cb8     ProtocolComm.obj
 0002:00001cd8       ??_C@_0CG@FGLPEPBD@cast?5CProtocolConnectPointServer@ 0000000180029cd8     ProtocolComm.obj
 0002:00001d00       ??_C@_0BO@BDPEDGFO@CProtocolCommServer?3?3OnAccept?$AA@ 0000000180029d00     ProtocolComm.obj
 0002:00001d20       ??_C@_0BH@EEJIGJOA@CTcpShortComm?3?3Connect?$AA@ 0000000180029d20     ProtocolComm.obj
 0002:00001d38       ??_C@_0BC@BLFFBIF@?5HTTP?11?41?$AN?6Host?3?5?$AA@ 0000000180029d38     ProtocolComm.obj
 0002:00001d50       ??_C@_08MILBODMO@CONNECT?5?$AA@ 0000000180029d50     ProtocolComm.obj
 0002:00001d5c       ??_C@_04FMMHFHOO@?$AN?6?$AN?6?$AA@ 0000000180029d5c     ProtocolComm.obj
 0002:00001d64       ??_C@_02PCIJFNDE@?$AN?6?$AA@ 0000000180029d64     ProtocolComm.obj
 0002:00001d68       ??_C@_0BG@EPHDEOFO@Authorization?3?5Basic?5?$AA@ 0000000180029d68     ProtocolComm.obj
 0002:00001d80       ??_C@_0BM@FIOMLIMJ@Proxy?9Authorization?3?5Basic?5?$AA@ 0000000180029d80     ProtocolComm.obj
 0002:00001d9c       ??_C@_05FKGKDBHO@HTTP?1?$AA@ 0000000180029d9c     ProtocolComm.obj
 0002:00001da4       ??_C@_03HPLEMDKK@200?$AA@  0000000180029da4     ProtocolComm.obj
 0002:00001da8       ??_C@_07NPKDHEMG@?5?5?$CFs?5?$CFs?$AA@ 0000000180029da8     ProtocolComm.obj
 0002:00001db0       ??_C@_0EB@NFPJKBDG@ABCDEFGHIJKLMNOPQRSTUVWXYZabcdef@ 0000000180029db0     ProtocolComm.obj
 0002:00001df8       ??_C@_0BE@JONHPENG@map?1set?$DMT?$DO?5too?5long?$AA@ 0000000180029df8     ProtocolComm.obj
 0002:00001e18       ??_7CTcpAppProcessClient@@6B@ 0000000180029e18     ProtocolProcess.obj
 0002:00001e28       ??_7CTcpAppProcessServer@@6BCTcpHandler@@@ 0000000180029e28     ProtocolProcess.obj
 0002:00001e40       ??_C@_06CBBGAILA@0?5Comm?$AA@ 0000000180029e40     ProtocolProcess.obj
 0002:00001e48       ??_C@_0BG@MLNGLNGM@CAppProcess?3?3SendData?$AA@ 0000000180029e48     ProtocolProcess.obj
 0002:00001e60       ??_C@_06NICCKLIK@PTimer?$AA@ 0000000180029e60     ProtocolProcess.obj
 0002:00001e68       ??_C@_0N@ONGBLFHI@SendData?5err?$AA@ 0000000180029e68     ProtocolProcess.obj
 0002:00001e78       ??_C@_0BN@GBEOHDEG@CTcpShortProcess?3?3SendPacket?$AA@ 0000000180029e78     ProtocolProcess.obj
 0002:00001e98       ??_C@_0BA@JADIHIKB@Begin?5Recv?5Data?$AA@ 0000000180029e98     ProtocolProcess.obj
 0002:00001ea8       ??_C@_0CF@EIJIPMKJ@Recv?5Bytes?3?$CFd?0Total?3?$CFd?0Left?5time@ 0000000180029ea8     ProtocolProcess.obj
 0002:00001ed0       ??_C@_0BE@KGPCIHDF@Recv?5Bytes?5Total?3?$CFd?$AA@ 0000000180029ed0     ProtocolProcess.obj
 0002:00001ee8       ??_C@_0BH@FLDNIFMI@?$LH?G?$LH?$KI?$LF?D?$LD?$KE?$LG?H?W?V?$LG?N?$LD?$NP?$LE?g?3?5?$CFd?$AA@ 0000000180029ee8     ProtocolProcess.obj
 0002:00001f00       ??_C@_0BN@IHMJKFNP@CTcpHandler?3?3GetPacketLength?$AA@ 0000000180029f00     ProtocolProcess.obj
 0002:00001f20       ??_C@_0BH@BHDAHFKP@?$LH?G?$LH?$KI?$LF?D?$LD?$KE?$LG?H?W?V?$LG?N?$MA?$OA?P?M?3?5?$CFd?$AA@ 0000000180029f20     ProtocolProcess.obj
 0002:00001f38       ??_C@_0BN@PCKBFKAG@Bad?5MSG?5PACK?5m_nLength?5?$DN?5?$CFd?$CB?$AA@ 0000000180029f38     ProtocolProcess.obj
 0002:00001f58       ??_C@_0DL@OHJDNDCH@?$LB?$LO?$LE?N?J?$PN?$LO?$NN?N?$LE?J?U?F?k?$KD?$KMnSize?5?$DN?5?$CFd?0?5m_nI@ 0000000180029f58     ProtocolProcess.obj
 0002:00001f98       ??_C@_0BL@ODABBBNB@CTcpHandlerLong?3?3OnRecvTcp?$AA@ 0000000180029f98     ProtocolProcess.obj
 0002:00001fb8       ??_C@_08NFKIGFOG@?$LD?$KE?$LG?H?R?l?$LD?$KD?$AA@ 0000000180029fb8     ProtocolProcess.obj
 0002:00001fc8       ??_C@_0N@IDNMIPOG@exception?3?$CFs?$AA@ 0000000180029fc8     ProtocolProcess.obj
 0002:00001fd8       ??_C@_0BB@MOGOBHAF@list?$DMT?$DO?5too?5long?$AA@ 0000000180029fd8     ProtocolProcess.obj
 0002:00001ff8       ??_7CTcpAppProcessServer@@6BCAppProcess@@@ 0000000180029ff8     ProtocolProcess.obj
 0002:00002018       ??_7CAppProcess@@6BCProtocolProcess@@@ 000000018002a018     ProtocolProcess.obj
 0002:00002088       ??_7CTcpShortProcess@@6BCTcpHandler@@@ 000000018002a088     ProtocolProcess.obj
 0002:000020a8       ??_7CProcessTimer@CAppProcess@@6B@ 000000018002a0a8     ProtocolProcess.obj
 0002:000020c8       ??_7CTcpAppProcessServer@@6BCTcpHandlerLong@@@ 000000018002a0c8     ProtocolProcess.obj
 0002:000020d8       ??_7CTcpAppProcessClient@@6BCTcpHandler@@@ 000000018002a0d8     ProtocolProcess.obj
 0002:000020f8       ??_7CAppProcessClient@@6B@ 000000018002a0f8     ProtocolProcess.obj
 0002:00002108       ??_7CTcpShortProcess@@6B0@@ 000000018002a108     ProtocolProcess.obj
 0002:00002130       ??_7CTcpAppProcessServer@@6BCProtocolProcess@@@ 000000018002a130     ProtocolProcess.obj
 0002:000021a0       ??_7CAppProcessClient@@6BCAppProcess@@@ 000000018002a1a0     ProtocolProcess.obj
 0002:000021c0       ??_7CTcpHandler@@6B@       000000018002a1c0     ProtocolProcess.obj
 0002:000021e0       ??_7CTcpHandlerLong@@6BCTcpHandler@@@ 000000018002a1e0     ProtocolProcess.obj
 0002:00002200       ??_7CAppProcessServer@@6BCAppProcess@@@ 000000018002a200     ProtocolProcess.obj
 0002:00002220       ??_7CTcpAppProcessClient@@6BCTcpHandlerLong@@@ 000000018002a220     ProtocolProcess.obj
 0002:00002230       ??_7CTcpHandlerLong@@6B0@@ 000000018002a230     ProtocolProcess.obj
 0002:00002240       ??_7CAppProcessServer@@6BCProtocolProcess@@@ 000000018002a240     ProtocolProcess.obj
 0002:000022b0       ??_7CTcpAppProcessClient@@6BCProtocolProcess@@@ 000000018002a2b0     ProtocolProcess.obj
 0002:00002320       ??_7CTcpAppProcessServer@@6B@ 000000018002a320     ProtocolProcess.obj
 0002:00002330       ??_7CAppProcessClient@@6BCProtocolProcess@@@ 000000018002a330     ProtocolProcess.obj
 0002:000023a0       ??_7CTcpAppProcessClient@@6BCAppProcess@@@ 000000018002a3a0     ProtocolProcess.obj
 0002:000023c0       ??_7CAppProcess@@6B0@@     000000018002a3c0     ProtocolProcess.obj
 0002:000023e0       ??_7CAppProcessServer@@6B@ 000000018002a3e0     ProtocolProcess.obj
 0002:000023e8       ??_C@_0BL@MKIAJCHC@exception?3?$CFs?$CBThread?5?5no?5?$CFd?$AA@ 000000018002a3e8     Selector.obj
 0002:00002408       ??_C@_0BN@CONMDKAP@CSelectorWorker?3?3ThreadEntry?$AA@ 000000018002a408     Selector.obj
 0002:00002428       ??_C@_0CA@FPDOPCJA@Unknown?5exception?$CBThread?5?5no?5?$CFd?$AA@ 000000018002a428     Selector.obj
 0002:00002448       ??_C@_0CC@MGNADIMN@Selector?5worker?5thread?5exit?5no?5?$CF@ 000000018002a448     Selector.obj
 0002:00002470       ??_C@_0CF@LKDPAAD@Unknown?5exception?5exit?$CBThread?5?5n@ 000000018002a470     Selector.obj
 0002:00002498       ??_C@_0CJ@FNPKKBMD@Signal?5Selector?5worker?5thread?5?$CFd@ 000000018002a498     Selector.obj
 0002:000024c8       ??_C@_0BF@BLHPEKHN@CSelectorWorker?3?3End?$AA@ 000000018002a4c8     Selector.obj
 0002:000024e0       ??_C@_0CD@PECNOCIL@Selector?5worker?5thread?5?$CFd?5wait?5e@ 000000018002a4e0     Selector.obj
 0002:00002508       ??_C@_0BD@JFPABGML@?R?l?$LC?$LN?L?W?$LN?S?W?V?$LJ?$KE?W?w?O?$NP?$LD?L?$AA@ 000000018002a508     Selector.obj
 0002:0000251c       ??_C@_01LFCBOECM@?4?$AA@   000000018002a51c     Selector.obj
 0002:00002520       ??_C@_07JAONKMOM@cpu_num?$AA@ 000000018002a520     Selector.obj
 0002:00002528       ??_C@_0P@JMCADHPH@unbind?5udp?5sig?$AA@ 000000018002a528     Selector.obj
 0002:00002538       ??_C@_0BA@NHFGMENB@CSelector?3?3Init?$AA@ 000000018002a538     Selector.obj
 0002:00002548       ??_C@_01LKDEMHDF@s?$AA@    000000018002a548     Selector.obj
 0002:00002550       ??_C@_0N@NAAGJKPO@Sig?5Err?5sock?$AA@ 000000018002a550     Selector.obj
 0002:00002560       ??_C@_0BC@NKEIFKLP@CSelector?3?3Signal?$AA@ 000000018002a560     Selector.obj
 0002:00002578       ??_C@_0BM@PFBACIHI@no?5fd?0now?5num?5?$CFd?0max?5num?5?$CFd?$AA@ 000000018002a578     Selector.obj
 0002:00002598       ??_C@_0BE@GJKKEIEM@CSelector?3?3Register?$AA@ 000000018002a598     Selector.obj
 0002:000025b0       ??_C@_0L@MNBOHALN@Select?5err?$AA@ 000000018002a5b0     Selector.obj
 0002:000025c0       ??_C@_0BH@MCBADGAO@CSelector?3?3ThreadEntry?$AA@ 000000018002a5c0     Selector.obj
 0002:000025d8       ??_C@_0BF@MNPAAAFN@Selector?5thread?5exit?$AA@ 000000018002a5d8     Selector.obj
 0002:000025f0       ??_C@_05IBBCAILN@?$AN?6Que?$AA@ 000000018002a5f0     Selector.obj
 0002:000025f8       ??_C@_01ICJEACDI@?$DL?$AA@ 000000018002a5f8     Selector.obj
 0002:00002600       ??_C@_0BI@FNOLIOBF@CSelectorListen?3?3Handle?$AA@ 000000018002a600     Selector.obj
 0002:00002618       ??_C@_0N@OFFDJLFB@aio?4listener?$AA@ 000000018002a618     Selector.obj
 0002:00002628       ??_C@_0BD@CFBOEPOO@?L?W?$LN?S?W?V?$LM?$OA?L?$PN?$LF?w?$LG?H?O?$NP?$LD?L?$AA@ 000000018002a628     Selector.obj
 0002:00002640       ??_C@_0BD@JGGGHMFE@NULL?5KEY?0Thread?5?$CFd?$AA@ 000000018002a640     Selector.obj
 0002:00002658       ??_C@_0BE@CNHHIDMJ@CSelectorIo?3?3Handle?$AA@ 000000018002a658     Selector.obj
 0002:00002670       ??_C@_0BN@BHBPNEIL@NULL?5Comm?0socke?5?$CFd?0Thread?5?$CFd?$AA@ 000000018002a670     Selector.obj
 0002:00002690       ??_C@_06JOEFIGBE@aio?4io?$AA@ 000000018002a690     Selector.obj
 0002:00002698       ??_C@_0BD@CGJJKFNB@?L?W?$LN?S?W?V?J?U?$LH?$KC?$LF?w?$LG?H?O?$NP?$LD?L?$AA@ 000000018002a698     Selector.obj
 0002:000026b8       ??_7CSelectorWorker@@6B@   000000018002a6b8     Selector.obj
 0002:00002708       ??_C@_01CLKCMJKC@?5?$AA@   000000018002a708     WorkThreadNm.obj
 0002:0000270c       ??_C@_01JOAMLHOP@?9?$AA@   000000018002a70c     WorkThreadNm.obj
 0002:00003638       __real@3fe8000000000000    000000018002b638     ProtocolComm.obj
 0002:00004920       _load_config_used          000000018002c920     MSVCRT:loadcfg.obj
 0002:000049c0       ??_R4type_info@@6B@        000000018002c9c0     MSVCRT:std_type_info_static.obj
 0002:000049e8       ??_R3type_info@@8          000000018002c9e8     MSVCRT:std_type_info_static.obj
 0002:00004a00       ??_R2type_info@@8          000000018002ca00     MSVCRT:std_type_info_static.obj
 0002:00004a10       ??_R1A@?0A@EA@type_info@@8 000000018002ca10     MSVCRT:std_type_info_static.obj
 0002:00004a38       ??_R4bad_alloc@std@@6B@    000000018002ca38     MSVCRT:throw_bad_alloc.obj
 0002:00004a60       ??_R3bad_alloc@std@@8      000000018002ca60     MSVCRT:throw_bad_alloc.obj
 0002:00004a78       ??_R2bad_alloc@std@@8      000000018002ca78     MSVCRT:throw_bad_alloc.obj
 0002:00004a90       ??_R1A@?0A@EA@bad_alloc@std@@8 000000018002ca90     MSVCRT:throw_bad_alloc.obj
 0002:00004ab8       ??_R4bad_array_new_length@std@@6B@ 000000018002cab8     MSVCRT:throw_bad_alloc.obj
 0002:00004ae0       ??_R3bad_array_new_length@std@@8 000000018002cae0     MSVCRT:throw_bad_alloc.obj
 0002:00004af8       ??_R2bad_array_new_length@std@@8 000000018002caf8     MSVCRT:throw_bad_alloc.obj
 0002:00004b18       ??_R1A@?0A@EA@bad_array_new_length@std@@8 000000018002cb18     MSVCRT:throw_bad_alloc.obj
 0002:00004b40       ??_R3?$basic_istream@DU?$char_traits@D@std@@@std@@8 000000018002cb40     Connector.obj
 0002:00004b58       ??_R3?$basic_iostream@DU?$char_traits@D@std@@@std@@8 000000018002cb58     Connector.obj
 0002:00004b70       ??_R4CConnector@@6BCAction@@@ 000000018002cb70     Connector.obj
 0002:00004b98       ??_R3CWorkThreadNm@@8      000000018002cb98     Connector.obj
 0002:00004bb0       ??_R4exception@std@@6B@    000000018002cbb0     Connector.obj
 0002:00004bd8       ??_R4CAio@@6B0@@           000000018002cbd8     Connector.obj
 0002:00004c00       ??_R1A@?0A@EA@CAio@@8      000000018002cc00     Connector.obj
 0002:00004c28       ??_R2CPacket@@8            000000018002cc28     Connector.obj
 0002:00004c38       ??_R3CNmoModule@@8         000000018002cc38     Connector.obj
 0002:00004c50       ??_R3CListener@@8          000000018002cc50     Connector.obj
 0002:00004c68       ??_R3CPacket@@8            000000018002cc68     Connector.obj
 0002:00004c80       ??_R2CProtocolCommNm@CProtocolCommImp@@8 000000018002cc80     Connector.obj
 0002:00004c98       ??_R1A@?0A@EA@?$basic_istream@DU?$char_traits@D@std@@@std@@8 000000018002cc98     Connector.obj
 0002:00004cc0       ??_R2CThreadInferface@@8   000000018002ccc0     Connector.obj
 0002:00004cd0       ??_R2CConnectPointAsyn@@8  000000018002ccd0     Connector.obj
 0002:00004ce0       ??_R4CConnector@@6BCWorkThreadNm@@@ 000000018002cce0     Connector.obj
 0002:00004d08       ??_R4CWorkerNm@CWorkThreadNm@@6B@ 000000018002cd08     Connector.obj
 0002:00004d30       ??_R1A@?0A@EA@CProtocolProcess@@8 000000018002cd30     Connector.obj
 0002:00004d58       ??_R4CPacketRouteable@@6BCPacket@@@ 000000018002cd58     Connector.obj
 0002:00004d80       ??_R4CPacketRouteable@@6B0@@ 000000018002cd80     Connector.obj
 0002:00004da8       ??_R3CThreadInferface@@8   000000018002cda8     Connector.obj
 0002:00004dc0       ??_R3CProtocolCommWorker@CProtocolCommImp@@8 000000018002cdc0     Connector.obj
 0002:00004dd8       ??_R1A@?0A@EA@CConnectPointSync@@8 000000018002cdd8     Connector.obj
 0002:00004e00       ??_R2CProtocolProcess@@8   000000018002ce00     Connector.obj
 0002:00004e10       ??_R1A@?0A@EA@CProtocolCommServer@@8 000000018002ce10     Connector.obj
 0002:00004e38       ??_R4CProtocolComm@@6B@    000000018002ce38     Connector.obj
 0002:00004e60       ??_R2CProtocolComm@@8      000000018002ce60     Connector.obj
 0002:00004e78       ??_R2CProtocolCommWorker@CProtocolCommImp@@8 000000018002ce78     Connector.obj
 0002:00004e98       ??_R1A@73FA@CConnectPointManager@@8 000000018002ce98     Connector.obj
 0002:00004ec0       ??_R2?$basic_stringbuf@DU?$char_traits@D@std@@V?$allocator@D@2@@std@@8 000000018002cec0     Connector.obj
 0002:00004ed8       ??_R4CListener@@6B0@@      000000018002ced8     Connector.obj
 0002:00004f00       ??_R1A@73FA@CAction@@8     000000018002cf00     Connector.obj
 0002:00004f28       ??_R1A@?0A@EA@CProtocolCommNm@CProtocolCommImp@@8 000000018002cf28     Connector.obj
 0002:00004f50       ??_R4CProtocolCommImp@@6B@ 000000018002cf50     Connector.obj
 0002:00004f78       ??_R17A@3EA@?$_Iosb@H@std@@8 000000018002cf78     Connector.obj
 0002:00004fa0       ??_R1A@?0A@EA@?$basic_stringstream@DU?$char_traits@D@std@@V?$allocator@D@2@@std@@8 000000018002cfa0     Connector.obj
 0002:00004fc8       ??_R4CConnectPointSync@@6B@ 000000018002cfc8     Connector.obj
 0002:00004ff0       ??_R1A@?0A@EA@exception@std@@8 000000018002cff0     Connector.obj
 0002:00005018       ??_R1A@?0A@EA@CPacketRouteable@@8 000000018002d018     Connector.obj
 0002:00005040       ??_R1A@?0A@EA@CProtocolCpMgr@@8 000000018002d040     Connector.obj
 0002:00005068       ??_R1A@?0A@EA@?$basic_streambuf@DU?$char_traits@D@std@@@std@@8 000000018002d068     Connector.obj
 0002:00005090       ??_R1A@?0A@EA@CWorkThreadNm@@8 000000018002d090     Connector.obj
 0002:000050b8       ??_R4CTcpShortComm@@6B@    000000018002d0b8     Connector.obj
 0002:000050e0       ??_R1HI@?0A@EA@CAction@@8  000000018002d0e0     Connector.obj
 0002:00005108       ??_R2CTcpShortComm@@8      000000018002d108     Connector.obj
 0002:00005118       ??_R2CAio@@8               000000018002d118     Connector.obj
 0002:00005130       ??_R2?$basic_istream@DU?$char_traits@D@std@@@std@@8 000000018002d130     Connector.obj
 0002:00005158       ??_R4CConnectPointManager@@6B@ 000000018002d158     Connector.obj
 0002:00005180       ??_R1A@?0A@EA@CListener@@8 000000018002d180     Connector.obj
 0002:000051a8       ??_R4CConnectPointAsyn@@6B@ 000000018002d1a8     Connector.obj
 0002:000051d0       ??_R2CProtocolCommServer@@8 000000018002d1d0     Connector.obj
 0002:000051f8       ??_R2CPacketRouteable@@8   000000018002d1f8     Connector.obj
 0002:00005210       ??_R4CProtocolCpMgr@@6BCConnectPointManager@@@ 000000018002d210     Connector.obj
 0002:00005238       ??_R1A@?0A@EA@CTcpShortComm@@8 000000018002d238     Connector.obj
 0002:00005260       ??_R3CPacketRouteable@@8   000000018002d260     Connector.obj
 0002:00005278       ??_R3?$basic_stringbuf@DU?$char_traits@D@std@@V?$allocator@D@2@@std@@8 000000018002d278     Connector.obj
 0002:00005290       ??_R2exception@std@@8      000000018002d290     Connector.obj
 0002:000052a0       ??_R2?$basic_ostream@DU?$char_traits@D@std@@@std@@8 000000018002d2a0     Connector.obj
 0002:000052c8       ??_R3?$basic_ios@DU?$char_traits@D@std@@@std@@8 000000018002d2c8     Connector.obj
 0002:000052e0       ??_R4CProtocolProcess@@6B@ 000000018002d2e0     Connector.obj
 0002:00005308       ??_R2CProtocolCommClient@@8 000000018002d308     Connector.obj
 0002:00005330       ??_R2CConnectPointManager@@8 000000018002d330     Connector.obj
 0002:00005340       ??_R1A@?0A@EA@CProtocolCommClient@@8 000000018002d340     Connector.obj
 0002:00005368       ??_R4CProtocolCommClient@@6B@ 000000018002d368     Connector.obj
 0002:00005390       ??_R3CProtocolCommImp@@8   000000018002d390     Connector.obj
 0002:000053a8       ??_R1A@?0A@EA@CPacket@@8   000000018002d3a8     Connector.obj
 0002:000053d0       ??_R2CAction@@8            000000018002d3d0     Connector.obj
 0002:000053e0       ??_R2CNmoModule@@8         000000018002d3e0     Connector.obj
 0002:000053f0       ??_R3CProtocolCommNm@CProtocolCommImp@@8 000000018002d3f0     Connector.obj
 0002:00005408       ??_R1A@?0A@EA@CConnectPointManager@@8 000000018002d408     Connector.obj
 0002:00005430       ??_R3CAction@@8            000000018002d430     Connector.obj
 0002:00005448       ??_R4CProtocolCpMgr@@6B0@@ 000000018002d448     Connector.obj
 0002:00005470       ??_R2CConnectPointSync@@8  000000018002d470     Connector.obj
 0002:00005480       ??_R1BA@?0A@EA@?$basic_ostream@DU?$char_traits@D@std@@@std@@8 000000018002d480     Connector.obj
 0002:000054a8       ??_R1A@?0A@EA@ios_base@std@@8 000000018002d4a8     Connector.obj
 0002:000054d0       ??_R4CProtocolCommNm@CProtocolCommImp@@6B@ 000000018002d4d0     Connector.obj
 0002:000054f8       ??_R3exception@std@@8      000000018002d4f8     Connector.obj
 0002:00005510       ??_R1A@?0A@EA@CProtocolCommImp@@8 000000018002d510     Connector.obj
 0002:00005538       ??_R1A@?0A@EA@?$basic_ostream@DU?$char_traits@D@std@@@std@@8 000000018002d538     Connector.obj
 0002:00005560       ??_R1A@?0A@EA@CNmoModule@@8 000000018002d560     Connector.obj
 0002:00005588       ??_R3CProtocolComm@@8      000000018002d588     Connector.obj
 0002:000055a0       ??_R4CWorkThreadNm@@6B@    000000018002d5a0     Connector.obj
 0002:000055c8       ??_R3CProtocolCpMgr@@8     000000018002d5c8     Connector.obj
 0002:000055e0       ??_R3CAio@@8               000000018002d5e0     Connector.obj
 0002:000055f8       ??_R2?$basic_streambuf@DU?$char_traits@D@std@@@std@@8 000000018002d5f8     Connector.obj
 0002:00005608       ??_R1A@?0A@EA@?$_Iosb@H@std@@8 000000018002d608     Connector.obj
 0002:00005630       ??_R3CConnectPointSync@@8  000000018002d630     Connector.obj
 0002:00005648       ??_R2CWorkThreadNm@@8      000000018002d648     Connector.obj
 0002:00005660       ??_R3CWorkerNm@CWorkThreadNm@@8 000000018002d660     Connector.obj
 0002:00005678       ??_R1A@?0A@EA@?$basic_stringbuf@DU?$char_traits@D@std@@V?$allocator@D@2@@std@@8 000000018002d678     Connector.obj
 0002:000056a0       ??_R1A@?0A@EA@CConnector@@8 000000018002d6a0     Connector.obj
 0002:000056d0       ??_R2?$basic_iostream@DU?$char_traits@D@std@@@std@@8 000000018002d6d0     Connector.obj
 0002:00005720       ??_R2?$basic_stringstream@DU?$char_traits@D@std@@V?$allocator@D@2@@std@@8 000000018002d720     Connector.obj
 0002:00005778       ??_R1A@?0A@EA@CProtocolCommWorker@CProtocolCommImp@@8 000000018002d778     Connector.obj
 0002:000057a0       ??_R4CListener@@6BCAction@@@ 000000018002d7a0     Connector.obj
 0002:000057c8       ??_R4?$basic_stringbuf@DU?$char_traits@D@std@@V?$allocator@D@2@@std@@6B@ 000000018002d7c8     Connector.obj
 0002:000057f0       ??_R3CConnectPointAsyn@@8  000000018002d7f0     Connector.obj
 0002:00005808       ??_R4?$basic_stringstream@DU?$char_traits@D@std@@V?$allocator@D@2@@std@@6B@ 000000018002d808     Connector.obj
 0002:00005830       ??_R1A@73FA@CPacket@@8     000000018002d830     Connector.obj
 0002:00005858       ??_R2CProtocolCpMgr@@8     000000018002d858     Connector.obj
 0002:00005870       ??_R4CAction@@6B@          000000018002d870     Connector.obj
 0002:00005898       ??_R1A@A@3FA@?$basic_ios@DU?$char_traits@D@std@@@std@@8 000000018002d898     Connector.obj
 0002:000058c0       ??_R2CProtocolCommImp@@8   000000018002d8c0     Connector.obj
 0002:000058e0       ??_R4CProtocolCommServer@@6B@ 000000018002d8e0     Connector.obj
 0002:00005908       ??_R2CWorkerNm@CWorkThreadNm@@8 000000018002d908     Connector.obj
 0002:00005920       ??_R3CConnectPointManager@@8 000000018002d920     Connector.obj
 0002:00005938       ??_R2ios_base@std@@8       000000018002d938     Connector.obj
 0002:00005950       ??_R3?$basic_ostream@DU?$char_traits@D@std@@@std@@8 000000018002d950     Connector.obj
 0002:00005968       ??_R4CAio@@6BCAction@@@    000000018002d968     Connector.obj
 0002:00005990       ??_R1A@?0A@EA@?$basic_iostream@DU?$char_traits@D@std@@@std@@8 000000018002d990     Connector.obj
 0002:000059b8       ??_R3ios_base@std@@8       000000018002d9b8     Connector.obj
 0002:000059d0       ??_R3CTcpShortComm@@8      000000018002d9d0     Connector.obj
 0002:000059e8       ??_R3?$basic_streambuf@DU?$char_traits@D@std@@@std@@8 000000018002d9e8     Connector.obj
 0002:00005a00       ??_R4CProtocolCommWorker@CProtocolCommImp@@6B@ 000000018002da00     Connector.obj
 0002:00005a28       ??_R3?$basic_stringstream@DU?$char_traits@D@std@@V?$allocator@D@2@@std@@8 000000018002da28     Connector.obj
 0002:00005a40       ??_R1A@?0A@EA@CThreadInferface@@8 000000018002da40     Connector.obj
 0002:00005a68       ??_R1A@?0A@EA@CProtocolComm@@8 000000018002da68     Connector.obj
 0002:00005a90       ??_R2?$_Iosb@H@std@@8      000000018002da90     Connector.obj
 0002:00005aa0       ??_R3CProtocolCommServer@@8 000000018002daa0     Connector.obj
 0002:00005ab8       ??_R1A@?0A@EA@CAction@@8   000000018002dab8     Connector.obj
 0002:00005ae0       ??_R1A@A@3EA@ios_base@std@@8 000000018002dae0     Connector.obj
 0002:00005b08       ??_R1A@?0A@EA@?$basic_ios@DU?$char_traits@D@std@@@std@@8 000000018002db08     Connector.obj
 0002:00005b30       ??_R3?$_Iosb@H@std@@8      000000018002db30     Connector.obj
 0002:00005b48       ??_R3CConnector@@8         000000018002db48     Connector.obj
 0002:00005b60       ??_R17?0A@EA@?$_Iosb@H@std@@8 000000018002db60     Connector.obj
 0002:00005b88       ??_R4CPacket@@6B@          000000018002db88     Connector.obj
 0002:00005bb0       ??_R2CConnector@@8         000000018002dbb0     Connector.obj
 0002:00005bd8       ??_R1A@?0A@EA@CConnectPointAsyn@@8 000000018002dbd8     Connector.obj
 0002:00005c00       ??_R1A@?0A@EA@CWorkerNm@CWorkThreadNm@@8 000000018002dc00     Connector.obj
 0002:00005c28       ??_R2?$basic_ios@DU?$char_traits@D@std@@@std@@8 000000018002dc28     Connector.obj
 0002:00005c48       ??_R2CListener@@8          000000018002dc48     Connector.obj
 0002:00005c60       ??_R3CProtocolCommClient@@8 000000018002dc60     Connector.obj
 0002:00005c78       ??_R3CProtocolProcess@@8   000000018002dc78     Connector.obj
 0002:00005c90       ??_R3CBase64Coding@@8      000000018002dc90     ProtocolComm.obj
 0002:00005ca8       ??_R4CSelector@@6BCAio@@@  000000018002dca8     ProtocolComm.obj
 0002:00005cd0       ??_R2CSelectorListen@@8    000000018002dcd0     ProtocolComm.obj
 0002:00005d10       ??_R1HI@?0A@EA@CAio@@8     000000018002dd10     ProtocolComm.obj
 0002:00005d38       ??_R4CSelectorListen@@6B@  000000018002dd38     ProtocolComm.obj
 0002:00005d60       ??_R2?$CSingleton@VCSelectorIo@@@@8 000000018002dd60     ProtocolComm.obj
 0002:00005d70       ??_R2CBase64Coding@@8      000000018002dd70     ProtocolComm.obj
 0002:00005d80       ??_R1A@?0A@EA@CSelector@@8 000000018002dd80     ProtocolComm.obj
 0002:00005da8       ??_R4CSelector@@6B@        000000018002dda8     ProtocolComm.obj
 0002:00005dd0       ??_R1A@?0A@EA@?$CSingleton@VCSelectorIo@@@@8 000000018002ddd0     ProtocolComm.obj
 0002:00005df8       ??_R4CSelectorListen@@6BCAio@@@ 000000018002ddf8     ProtocolComm.obj
 0002:00005e20       ??_R1A@IA@3FA@CAction@@8   000000018002de20     ProtocolComm.obj
 0002:00005e48       ??_R1A@?0A@EA@CSelectorListen@@8 000000018002de48     ProtocolComm.obj
 0002:00005e70       ??_R4CSelectorIo@@6BCAio@@@ 000000018002de70     ProtocolComm.obj
 0002:00005e98       ??_R4CBase64Coding@@6B@    000000018002de98     ProtocolComm.obj
 0002:00005ec0       ??_R3CSelectorIo@@8        000000018002dec0     ProtocolComm.obj
 0002:00005ed8       ??_R2CSelector@@8          000000018002ded8     ProtocolComm.obj
 0002:00005f08       ??_R3?$CSingleton@VCSelectorIo@@@@8 000000018002df08     ProtocolComm.obj
 0002:00005f20       ??_R4CSelectorIo@@6B@      000000018002df20     ProtocolComm.obj
 0002:00005f48       ??_R4CSelectorListen@@6BCAction@@@ 000000018002df48     ProtocolComm.obj
 0002:00005f70       ??_R1BHI@?0A@EA@?$CSingleton@VCSelectorListen@@@@8 000000018002df70     ProtocolComm.obj
 0002:00005f98       ??_R2?$CSingleton@VCSelectorListen@@@@8 000000018002df98     ProtocolComm.obj
 0002:00005fa8       ??_R1A@?0A@EA@CBase64Coding@@8 000000018002dfa8     ProtocolComm.obj
 0002:00005fd0       ??_R3CSelectorListen@@8    000000018002dfd0     ProtocolComm.obj
 0002:00005fe8       ??_R1A@?0A@EA@?$CSingleton@VCSelectorListen@@@@8 000000018002dfe8     ProtocolComm.obj
 0002:00006010       ??_R3?$CSingleton@VCSelectorListen@@@@8 000000018002e010     ProtocolComm.obj
 0002:00006028       ??_R3CSelector@@8          000000018002e028     ProtocolComm.obj
 0002:00006040       ??_R1A@?0A@EA@CSelectorIo@@8 000000018002e040     ProtocolComm.obj
 0002:00006068       ??_R4CSelector@@6BCAction@@@ 000000018002e068     ProtocolComm.obj
 0002:00006090       ??_R2CSelectorIo@@8        000000018002e090     ProtocolComm.obj
 0002:000060d0       ??_R4CSelectorIo@@6BCAction@@@ 000000018002e0d0     ProtocolComm.obj
 0002:000060f8       ??_R1BHI@?0A@EA@?$CSingleton@VCSelectorIo@@@@8 000000018002e0f8     ProtocolComm.obj
 0002:00006120       ??_R4CTcpShortProcess@@6B0@@ 000000018002e120     ProtocolProcess.obj
 0002:00006148       ??_R1A@A@BE@FA@CTcpHandlerLong@@8 000000018002e148     ProtocolProcess.obj
 0002:00006170       ??_R4CAppProcessClient@@6BCProtocolProcess@@@ 000000018002e170     ProtocolProcess.obj
 0002:00006198       ??_R4CTcpAppProcessServer@@6BCAppProcess@@@ 000000018002e198     ProtocolProcess.obj
 0002:000061c0       ??_R2CTcpShortProcess@@8   000000018002e1c0     ProtocolProcess.obj
 0002:000061d8       ??_R4CAppProcessServer@@6BCProtocolProcess@@@ 000000018002e1d8     ProtocolProcess.obj
 0002:00006200       ??_R3CAppProcessServer@@8  000000018002e200     ProtocolProcess.obj
 0002:00006218       ??_R4CTcpHandler@@6B@      000000018002e218     ProtocolProcess.obj
 0002:00006240       ??_R4CAppProcess@@6B0@@    000000018002e240     ProtocolProcess.obj
 0002:00006268       ??_R2CGessTimer@@8         000000018002e268     ProtocolProcess.obj
 0002:00006278       ??_R3CTcpAppProcessServer@@8 000000018002e278     ProtocolProcess.obj
 0002:00006290       ??_R1A@73FA@CProtocolProcess@@8 000000018002e290     ProtocolProcess.obj
 0002:000062b8       ??_R2CTcpAppProcessClient@@8 000000018002e2b8     ProtocolProcess.obj
 0002:000062f0       ??_R3CProcessTimer@CAppProcess@@8 000000018002e2f0     ProtocolProcess.obj
 0002:00006308       ??_R1A@A@BA@FA@CTcpHandler@@8 000000018002e308     ProtocolProcess.obj
 0002:00006330       ??_R1A@A@3FA@CProtocolProcess@@8 000000018002e330     ProtocolProcess.obj
 0002:00006358       ??_R4CTcpAppProcessClient@@6BCAppProcess@@@ 000000018002e358     ProtocolProcess.obj
 0002:00006380       ??_R3CTcpAppProcessClient@@8 000000018002e380     ProtocolProcess.obj
 0002:00006398       ??_R4CTcpAppProcessServer@@6BCTcpHandlerLong@@@ 000000018002e398     ProtocolProcess.obj
 0002:000063c0       ??_R4CTcpAppProcessClient@@6BCTcpHandlerLong@@@ 000000018002e3c0     ProtocolProcess.obj
 0002:000063e8       ??_R2CAppProcessServer@@8  000000018002e3e8     ProtocolProcess.obj
 0002:00006408       ??_R1A@A@M@FA@CAppProcessServer@@8 000000018002e408     ProtocolProcess.obj
 0002:00006430       ??_R3CAppProcessClient@@8  000000018002e430     ProtocolProcess.obj
 0002:00006448       ??_R3CAppProcess@@8        000000018002e448     ProtocolProcess.obj
 0002:00006460       ??_R4CTcpHandlerLong@@6B0@@ 000000018002e460     ProtocolProcess.obj
 0002:00006488       ??_R3CTcpShortProcess@@8   000000018002e488     ProtocolProcess.obj
 0002:000064a0       ??_R4CTcpShortProcess@@6BCTcpHandler@@@ 000000018002e4a0     ProtocolProcess.obj
 0002:000064c8       ??_R4CAppProcessServer@@6B@ 000000018002e4c8     ProtocolProcess.obj
 0002:000064f0       ??_R2CTcpHandlerLong@@8    000000018002e4f0     ProtocolProcess.obj
 0002:00006508       ??_R1A@?0A@EA@CAppProcessClient@@8 000000018002e508     ProtocolProcess.obj
 0002:00006530       ??_R1A@?0A@EA@CGessTimer@@8 000000018002e530     ProtocolProcess.obj
 0002:00006558       ??_R1A@A@7FA@CAppProcess@@8 000000018002e558     ProtocolProcess.obj
 0002:00006580       ??_R4CTcpHandlerLong@@6BCTcpHandler@@@ 000000018002e580     ProtocolProcess.obj
 0002:000065a8       ??_R2CTcpAppProcessServer@@8 000000018002e5a8     ProtocolProcess.obj
 0002:000065e0       ??_R4CTcpAppProcessServer@@6BCProtocolProcess@@@ 000000018002e5e0     ProtocolProcess.obj
 0002:00006608       ??_R4CTcpAppProcessClient@@6B@ 000000018002e608     ProtocolProcess.obj
 0002:00006630       ??_R1A@77FA@CAppProcess@@8 000000018002e630     ProtocolProcess.obj
 0002:00006658       ??_R4CAppProcessClient@@6B@ 000000018002e658     ProtocolProcess.obj
 0002:00006680       ??_R1A@?0A@EA@CTcpShortProcess@@8 000000018002e680     ProtocolProcess.obj
 0002:000066a8       ??_R1A@?0A@EA@CProcessTimer@CAppProcess@@8 000000018002e6a8     ProtocolProcess.obj
 0002:000066d0       ??_R4CTcpAppProcessClient@@6BCTcpHandler@@@ 000000018002e6d0     ProtocolProcess.obj
 0002:000066f8       ??_R4CProcessTimer@CAppProcess@@6B@ 000000018002e6f8     ProtocolProcess.obj
 0002:00006720       ??_R2CTcpHandler@@8        000000018002e720     ProtocolProcess.obj
 0002:00006730       ??_R4CAppProcessServer@@6BCAppProcess@@@ 000000018002e730     ProtocolProcess.obj
 0002:00006758       ??_R4CTcpAppProcessClient@@6BCProtocolProcess@@@ 000000018002e758     ProtocolProcess.obj
 0002:00006780       ??_R1A@?0A@EA@CAppProcess@@8 000000018002e780     ProtocolProcess.obj
 0002:000067a8       ??_R4CTcpAppProcessServer@@6BCTcpHandler@@@ 000000018002e7a8     ProtocolProcess.obj
 0002:000067d0       ??_R1A@?0A@EA@CTcpAppProcessServer@@8 000000018002e7d0     ProtocolProcess.obj
 0002:000067f8       ??_R2CAppProcess@@8        000000018002e7f8     ProtocolProcess.obj
 0002:00006810       ??_R1A@73FA@CTcpHandler@@8 000000018002e810     ProtocolProcess.obj
 0002:00006838       ??_R1A@?0A@EA@CAppProcessServer@@8 000000018002e838     ProtocolProcess.obj
 0002:00006860       ??_R3CTcpHandlerLong@@8    000000018002e860     ProtocolProcess.obj
 0002:00006878       ??_R3CGessTimer@@8         000000018002e878     ProtocolProcess.obj
 0002:00006890       ??_R3CTcpHandler@@8        000000018002e890     ProtocolProcess.obj
 0002:000068a8       ??_R2CProcessTimer@CAppProcess@@8 000000018002e8a8     ProtocolProcess.obj
 0002:000068c0       ??_R4CAppProcessClient@@6BCAppProcess@@@ 000000018002e8c0     ProtocolProcess.obj
 0002:000068e8       ??_R2CAppProcessClient@@8  000000018002e8e8     ProtocolProcess.obj
 0002:00006908       ??_R1A@?0A@EA@CTcpAppProcessClient@@8 000000018002e908     ProtocolProcess.obj
 0002:00006930       ??_R4CAppProcess@@6BCProtocolProcess@@@ 000000018002e930     ProtocolProcess.obj
 0002:00006958       ??_R1A@?0A@EA@CTcpHandler@@8 000000018002e958     ProtocolProcess.obj
 0002:00006980       ??_R4CTcpAppProcessServer@@6B@ 000000018002e980     ProtocolProcess.obj
 0002:000069a8       ??_R1A@A@M@FA@CAppProcessClient@@8 000000018002e9a8     ProtocolProcess.obj
 0002:000069d0       ??_R1A@?0A@EA@CTcpHandlerLong@@8 000000018002e9d0     ProtocolProcess.obj
 0002:000069f8       ??_R1A@?0A@EA@CSelectorWorker@@8 000000018002e9f8     Selector.obj
 0002:00006a20       ??_R2CSelectorWorker@@8    000000018002ea20     Selector.obj
 0002:00006a40       ??_R3CSelectorWorker@@8    000000018002ea40     Selector.obj
 0002:00006a58       ??_R4CSelectorWorker@@6B@  000000018002ea58     Selector.obj
 0002:00006db0       __rtc_iaa                  000000018002edb0     MSVCRT:_initsect_.obj
 0002:00006db8       __rtc_izz                  000000018002edb8     MSVCRT:_initsect_.obj
 0002:00006dc0       __rtc_taa                  000000018002edc0     MSVCRT:_initsect_.obj
 0002:00006dc8       __rtc_tzz                  000000018002edc8     MSVCRT:_initsect_.obj
 0002:0000cbc8       _TI2?AVbad_alloc@std@@     0000000180034bc8     MSVCRT:throw_bad_alloc.obj
 0002:0000cbe8       _CTA2?AVbad_alloc@std@@    0000000180034be8     MSVCRT:throw_bad_alloc.obj
 0002:0000cc00       _CT??_R0?AVbad_alloc@std@@@8??0bad_alloc@std@@QEAA@AEBV01@@Z24 0000000180034c00     MSVCRT:throw_bad_alloc.obj
 0002:0000cc28       _CT??_R0?AVexception@std@@@8??0exception@std@@QEAA@AEBV01@@Z24 0000000180034c28     MSVCRT:throw_bad_alloc.obj
 0002:0000cc50       _TI3?AVbad_array_new_length@std@@ 0000000180034c50     MSVCRT:throw_bad_alloc.obj
 0002:0000cc70       _CTA3?AVbad_array_new_length@std@@ 0000000180034c70     MSVCRT:throw_bad_alloc.obj
 0002:0000cc90       _CT??_R0?AVbad_array_new_length@std@@@8??0bad_array_new_length@std@@QEAA@AEBV01@@Z24 0000000180034c90     MSVCRT:throw_bad_alloc.obj
 0002:00010afc       __IMPORT_DESCRIPTOR_WS2_32 0000000180038afc     Ws2_32:WS2_32.dll
 0002:00010b10       __IMPORT_DESCRIPTOR_Utility 0000000180038b10     Utility:Utility.dll
 0002:00010b24       __IMPORT_DESCRIPTOR_NetMgr 0000000180038b24     NetMgr:NetMgr.dll
 0002:00010b38       __IMPORT_DESCRIPTOR_KERNEL32 0000000180038b38     kernel32:KERNEL32.dll
 0002:00010b4c       __IMPORT_DESCRIPTOR_MSVCP140 0000000180038b4c     msvcprt:MSVCP140.dll
 0002:00010b60       __IMPORT_DESCRIPTOR_VCRUNTIME140 0000000180038b60     vcruntime:VCRUNTIME140.dll
 0002:00010b74       __IMPORT_DESCRIPTOR_api-ms-win-crt-time-l1-1-0 0000000180038b74     ucrt:api-ms-win-crt-time-l1-1-0.dll
 0002:00010b88       __IMPORT_DESCRIPTOR_api-ms-win-crt-runtime-l1-1-0 0000000180038b88     ucrt:api-ms-win-crt-runtime-l1-1-0.dll
 0002:00010b9c       __IMPORT_DESCRIPTOR_api-ms-win-crt-stdio-l1-1-0 0000000180038b9c     ucrt:api-ms-win-crt-stdio-l1-1-0.dll
 0002:00010bb0       __IMPORT_DESCRIPTOR_api-ms-win-crt-convert-l1-1-0 0000000180038bb0     ucrt:api-ms-win-crt-convert-l1-1-0.dll
 0002:00010bc4       __IMPORT_DESCRIPTOR_api-ms-win-crt-utility-l1-1-0 0000000180038bc4     ucrt:api-ms-win-crt-utility-l1-1-0.dll
 0002:00010bd8       __IMPORT_DESCRIPTOR_api-ms-win-crt-heap-l1-1-0 0000000180038bd8     ucrt:api-ms-win-crt-heap-l1-1-0.dll
 0002:00010bec       __NULL_IMPORT_DESCRIPTOR   0000000180038bec     Ws2_32:WS2_32.dll
 0003:00000000       __scrt_native_dllmain_reason 000000018003b000     MSVCRT:utility.obj
 0003:00000008       __isa_available            000000018003b008     MSVCRT:_cpu_disp_.obj
 0003:0000000c       __isa_enabled              000000018003b00c     MSVCRT:_cpu_disp_.obj
 0003:00000010       __memcpy_nt_iters          000000018003b010     MSVCRT:_cpu_disp_.obj
 0003:00000018       __security_cookie          000000018003b018     MSVCRT:gs_cookie.obj
 0003:00000020       __security_cookie_complement 000000018003b020     MSVCRT:gs_cookie.obj
 0003:00000030       __scrt_ucrt_dll_is_in_use  000000018003b030     MSVCRT:ucrt_stubs.obj
 0003:00000034       _fltused                   000000018003b034     MSVCRT:dllsupp.obj
 0003:00000040       ??_R0?AVtype_info@@@8      000000018003b040     MSVCRT:std_type_info_static.obj
 0003:00000060       ??_R0?AVbad_alloc@std@@@8  000000018003b060     MSVCRT:throw_bad_alloc.obj
 0003:00000088       ??_R0?AVbad_array_new_length@std@@@8 000000018003b088     MSVCRT:throw_bad_alloc.obj
 0003:000000c0       ??_R0?AV?$basic_stringstream@DU?$char_traits@D@std@@V?$allocator@D@2@@std@@@8 000000018003b0c0     Connector.obj
 0003:00000118       ??_R0?AVCConnectPointManager@@@8 000000018003b118     Connector.obj
 0003:00000148       ??_R0?AVCProtocolCommClient@@@8 000000018003b148     Connector.obj
 0003:00000178       ??_R0?AVCProtocolCommWorker@CProtocolCommImp@@@8 000000018003b178     Connector.obj
 0003:000001b8       ??_R0?AVCProtocolCommServer@@@8 000000018003b1b8     Connector.obj
 0003:000001f0       ??_R0?AV?$basic_stringbuf@DU?$char_traits@D@std@@V?$allocator@D@2@@std@@@8 000000018003b1f0     Connector.obj
 0003:00000248       ??_R0?AVCProtocolComm@@@8  000000018003b248     Connector.obj
 0003:00000270       ??_R0?AVios_base@std@@@8   000000018003b270     Connector.obj
 0003:00000298       ??_R0?AVCPacketRouteable@@@8 000000018003b298     Connector.obj
 0003:000002c0       ??_R0?AVCConnector@@@8     000000018003b2c0     Connector.obj
 0003:000002f0       ??_R0?AV?$basic_iostream@DU?$char_traits@D@std@@@std@@@8 000000018003b2f0     Connector.obj
 0003:00000338       ??_R0?AVCNmoModule@@@8     000000018003b338     Connector.obj
 0003:00000360       ??_R0?AV?$_Iosb@H@std@@@8  000000018003b360     Connector.obj
 0003:00000388       ??_R0?AVCConnectPointAsyn@@@8 000000018003b388     Connector.obj
 0003:000003b0       ??_R0?AVCWorkerNm@CWorkThreadNm@@@8 000000018003b3b0     Connector.obj
 0003:000003e0       ??_R0?AV?$basic_streambuf@DU?$char_traits@D@std@@@std@@@8 000000018003b3e0     Connector.obj
 0003:00000428       ??_R0?AVCProtocolCommNm@CProtocolCommImp@@@8 000000018003b428     Connector.obj
 0003:00000460       ??_R0?AVCProtocolProcess@@@8 000000018003b460     Connector.obj
 0003:00000488       ??_R0?AVCConnectPointSync@@@8 000000018003b488     Connector.obj
 0003:000004b0       ??_R0?AV?$basic_istream@DU?$char_traits@D@std@@@std@@@8 000000018003b4b0     Connector.obj
 0003:000004f8       ??_R0?AVCListener@@@8      000000018003b4f8     Connector.obj
 0003:00000518       ??_R0?AVCWorkThreadNm@@@8  000000018003b518     Connector.obj
 0003:00000540       ??_R0?AV?$basic_ios@DU?$char_traits@D@std@@@std@@@8 000000018003b540     Connector.obj
 0003:00000580       ??_R0?AVCTcpShortComm@@@8  000000018003b580     Connector.obj
 0003:000005a8       ??_R0?AVCAio@@@8           000000018003b5a8     Connector.obj
 0003:000005c8       ??_R0?AVCPacket@@@8        000000018003b5c8     Connector.obj
 0003:000005e8       ??_R0?AVCThreadInferface@@@8 000000018003b5e8     Connector.obj
 0003:00000610       ??_R0?AV?$basic_ostream@DU?$char_traits@D@std@@@std@@@8 000000018003b610     Connector.obj
 0003:00000658       ??_R0?AVCProtocolCpMgr@@@8 000000018003b658     Connector.obj
 0003:00000680       ??_R0?AVexception@std@@@8  000000018003b680     Connector.obj
 0003:000006a8       ??_R0?AVCAction@@@8        000000018003b6a8     Connector.obj
 0003:000006c8       ??_R0?AVCProtocolCommImp@@@8 000000018003b6c8     Connector.obj
 0003:000006f0       ??_R0?AVCProtocolConnectPointServer@@@8 000000018003b6f0     ProtocolComm.obj
 0003:00000728       ??_R0?AVCSelectorIo@@@8    000000018003b728     ProtocolComm.obj
 0003:00000750       ??_R0?AVCProtocolConnectPointClient@@@8 000000018003b750     ProtocolComm.obj
 0003:00000788       ??_R0?AVCSelector@@@8      000000018003b788     ProtocolComm.obj
 0003:000007a8       ??_R0?AV?$CSingleton@VCSelectorListen@@@@@8 000000018003b7a8     ProtocolComm.obj
 0003:000007e0       ??_R0?AVCProtocolConnectPoint@@@8 000000018003b7e0     ProtocolComm.obj
 0003:00000810       ??_R0?AV?$CSingleton@VCSelectorIo@@@@@8 000000018003b810     ProtocolComm.obj
 0003:00000848       ??_R0?AVCSelectorListen@@@8 000000018003b848     ProtocolComm.obj
 0003:00000870       ??_R0?AVCBase64Coding@@@8  000000018003b870     ProtocolComm.obj
 0003:00000898       ??_R0?AVCGessTimer@@@8     000000018003b898     ProtocolProcess.obj
 0003:000008c0       ??_R0?AVCTcpHandler@@@8    000000018003b8c0     ProtocolProcess.obj
 0003:000008e8       ??_R0?AVCProcessTimer@CAppProcess@@@8 000000018003b8e8     ProtocolProcess.obj
 0003:00000918       ??_R0?AVCAppProcessServer@@@8 000000018003b918     ProtocolProcess.obj
 0003:00000940       ??_R0?AVCTcpAppProcessServer@@@8 000000018003b940     ProtocolProcess.obj
 0003:00000970       ??_R0?AVCTcpAppProcessClient@@@8 000000018003b970     ProtocolProcess.obj
 0003:000009a0       ??_R0?AVCTcpHandlerLong@@@8 000000018003b9a0     ProtocolProcess.obj
 0003:000009c8       ??_R0?AVCAppProcess@@@8    000000018003b9c8     ProtocolProcess.obj
 0003:000009f0       ??_R0?AVCAppProcessClient@@@8 000000018003b9f0     ProtocolProcess.obj
 0003:00000a18       ??_R0?AVCTcpShortProcess@@@8 000000018003ba18     ProtocolProcess.obj
 0003:00000a40       ??_R0?AVCSelectorWorker@@@8 000000018003ba40     Selector.obj
 0003:00000a70       __scrt_current_native_startup_state 000000018003ba70     MSVCRT:utility.obj
 0003:00000a78       __scrt_native_startup_lock 000000018003ba78     MSVCRT:utility.obj
 0003:00000ab8       __favor                    000000018003bab8     MSVCRT:_cpu_disp_.obj
 0003:00000abc       __scrt_debugger_hook_flag  000000018003babc     MSVCRT:utility_desktop.obj
 0003:00000ac0       ?__type_info_root_node@@3U__type_info_node@@A 000000018003bac0     MSVCRT:tncleanup.obj
 0003:00000ad0       ?_OptionsStorage@?1??__local_stdio_scanf_options@@9@4_KA 000000018003bad0     MSVCRT:default_local_stdio_options.obj
 0003:00000ad8       ?m_ulSID@CConnector@@0KA   000000018003bad8     Connector.obj
 0003:00000adc       ?m_uiSID@CWorkThreadNm@@0IA 000000018003badc     WorkThreadNm.obj
 0003:00000be0       ?m_mutexSID@CConnector@@0VCGessMutex@@A 000000018003bbe0     Connector.obj
 0003:000021f0       ?m_mutexSID@CWorkThreadNm@@0VCGessMutex@@A 000000018003d1f0     WorkThreadNm.obj
 0003:00002240       ?_OptionsStorage@?1??__local_stdio_printf_options@@9@4_KA 000000018003d240     ProtocolComm.obj
 0003:00002248       ?m_pInstance@?$CSingleton@VCSelectorIo@@@@0REAVCSelectorIo@@EA 000000018003d248     ProtocolComm.obj
 0003:00002250       ?m_pInstance@?$CSingleton@VCSelectorListen@@@@0REAVCSelectorListen@@EA 000000018003d250     ProtocolComm.obj
 0003:00002258       ?m_mutexSingleton@?$CSingleton@VCSelectorIo@@@@0VCGessMutex@@A 000000018003d258     ProtocolComm.obj
 0003:00002268       ?m_mutexSingleton@?$CSingleton@VCSelectorListen@@@@0VCGessMutex@@A 000000018003d268     ProtocolComm.obj
 0003:00002278       __dyn_tls_init_callback    000000018003d278     <common>

 entry point at        0001:0001c0e4

 Static symbols

 0000:fffbc000       .debug$S                   0000000180000000     msvcprt:MSVCP140.dll
 0000:fffbc000       .debug$S                   0000000180000000     Ws2_32:WS2_32.dll
 0000:fffbc000       .debug$S                   0000000180000000     Ws2_32:WS2_32.dll
 0000:fffbc000       .debug$S                   0000000180000000     Ws2_32:WS2_32.dll
 0000:fffbc000       .debug$S                   0000000180000000     Ws2_32:WS2_32.dll
 0000:fffbc000       .debug$S                   0000000180000000     Ws2_32:WS2_32.dll
 0000:fffbc000       .debug$S                   0000000180000000     Ws2_32:WS2_32.dll
 0000:fffbc000       .debug$S                   0000000180000000     Utility:Utility.dll
 0000:fffbc000       .debug$S                   0000000180000000     Utility:Utility.dll
 0000:fffbc000       .debug$S                   0000000180000000     Utility:Utility.dll
 0000:fffbc000       .debug$S                   0000000180000000     Ws2_32:WS2_32.dll
 0000:fffbc000       .debug$S                   0000000180000000     Ws2_32:WS2_32.dll
 0000:fffbc000       .debug$S                   0000000180000000     Ws2_32:WS2_32.dll
 0000:fffbc000       .debug$S                   0000000180000000     Ws2_32:WS2_32.dll
 0000:fffbc000       .debug$S                   0000000180000000     Utility:Utility.dll
 0000:fffbc000       .debug$S                   0000000180000000     Utility:Utility.dll
 0000:fffbc000       .debug$S                   0000000180000000     Utility:Utility.dll
 0000:fffbc000       .debug$S                   0000000180000000     Utility:Utility.dll
 0000:fffbc000       .debug$S                   0000000180000000     Utility:Utility.dll
 0000:fffbc000       .debug$S                   0000000180000000     Utility:Utility.dll
 0000:fffbc000       .debug$S                   0000000180000000     Utility:Utility.dll
 0000:fffbc000       .debug$S                   0000000180000000     Utility:Utility.dll
 0000:fffbc000       .debug$S                   0000000180000000     Utility:Utility.dll
 0000:fffbc000       .debug$S                   0000000180000000     Utility:Utility.dll
 0000:fffbc000       .debug$S                   0000000180000000     Ws2_32:WS2_32.dll
 0000:fffbc000       .debug$S                   0000000180000000     Ws2_32:WS2_32.dll
 0000:fffbc000       .debug$S                   0000000180000000     Utility:Utility.dll
 0000:fffbc000       .debug$S                   0000000180000000     Utility:Utility.dll
 0000:fffbc000       .debug$S                   0000000180000000     Utility:Utility.dll
 0000:fffbc000       .debug$S                   0000000180000000     Utility:Utility.dll
 0000:fffbc000       .debug$S                   0000000180000000     Utility:Utility.dll
 0000:fffbc000       .debug$S                   0000000180000000     ucrt:api-ms-win-crt-convert-l1-1-0.dll
 0000:fffbc000       .debug$S                   0000000180000000     Utility:Utility.dll
 0000:fffbc000       .debug$S                   0000000180000000     Utility:Utility.dll
 0000:fffbc000       .debug$S                   0000000180000000     Utility:Utility.dll
 0000:fffbc000       .debug$S                   0000000180000000     ucrt:api-ms-win-crt-heap-l1-1-0.dll
 0000:fffbc000       .debug$S                   0000000180000000     Utility:Utility.dll
 0000:fffbc000       .debug$S                   0000000180000000     ucrt:api-ms-win-crt-heap-l1-1-0.dll
 0000:fffbc000       .debug$S                   0000000180000000     Utility:Utility.dll
 0000:fffbc000       .debug$S                   0000000180000000     Utility:Utility.dll
 0000:fffbc000       .debug$S                   0000000180000000     Ws2_32:WS2_32.dll
 0000:fffbc000       .debug$S                   0000000180000000     Ws2_32:WS2_32.dll
 0000:fffbc000       .debug$S                   0000000180000000     Ws2_32:WS2_32.dll
 0000:fffbc000       .debug$S                   0000000180000000     Utility:Utility.dll
 0000:fffbc000       .debug$S                   0000000180000000     ucrt:api-ms-win-crt-heap-l1-1-0.dll
 0000:fffbc000       .debug$S                   0000000180000000     Utility:Utility.dll
 0000:fffbc000       .debug$S                   0000000180000000     Utility:Utility.dll
 0000:fffbc000       .debug$S                   0000000180000000     Utility:Utility.dll
 0000:fffbc000       .debug$S                   0000000180000000     Utility:Utility.dll
 0000:fffbc000       .debug$S                   0000000180000000     ucrt:api-ms-win-crt-runtime-l1-1-0.dll
 0000:fffbc000       .debug$S                   0000000180000000     ucrt:api-ms-win-crt-runtime-l1-1-0.dll
 0000:fffbc000       .debug$S                   0000000180000000     Utility:Utility.dll
 0000:fffbc000       .debug$S                   0000000180000000     Utility:Utility.dll
 0000:fffbc000       .debug$S                   0000000180000000     Utility:Utility.dll
 0000:fffbc000       .debug$S                   0000000180000000     ucrt:api-ms-win-crt-runtime-l1-1-0.dll
 0000:fffbc000       .debug$S                   0000000180000000     Utility:Utility.dll
 0000:fffbc000       .debug$S                   0000000180000000     ucrt:api-ms-win-crt-runtime-l1-1-0.dll
 0000:fffbc000       .debug$S                   0000000180000000     Utility:Utility.dll
 0000:fffbc000       .debug$S                   0000000180000000     Utility:Utility.dll
 0000:fffbc000       .debug$S                   0000000180000000     Utility:Utility.dll
 0000:fffbc000       .debug$S                   0000000180000000     ucrt:api-ms-win-crt-runtime-l1-1-0.dll
 0000:fffbc000       .debug$S                   0000000180000000     CommFramwork.exp
 0000:fffbc000       .debug$S                   0000000180000000     Ws2_32:WS2_32.dll
 0000:fffbc000       .debug$S                   0000000180000000     Ws2_32:WS2_32.dll
 0000:fffbc000       .debug$S                   0000000180000000     ucrt:api-ms-win-crt-runtime-l1-1-0.dll
 0000:fffbc000       .debug$S                   0000000180000000     Utility:Utility.dll
 0000:fffbc000       .debug$S                   0000000180000000     ucrt:api-ms-win-crt-runtime-l1-1-0.dll
 0000:fffbc000       .debug$S                   0000000180000000     Utility:Utility.dll
 0000:fffbc000       .debug$S                   0000000180000000     Utility:Utility.dll
 0000:fffbc000       .debug$S                   0000000180000000     NetMgr:NetMgr.dll
 0000:fffbc000       .debug$S                   0000000180000000     ucrt:api-ms-win-crt-runtime-l1-1-0.dll
 0000:fffbc000       .debug$S                   0000000180000000     ucrt:api-ms-win-crt-runtime-l1-1-0.dll
 0000:fffbc000       .debug$S                   0000000180000000     NetMgr:NetMgr.dll
 0000:fffbc000       .debug$S                   0000000180000000     ucrt:api-ms-win-crt-runtime-l1-1-0.dll
 0000:fffbc000       .debug$S                   0000000180000000     ucrt:api-ms-win-crt-runtime-l1-1-0.dll
 0000:fffbc000       .debug$S                   0000000180000000     NetMgr:NetMgr.dll
 0000:fffbc000       .debug$S                   0000000180000000     ucrt:api-ms-win-crt-runtime-l1-1-0.dll
 0000:fffbc000       .debug$S                   0000000180000000     NetMgr:NetMgr.dll
 0000:fffbc000       .debug$S                   0000000180000000     ucrt:api-ms-win-crt-runtime-l1-1-0.dll
 0000:fffbc000       .debug$S                   0000000180000000     NetMgr:NetMgr.dll
 0000:fffbc000       .debug$S                   0000000180000000     NetMgr:NetMgr.dll
 0000:fffbc000       .debug$S                   0000000180000000     NetMgr:NetMgr.dll
 0000:fffbc000       .debug$S                   0000000180000000     ucrt:api-ms-win-crt-stdio-l1-1-0.dll
 0000:fffbc000       .debug$S                   0000000180000000     ucrt:api-ms-win-crt-time-l1-1-0.dll
 0000:fffbc000       .debug$S                   0000000180000000     kernel32:KERNEL32.dll
 0000:fffbc000       .debug$S                   0000000180000000     ucrt:api-ms-win-crt-time-l1-1-0.dll
 0000:fffbc000       .debug$S                   0000000180000000     kernel32:KERNEL32.dll
 0000:fffbc000       .debug$S                   0000000180000000     ucrt:api-ms-win-crt-utility-l1-1-0.dll
 0000:fffbc000       .debug$S                   0000000180000000     ucrt:api-ms-win-crt-utility-l1-1-0.dll
 0000:fffbc000       .debug$S                   0000000180000000     kernel32:KERNEL32.dll
 0000:fffbc000       .debug$S                   0000000180000000     vcruntime:VCRUNTIME140.dll
 0000:fffbc000       .debug$S                   0000000180000000     vcruntime:VCRUNTIME140.dll
 0000:fffbc000       .debug$S                   0000000180000000     kernel32:KERNEL32.dll
 0000:fffbc000       .debug$S                   0000000180000000     vcruntime:VCRUNTIME140.dll
 0000:fffbc000       .debug$S                   0000000180000000     vcruntime:VCRUNTIME140.dll
 0000:fffbc000       .debug$S                   0000000180000000     vcruntime:VCRUNTIME140.dll
 0000:fffbc000       .debug$S                   0000000180000000     kernel32:KERNEL32.dll
 0000:fffbc000       .debug$S                   0000000180000000     vcruntime:VCRUNTIME140.dll
 0000:fffbc000       .debug$S                   0000000180000000     vcruntime:VCRUNTIME140.dll
 0000:fffbc000       .debug$S                   0000000180000000     vcruntime:VCRUNTIME140.dll
 0000:fffbc000       .debug$S                   0000000180000000     kernel32:KERNEL32.dll
 0000:fffbc000       .debug$S                   0000000180000000     vcruntime:VCRUNTIME140.dll
 0000:fffbc000       .debug$S                   0000000180000000     vcruntime:VCRUNTIME140.dll
 0000:fffbc000       .debug$S                   0000000180000000     vcruntime:VCRUNTIME140.dll
 0000:fffbc000       .debug$S                   0000000180000000     kernel32:KERNEL32.dll
 0000:fffbc000       .debug$S                   0000000180000000     kernel32:KERNEL32.dll
 0000:fffbc000       .debug$S                   0000000180000000     kernel32:KERNEL32.dll
 0000:fffbc000       .debug$S                   0000000180000000     vcruntime:VCRUNTIME140.dll
 0000:fffbc000       .debug$S                   0000000180000000     vcruntime:VCRUNTIME140.dll
 0000:fffbc000       .debug$S                   0000000180000000     vcruntime:VCRUNTIME140.dll
 0000:fffbc000       .debug$S                   0000000180000000     kernel32:KERNEL32.dll
 0000:fffbc000       .debug$S                   0000000180000000     vcruntime:VCRUNTIME140.dll
 0000:fffbc000       .debug$S                   0000000180000000     kernel32:KERNEL32.dll
 0000:fffbc000       .debug$S                   0000000180000000     kernel32:KERNEL32.dll
 0000:fffbc000       .debug$S                   0000000180000000     kernel32:KERNEL32.dll
 0000:fffbc000       .debug$S                   0000000180000000     kernel32:KERNEL32.dll
 0000:fffbc000       .debug$S                   0000000180000000     kernel32:KERNEL32.dll
 0000:fffbc000       .debug$S                   0000000180000000     kernel32:KERNEL32.dll
 0000:fffbc000       .debug$S                   0000000180000000     msvcprt:MSVCP140.dll
 0000:fffbc000       .debug$S                   0000000180000000     msvcprt:MSVCP140.dll
 0000:fffbc000       .debug$S                   0000000180000000     msvcprt:MSVCP140.dll
 0000:fffbc000       .debug$S                   0000000180000000     msvcprt:MSVCP140.dll
 0000:fffbc000       .debug$S                   0000000180000000     msvcprt:MSVCP140.dll
 0000:fffbc000       .debug$S                   0000000180000000     msvcprt:MSVCP140.dll
 0000:fffbc000       .debug$S                   0000000180000000     msvcprt:MSVCP140.dll
 0000:fffbc000       .debug$S                   0000000180000000     msvcprt:MSVCP140.dll
 0000:fffbc000       .debug$S                   0000000180000000     msvcprt:MSVCP140.dll
 0000:fffbc000       .debug$S                   0000000180000000     msvcprt:MSVCP140.dll
 0000:fffbc000       .debug$S                   0000000180000000     msvcprt:MSVCP140.dll
 0000:fffbc000       .debug$S                   0000000180000000     msvcprt:MSVCP140.dll
 0000:fffbc000       .debug$S                   0000000180000000     msvcprt:MSVCP140.dll
 0000:fffbc000       .debug$S                   0000000180000000     msvcprt:MSVCP140.dll
 0000:fffbc000       .debug$S                   0000000180000000     msvcprt:MSVCP140.dll
 0000:fffbc000       .debug$S                   0000000180000000     msvcprt:MSVCP140.dll
 0000:fffbc000       .debug$S                   0000000180000000     msvcprt:MSVCP140.dll
 0000:fffbc000       .debug$S                   0000000180000000     msvcprt:MSVCP140.dll
 0000:fffbc000       .debug$S                   0000000180000000     msvcprt:MSVCP140.dll
 0000:fffbc000       .debug$S                   0000000180000000     msvcprt:MSVCP140.dll
 0000:fffbc000       .debug$S                   0000000180000000     msvcprt:MSVCP140.dll
 0000:fffbc000       .debug$S                   0000000180000000     msvcprt:MSVCP140.dll
 0000:fffbc000       .debug$S                   0000000180000000     msvcprt:MSVCP140.dll
 0000:fffbc000       .debug$S                   0000000180000000     msvcprt:MSVCP140.dll
 0000:fffbc000       .debug$S                   0000000180000000     msvcprt:MSVCP140.dll
 0000:fffbc000       .debug$S                   0000000180000000     msvcprt:MSVCP140.dll
 0000:fffbc000       .debug$S                   0000000180000000     msvcprt:MSVCP140.dll
 0000:fffbc000       .debug$S                   0000000180000000     msvcprt:MSVCP140.dll
 0000:fffbc000       .debug$S                   0000000180000000     msvcprt:MSVCP140.dll
 0000:fffbc000       .debug$S                   0000000180000000     msvcprt:MSVCP140.dll
 0000:fffbc000       .debug$S                   0000000180000000     msvcprt:MSVCP140.dll
 0000:fffbc000       .debug$S                   0000000180000000     msvcprt:MSVCP140.dll
 0000:fffbc000       .debug$S                   0000000180000000     msvcprt:MSVCP140.dll
 0000:fffbc000       .debug$S                   0000000180000000     msvcprt:MSVCP140.dll
 0000:fffbc000       .debug$S                   0000000180000000     msvcprt:MSVCP140.dll
 0000:fffbc000       .debug$S                   0000000180000000     msvcprt:MSVCP140.dll
 0000:fffbc000       .debug$S                   0000000180000000     msvcprt:MSVCP140.dll
 0000:fffbc000       .debug$S                   0000000180000000     msvcprt:MSVCP140.dll
 0000:fffbc000       .debug$S                   0000000180000000     msvcprt:MSVCP140.dll
 0000:fffbc000       .debug$S                   0000000180000000     msvcprt:MSVCP140.dll
 0000:fffbc000       .debug$S                   0000000180000000     msvcprt:MSVCP140.dll
 0000:fffbc000       .debug$S                   0000000180000000     msvcprt:MSVCP140.dll
 0000:fffbc000       .debug$S                   0000000180000000     msvcprt:MSVCP140.dll
 0000:fffbc000       .debug$S                   0000000180000000     msvcprt:MSVCP140.dll
 0000:fffbc000       .debug$S                   0000000180000000     msvcprt:MSVCP140.dll
 0000:fffbc000       .debug$S                   0000000180000000     msvcprt:MSVCP140.dll
 0000:fffbc000       .debug$S                   0000000180000000     msvcprt:MSVCP140.dll
 0000:fffbc000       .debug$S                   0000000180000000     msvcprt:MSVCP140.dll
 0000:fffbc000       .debug$S                   0000000180000000     msvcprt:MSVCP140.dll
 0000:fffbc000       .debug$S                   0000000180000000     msvcprt:MSVCP140.dll
 0000:fffbc000       .debug$S                   0000000180000000     msvcprt:MSVCP140.dll
 0000:fffbc000       .debug$S                   0000000180000000     msvcprt:MSVCP140.dll
 0000:fffbc000       .debug$S                   0000000180000000     msvcprt:MSVCP140.dll
 0000:fffbc000       .debug$S                   0000000180000000     msvcprt:MSVCP140.dll
 0000:fffbc000       .debug$S                   0000000180000000     msvcprt:MSVCP140.dll
 0000:fffbc000       .debug$S                   0000000180000000     msvcprt:MSVCP140.dll
 0000:fffbc000       .debug$S                   0000000180000000     msvcprt:MSVCP140.dll
 0000:fffbc000       .debug$S                   0000000180000000     Ws2_32:WS2_32.dll
 0001:00000000       ??__Egc_nItemTypeDigital@NmConst@@YAXXZ 0000000180001000 f   Connector.obj
 0001:00000060       ??__Egc_nItemTypeAnalog@NmConst@@YAXXZ 0000000180001060 f   Connector.obj
 0001:000000c0       ??__Egc_nItemTypeConfig@NmConst@@YAXXZ 00000001800010c0 f   Connector.obj
 0001:00000120       ??__Egc_CtrQuit@NmConst@@YAXXZ 0000000180001120 f   Connector.obj
 0001:00000180       ??__Egc_CtrRestar@NmConst@@YAXXZ 0000000180001180 f   Connector.obj
 0001:000001e0       ??__Egc_CtrStar@NmConst@@YAXXZ 00000001800011e0 f   Connector.obj
 0001:00000240       ??__Egc_CtrDetach@NmConst@@YAXXZ 0000000180001240 f   Connector.obj
 0001:000002a0       ??__Egc_CtrAttach@NmConst@@YAXXZ 00000001800012a0 f   Connector.obj
 0001:00000300       ??__EmibCpuRadio@NmConst@@YAXXZ 0000000180001300 f   Connector.obj
 0001:00000360       ??__EmibEmsTotal@NmConst@@YAXXZ 0000000180001360 f   Connector.obj
 0001:000003c0       ??__EmibEmsUse@NmConst@@YAXXZ 00000001800013c0 f   Connector.obj
 0001:00000420       ??__EmibEmsRadio@NmConst@@YAXXZ 0000000180001420 f   Connector.obj
 0001:00000480       ??__EmibDiskNum@NmConst@@YAXXZ 0000000180001480 f   Connector.obj
 0001:000004e0       ??__EmibPartIndex@NmConst@@YAXXZ 00000001800014e0 f   Connector.obj
 0001:00000540       ??__EmibDiskPhyTotal@NmConst@@YAXXZ 0000000180001540 f   Connector.obj
 0001:000005a0       ??__EmibDisk_Used@NmConst@@YAXXZ 00000001800015a0 f   Connector.obj
 0001:00000600       ??__EmibDisk_Used_Ratio@NmConst@@YAXXZ 0000000180001600 f   Connector.obj
 0001:00000660       ??__Egc_sThreadNum@NmConst@@YAXXZ 0000000180001660 f   Connector.obj
 0001:000006c0       ??__Egc_sThreadIdx@NmConst@@YAXXZ 00000001800016c0 f   Connector.obj
 0001:00000720       ??__Egc_sThreadState@NmConst@@YAXXZ 0000000180001720 f   Connector.obj
 0001:00000780       ??__Egc_sTcpLocalIp@NmConst@@YAXXZ 0000000180001780 f   Connector.obj
 0001:000007e0       ??__Egc_sTcpLocalPort@NmConst@@YAXXZ 00000001800017e0 f   Connector.obj
 0001:00000840       ??__Egc_sTcpRemoteIp@NmConst@@YAXXZ 0000000180001840 f   Connector.obj
 0001:000008a0       ??__Egc_sTcpRemotePort@NmConst@@YAXXZ 00000001800018a0 f   Connector.obj
 0001:00000900       ??__Egc_sTcpState@NmConst@@YAXXZ 0000000180001900 f   Connector.obj
 0001:00000960       ??__Egc_sTcpInBytesAve@NmConst@@YAXXZ 0000000180001960 f   Connector.obj
 0001:000009c0       ??__Egc_sTcpOutBytesAve@NmConst@@YAXXZ 00000001800019c0 f   Connector.obj
 0001:00000a20       ??__Emib_NodeId@NmConst@@YAXXZ 0000000180001a20 f   Connector.obj
 0001:00000a80       ??__Emib_NodeSta@NmConst@@YAXXZ 0000000180001a80 f   Connector.obj
 0001:00000ae0       ??__Emib_NodeCtr@NmConst@@YAXXZ 0000000180001ae0 f   Connector.obj
 0001:00000b40       ??__EmibQueNum@NmConst@@YAXXZ 0000000180001b40 f   Connector.obj
 0001:00000ba0       ??__E?m_mutexSID@CConnector@@0VCGessMutex@@A@@YAXXZ 0000000180001ba0 f   Connector.obj
 0001:00000bd0       ??__Egc_nItemTypeDigital@NmConst@@YAXXZ 0000000180001bd0 f   Listener.obj
 0001:00000c30       ??__Egc_nItemTypeAnalog@NmConst@@YAXXZ 0000000180001c30 f   Listener.obj
 0001:00000c90       ??__Egc_nItemTypeConfig@NmConst@@YAXXZ 0000000180001c90 f   Listener.obj
 0001:00000cf0       ??__Egc_CtrQuit@NmConst@@YAXXZ 0000000180001cf0 f   Listener.obj
 0001:00000d50       ??__Egc_CtrRestar@NmConst@@YAXXZ 0000000180001d50 f   Listener.obj
 0001:00000db0       ??__Egc_CtrStar@NmConst@@YAXXZ 0000000180001db0 f   Listener.obj
 0001:00000e10       ??__Egc_CtrDetach@NmConst@@YAXXZ 0000000180001e10 f   Listener.obj
 0001:00000e70       ??__Egc_CtrAttach@NmConst@@YAXXZ 0000000180001e70 f   Listener.obj
 0001:00000ed0       ??__EmibCpuRadio@NmConst@@YAXXZ 0000000180001ed0 f   Listener.obj
 0001:00000f30       ??__EmibEmsTotal@NmConst@@YAXXZ 0000000180001f30 f   Listener.obj
 0001:00000f90       ??__EmibEmsUse@NmConst@@YAXXZ 0000000180001f90 f   Listener.obj
 0001:00000ff0       ??__EmibEmsRadio@NmConst@@YAXXZ 0000000180001ff0 f   Listener.obj
 0001:00001050       ??__EmibDiskNum@NmConst@@YAXXZ 0000000180002050 f   Listener.obj
 0001:000010b0       ??__EmibPartIndex@NmConst@@YAXXZ 00000001800020b0 f   Listener.obj
 0001:00001110       ??__EmibDiskPhyTotal@NmConst@@YAXXZ 0000000180002110 f   Listener.obj
 0001:00001170       ??__EmibDisk_Used@NmConst@@YAXXZ 0000000180002170 f   Listener.obj
 0001:000011d0       ??__EmibDisk_Used_Ratio@NmConst@@YAXXZ 00000001800021d0 f   Listener.obj
 0001:00001230       ??__Egc_sThreadNum@NmConst@@YAXXZ 0000000180002230 f   Listener.obj
 0001:00001290       ??__Egc_sThreadIdx@NmConst@@YAXXZ 0000000180002290 f   Listener.obj
 0001:000012f0       ??__Egc_sThreadState@NmConst@@YAXXZ 00000001800022f0 f   Listener.obj
 0001:00001350       ??__Egc_sTcpLocalIp@NmConst@@YAXXZ 0000000180002350 f   Listener.obj
 0001:000013b0       ??__Egc_sTcpLocalPort@NmConst@@YAXXZ 00000001800023b0 f   Listener.obj
 0001:00001410       ??__Egc_sTcpRemoteIp@NmConst@@YAXXZ 0000000180002410 f   Listener.obj
 0001:00001470       ??__Egc_sTcpRemotePort@NmConst@@YAXXZ 0000000180002470 f   Listener.obj
 0001:000014d0       ??__Egc_sTcpState@NmConst@@YAXXZ 00000001800024d0 f   Listener.obj
 0001:00001530       ??__Egc_sTcpInBytesAve@NmConst@@YAXXZ 0000000180002530 f   Listener.obj
 0001:00001590       ??__Egc_sTcpOutBytesAve@NmConst@@YAXXZ 0000000180002590 f   Listener.obj
 0001:000015f0       ??__Emib_NodeId@NmConst@@YAXXZ 00000001800025f0 f   Listener.obj
 0001:00001650       ??__Emib_NodeSta@NmConst@@YAXXZ 0000000180002650 f   Listener.obj
 0001:000016b0       ??__Emib_NodeCtr@NmConst@@YAXXZ 00000001800026b0 f   Listener.obj
 0001:00001710       ??__EmibQueNum@NmConst@@YAXXZ 0000000180002710 f   Listener.obj
 0001:00001770       ??__Egc_nItemTypeDigital@NmConst@@YAXXZ 0000000180002770 f   ProtocolComm.obj
 0001:000017d0       ??__Egc_nItemTypeAnalog@NmConst@@YAXXZ 00000001800027d0 f   ProtocolComm.obj
 0001:00001830       ??__Egc_nItemTypeConfig@NmConst@@YAXXZ 0000000180002830 f   ProtocolComm.obj
 0001:00001890       ??__Egc_CtrQuit@NmConst@@YAXXZ 0000000180002890 f   ProtocolComm.obj
 0001:000018f0       ??__Egc_CtrRestar@NmConst@@YAXXZ 00000001800028f0 f   ProtocolComm.obj
 0001:00001950       ??__Egc_CtrStar@NmConst@@YAXXZ 0000000180002950 f   ProtocolComm.obj
 0001:000019b0       ??__Egc_CtrDetach@NmConst@@YAXXZ 00000001800029b0 f   ProtocolComm.obj
 0001:00001a10       ??__Egc_CtrAttach@NmConst@@YAXXZ 0000000180002a10 f   ProtocolComm.obj
 0001:00001a70       ??__EmibCpuRadio@NmConst@@YAXXZ 0000000180002a70 f   ProtocolComm.obj
 0001:00001ad0       ??__EmibEmsTotal@NmConst@@YAXXZ 0000000180002ad0 f   ProtocolComm.obj
 0001:00001b30       ??__EmibEmsUse@NmConst@@YAXXZ 0000000180002b30 f   ProtocolComm.obj
 0001:00001b90       ??__EmibEmsRadio@NmConst@@YAXXZ 0000000180002b90 f   ProtocolComm.obj
 0001:00001bf0       ??__EmibDiskNum@NmConst@@YAXXZ 0000000180002bf0 f   ProtocolComm.obj
 0001:00001c50       ??__EmibPartIndex@NmConst@@YAXXZ 0000000180002c50 f   ProtocolComm.obj
 0001:00001cb0       ??__EmibDiskPhyTotal@NmConst@@YAXXZ 0000000180002cb0 f   ProtocolComm.obj
 0001:00001d10       ??__EmibDisk_Used@NmConst@@YAXXZ 0000000180002d10 f   ProtocolComm.obj
 0001:00001d70       ??__EmibDisk_Used_Ratio@NmConst@@YAXXZ 0000000180002d70 f   ProtocolComm.obj
 0001:00001dd0       ??__Egc_sThreadNum@NmConst@@YAXXZ 0000000180002dd0 f   ProtocolComm.obj
 0001:00001e30       ??__Egc_sThreadIdx@NmConst@@YAXXZ 0000000180002e30 f   ProtocolComm.obj
 0001:00001e90       ??__Egc_sThreadState@NmConst@@YAXXZ 0000000180002e90 f   ProtocolComm.obj
 0001:00001ef0       ??__Egc_sTcpLocalIp@NmConst@@YAXXZ 0000000180002ef0 f   ProtocolComm.obj
 0001:00001f50       ??__Egc_sTcpLocalPort@NmConst@@YAXXZ 0000000180002f50 f   ProtocolComm.obj
 0001:00001fb0       ??__Egc_sTcpRemoteIp@NmConst@@YAXXZ 0000000180002fb0 f   ProtocolComm.obj
 0001:00002010       ??__Egc_sTcpRemotePort@NmConst@@YAXXZ 0000000180003010 f   ProtocolComm.obj
 0001:00002070       ??__Egc_sTcpState@NmConst@@YAXXZ 0000000180003070 f   ProtocolComm.obj
 0001:000020d0       ??__Egc_sTcpInBytesAve@NmConst@@YAXXZ 00000001800030d0 f   ProtocolComm.obj
 0001:00002130       ??__Egc_sTcpOutBytesAve@NmConst@@YAXXZ 0000000180003130 f   ProtocolComm.obj
 0001:00002190       ??__Emib_NodeId@NmConst@@YAXXZ 0000000180003190 f   ProtocolComm.obj
 0001:000021f0       ??__Emib_NodeSta@NmConst@@YAXXZ 00000001800031f0 f   ProtocolComm.obj
 0001:00002250       ??__Emib_NodeCtr@NmConst@@YAXXZ 0000000180003250 f   ProtocolComm.obj
 0001:000022b0       ??__EmibQueNum@NmConst@@YAXXZ 00000001800032b0 f   ProtocolComm.obj
 0001:00002310       ??__E?m_mutexSingleton@?$CSingleton@VCSelectorListen@@@@0VCGessMutex@@A@@YAXXZ 0000000180003310 f   ProtocolComm.obj
 0001:00002340       ??__E?m_mutexSingleton@?$CSingleton@VCSelectorIo@@@@0VCGessMutex@@A@@YAXXZ 0000000180003340 f   ProtocolComm.obj
 0001:00002370       ??__Egc_nItemTypeDigital@NmConst@@YAXXZ 0000000180003370 f   ProtocolProcess.obj
 0001:000023d0       ??__Egc_nItemTypeAnalog@NmConst@@YAXXZ 00000001800033d0 f   ProtocolProcess.obj
 0001:00002430       ??__Egc_nItemTypeConfig@NmConst@@YAXXZ 0000000180003430 f   ProtocolProcess.obj
 0001:00002490       ??__Egc_CtrQuit@NmConst@@YAXXZ 0000000180003490 f   ProtocolProcess.obj
 0001:000024f0       ??__Egc_CtrRestar@NmConst@@YAXXZ 00000001800034f0 f   ProtocolProcess.obj
 0001:00002550       ??__Egc_CtrStar@NmConst@@YAXXZ 0000000180003550 f   ProtocolProcess.obj
 0001:000025b0       ??__Egc_CtrDetach@NmConst@@YAXXZ 00000001800035b0 f   ProtocolProcess.obj
 0001:00002610       ??__Egc_CtrAttach@NmConst@@YAXXZ 0000000180003610 f   ProtocolProcess.obj
 0001:00002670       ??__EmibCpuRadio@NmConst@@YAXXZ 0000000180003670 f   ProtocolProcess.obj
 0001:000026d0       ??__EmibEmsTotal@NmConst@@YAXXZ 00000001800036d0 f   ProtocolProcess.obj
 0001:00002730       ??__EmibEmsUse@NmConst@@YAXXZ 0000000180003730 f   ProtocolProcess.obj
 0001:00002790       ??__EmibEmsRadio@NmConst@@YAXXZ 0000000180003790 f   ProtocolProcess.obj
 0001:000027f0       ??__EmibDiskNum@NmConst@@YAXXZ 00000001800037f0 f   ProtocolProcess.obj
 0001:00002850       ??__EmibPartIndex@NmConst@@YAXXZ 0000000180003850 f   ProtocolProcess.obj
 0001:000028b0       ??__EmibDiskPhyTotal@NmConst@@YAXXZ 00000001800038b0 f   ProtocolProcess.obj
 0001:00002910       ??__EmibDisk_Used@NmConst@@YAXXZ 0000000180003910 f   ProtocolProcess.obj
 0001:00002970       ??__EmibDisk_Used_Ratio@NmConst@@YAXXZ 0000000180003970 f   ProtocolProcess.obj
 0001:000029d0       ??__Egc_sThreadNum@NmConst@@YAXXZ 00000001800039d0 f   ProtocolProcess.obj
 0001:00002a30       ??__Egc_sThreadIdx@NmConst@@YAXXZ 0000000180003a30 f   ProtocolProcess.obj
 0001:00002a90       ??__Egc_sThreadState@NmConst@@YAXXZ 0000000180003a90 f   ProtocolProcess.obj
 0001:00002af0       ??__Egc_sTcpLocalIp@NmConst@@YAXXZ 0000000180003af0 f   ProtocolProcess.obj
 0001:00002b50       ??__Egc_sTcpLocalPort@NmConst@@YAXXZ 0000000180003b50 f   ProtocolProcess.obj
 0001:00002bb0       ??__Egc_sTcpRemoteIp@NmConst@@YAXXZ 0000000180003bb0 f   ProtocolProcess.obj
 0001:00002c10       ??__Egc_sTcpRemotePort@NmConst@@YAXXZ 0000000180003c10 f   ProtocolProcess.obj
 0001:00002c70       ??__Egc_sTcpState@NmConst@@YAXXZ 0000000180003c70 f   ProtocolProcess.obj
 0001:00002cd0       ??__Egc_sTcpInBytesAve@NmConst@@YAXXZ 0000000180003cd0 f   ProtocolProcess.obj
 0001:00002d30       ??__Egc_sTcpOutBytesAve@NmConst@@YAXXZ 0000000180003d30 f   ProtocolProcess.obj
 0001:00002d90       ??__Emib_NodeId@NmConst@@YAXXZ 0000000180003d90 f   ProtocolProcess.obj
 0001:00002df0       ??__Emib_NodeSta@NmConst@@YAXXZ 0000000180003df0 f   ProtocolProcess.obj
 0001:00002e50       ??__Emib_NodeCtr@NmConst@@YAXXZ 0000000180003e50 f   ProtocolProcess.obj
 0001:00002eb0       ??__EmibQueNum@NmConst@@YAXXZ 0000000180003eb0 f   ProtocolProcess.obj
 0001:00002f10       ??__Egc_nItemTypeDigital@NmConst@@YAXXZ 0000000180003f10 f   Selector.obj
 0001:00002f70       ??__Egc_nItemTypeAnalog@NmConst@@YAXXZ 0000000180003f70 f   Selector.obj
 0001:00002fd0       ??__Egc_nItemTypeConfig@NmConst@@YAXXZ 0000000180003fd0 f   Selector.obj
 0001:00003030       ??__Egc_CtrQuit@NmConst@@YAXXZ 0000000180004030 f   Selector.obj
 0001:00003090       ??__Egc_CtrRestar@NmConst@@YAXXZ 0000000180004090 f   Selector.obj
 0001:000030f0       ??__Egc_CtrStar@NmConst@@YAXXZ 00000001800040f0 f   Selector.obj
 0001:00003150       ??__Egc_CtrDetach@NmConst@@YAXXZ 0000000180004150 f   Selector.obj
 0001:000031b0       ??__Egc_CtrAttach@NmConst@@YAXXZ 00000001800041b0 f   Selector.obj
 0001:00003210       ??__EmibCpuRadio@NmConst@@YAXXZ 0000000180004210 f   Selector.obj
 0001:00003270       ??__EmibEmsTotal@NmConst@@YAXXZ 0000000180004270 f   Selector.obj
 0001:000032d0       ??__EmibEmsUse@NmConst@@YAXXZ 00000001800042d0 f   Selector.obj
 0001:00003330       ??__EmibEmsRadio@NmConst@@YAXXZ 0000000180004330 f   Selector.obj
 0001:00003390       ??__EmibDiskNum@NmConst@@YAXXZ 0000000180004390 f   Selector.obj
 0001:000033f0       ??__EmibPartIndex@NmConst@@YAXXZ 00000001800043f0 f   Selector.obj
 0001:00003450       ??__EmibDiskPhyTotal@NmConst@@YAXXZ 0000000180004450 f   Selector.obj
 0001:000034b0       ??__EmibDisk_Used@NmConst@@YAXXZ 00000001800044b0 f   Selector.obj
 0001:00003510       ??__EmibDisk_Used_Ratio@NmConst@@YAXXZ 0000000180004510 f   Selector.obj
 0001:00003570       ??__Egc_sThreadNum@NmConst@@YAXXZ 0000000180004570 f   Selector.obj
 0001:000035d0       ??__Egc_sThreadIdx@NmConst@@YAXXZ 00000001800045d0 f   Selector.obj
 0001:00003630       ??__Egc_sThreadState@NmConst@@YAXXZ 0000000180004630 f   Selector.obj
 0001:00003690       ??__Egc_sTcpLocalIp@NmConst@@YAXXZ 0000000180004690 f   Selector.obj
 0001:000036f0       ??__Egc_sTcpLocalPort@NmConst@@YAXXZ 00000001800046f0 f   Selector.obj
 0001:00003750       ??__Egc_sTcpRemoteIp@NmConst@@YAXXZ 0000000180004750 f   Selector.obj
 0001:000037b0       ??__Egc_sTcpRemotePort@NmConst@@YAXXZ 00000001800047b0 f   Selector.obj
 0001:00003810       ??__Egc_sTcpState@NmConst@@YAXXZ 0000000180004810 f   Selector.obj
 0001:00003870       ??__Egc_sTcpInBytesAve@NmConst@@YAXXZ 0000000180004870 f   Selector.obj
 0001:000038d0       ??__Egc_sTcpOutBytesAve@NmConst@@YAXXZ 00000001800048d0 f   Selector.obj
 0001:00003930       ??__Emib_NodeId@NmConst@@YAXXZ 0000000180004930 f   Selector.obj
 0001:00003990       ??__Emib_NodeSta@NmConst@@YAXXZ 0000000180004990 f   Selector.obj
 0001:000039f0       ??__Emib_NodeCtr@NmConst@@YAXXZ 00000001800049f0 f   Selector.obj
 0001:00003a50       ??__EmibQueNum@NmConst@@YAXXZ 0000000180004a50 f   Selector.obj
 0001:00003ab0       ??__Egc_nItemTypeDigital@NmConst@@YAXXZ 0000000180004ab0 f   WorkThreadNm.obj
 0001:00003b10       ??__Egc_nItemTypeAnalog@NmConst@@YAXXZ 0000000180004b10 f   WorkThreadNm.obj
 0001:00003b70       ??__Egc_nItemTypeConfig@NmConst@@YAXXZ 0000000180004b70 f   WorkThreadNm.obj
 0001:00003bd0       ??__Egc_CtrQuit@NmConst@@YAXXZ 0000000180004bd0 f   WorkThreadNm.obj
 0001:00003c30       ??__Egc_CtrRestar@NmConst@@YAXXZ 0000000180004c30 f   WorkThreadNm.obj
 0001:00003c90       ??__Egc_CtrStar@NmConst@@YAXXZ 0000000180004c90 f   WorkThreadNm.obj
 0001:00003cf0       ??__Egc_CtrDetach@NmConst@@YAXXZ 0000000180004cf0 f   WorkThreadNm.obj
 0001:00003d50       ??__Egc_CtrAttach@NmConst@@YAXXZ 0000000180004d50 f   WorkThreadNm.obj
 0001:00003db0       ??__EmibCpuRadio@NmConst@@YAXXZ 0000000180004db0 f   WorkThreadNm.obj
 0001:00003e10       ??__EmibEmsTotal@NmConst@@YAXXZ 0000000180004e10 f   WorkThreadNm.obj
 0001:00003e70       ??__EmibEmsUse@NmConst@@YAXXZ 0000000180004e70 f   WorkThreadNm.obj
 0001:00003ed0       ??__EmibEmsRadio@NmConst@@YAXXZ 0000000180004ed0 f   WorkThreadNm.obj
 0001:00003f30       ??__EmibDiskNum@NmConst@@YAXXZ 0000000180004f30 f   WorkThreadNm.obj
 0001:00003f90       ??__EmibPartIndex@NmConst@@YAXXZ 0000000180004f90 f   WorkThreadNm.obj
 0001:00003ff0       ??__EmibDiskPhyTotal@NmConst@@YAXXZ 0000000180004ff0 f   WorkThreadNm.obj
 0001:00004050       ??__EmibDisk_Used@NmConst@@YAXXZ 0000000180005050 f   WorkThreadNm.obj
 0001:000040b0       ??__EmibDisk_Used_Ratio@NmConst@@YAXXZ 00000001800050b0 f   WorkThreadNm.obj
 0001:00004110       ??__Egc_sThreadNum@NmConst@@YAXXZ 0000000180005110 f   WorkThreadNm.obj
 0001:00004170       ??__Egc_sThreadIdx@NmConst@@YAXXZ 0000000180005170 f   WorkThreadNm.obj
 0001:000041d0       ??__Egc_sThreadState@NmConst@@YAXXZ 00000001800051d0 f   WorkThreadNm.obj
 0001:00004230       ??__Egc_sTcpLocalIp@NmConst@@YAXXZ 0000000180005230 f   WorkThreadNm.obj
 0001:00004290       ??__Egc_sTcpLocalPort@NmConst@@YAXXZ 0000000180005290 f   WorkThreadNm.obj
 0001:000042f0       ??__Egc_sTcpRemoteIp@NmConst@@YAXXZ 00000001800052f0 f   WorkThreadNm.obj
 0001:00004350       ??__Egc_sTcpRemotePort@NmConst@@YAXXZ 0000000180005350 f   WorkThreadNm.obj
 0001:000043b0       ??__Egc_sTcpState@NmConst@@YAXXZ 00000001800053b0 f   WorkThreadNm.obj
 0001:00004410       ??__Egc_sTcpInBytesAve@NmConst@@YAXXZ 0000000180005410 f   WorkThreadNm.obj
 0001:00004470       ??__Egc_sTcpOutBytesAve@NmConst@@YAXXZ 0000000180005470 f   WorkThreadNm.obj
 0001:000044d0       ??__Emib_NodeId@NmConst@@YAXXZ 00000001800054d0 f   WorkThreadNm.obj
 0001:00004530       ??__Emib_NodeSta@NmConst@@YAXXZ 0000000180005530 f   WorkThreadNm.obj
 0001:00004590       ??__Emib_NodeCtr@NmConst@@YAXXZ 0000000180005590 f   WorkThreadNm.obj
 0001:000045f0       ??__EmibQueNum@NmConst@@YAXXZ 00000001800055f0 f   WorkThreadNm.obj
 0001:00004650       ??__E?m_mutexSID@CWorkThreadNm@@0VCGessMutex@@A@@YAXXZ 0000000180005650 f   WorkThreadNm.obj
 0001:0001bd74       ?dllmain_crt_dispatch@@YAHQEAUHINSTANCE__@@KQEAX@Z 000000018001cd74 f   MSVCRT:dll_dllmain.obj
 0001:0001bdc4       ?dllmain_crt_process_attach@@YAHQEAUHINSTANCE__@@QEAX@Z 000000018001cdc4 f   MSVCRT:dll_dllmain.obj
 0001:0001bef0       ?dllmain_crt_process_detach@@YAH_N@Z 000000018001cef0 f   MSVCRT:dll_dllmain.obj
 0001:0001bf74       ?dllmain_dispatch@@YAHQEAUHINSTANCE__@@KQEAX@Z 000000018001cf74 f   MSVCRT:dll_dllmain.obj
 0001:0001c090       ?dllmain_raw@@YAHQEAUHINSTANCE__@@KQEAX@Z 000000018001d090 f   MSVCRT:dll_dllmain.obj
 0001:0001c840       $$000000                   000000018001d840     MSVCRT:_guard_dispatch_.obj
 0001:0001c860       ?dtor$0@?0???1CAction@@UEAA@XZ@4HA 000000018001d860 f   Connector.obj
 0001:0001c860       ?dtor$0@?0???0CAction@@QEAA@XZ@4HA 000000018001d860 f   Connector.obj
 0001:0001c860       ?dtor$0@?0???_ECAction@@UEAAPEAXI@Z@4HA 000000018001d860 f   Connector.obj
 0001:0001c880       ?dtor$0@?0???0CAction@@QEAA@AEBV0@@Z@4HA 000000018001d880 f   Connector.obj
 0001:0001c8a0       ?dtor$1@?0???0CProtocolComm@@QEAA@XZ@4HA 000000018001d8a0 f   Connector.obj
 0001:0001c8b2       ?dtor$0@?0???0CProtocolComm@@QEAA@XZ@4HA 000000018001d8b2 f   Connector.obj
 0001:0001c8c0       ?dtor$0@?0???_ECProtocolComm@@UEAAPEAXI@Z@4HA 000000018001d8c0 f   Connector.obj
 0001:0001c8c0       ?dtor$0@?0???1CProtocolComm@@UEAA@XZ@4HA 000000018001d8c0 f   Connector.obj
 0001:0001c8cc       ?dtor$1@?0???1CProtocolComm@@UEAA@XZ@4HA 000000018001d8cc f   Connector.obj
 0001:0001c8cc       ?dtor$1@?0???_ECProtocolComm@@UEAAPEAXI@Z@4HA 000000018001d8cc f   Connector.obj
 0001:0001c8e0       ?dtor$1@?0???0CProtocolComm@@QEAA@AEBV0@@Z@4HA 000000018001d8e0 f   Connector.obj
 0001:0001c8f2       ?dtor$0@?0???0CProtocolComm@@QEAA@AEBV0@@Z@4HA 000000018001d8f2 f   Connector.obj
 0001:0001c900       ?dtor$2@?0???0CAio@@QEAA@XZ@4HA 000000018001d900 f   Connector.obj
 0001:0001c90c       ?dtor$0@?0???0CAio@@QEAA@XZ@4HA 000000018001d90c f   Connector.obj
 0001:0001c91c       ?dtor$1@?0???0CAio@@QEAA@XZ@4HA 000000018001d91c f   Connector.obj
 0001:0001c930       ?dtor$0@?0???1CAio@@UEAA@XZ@4HA 000000018001d930 f   Connector.obj
 0001:0001c944       ?dtor$1@?0???1CAio@@UEAA@XZ@4HA 000000018001d944 f   Connector.obj
 0001:0001c95a       ?dtor$2@?0???1CAio@@UEAA@XZ@4HA 000000018001d95a f   Connector.obj
 0001:0001c970       ?dtor$0@?0???0CAio@@QEAA@AEBV0@@Z@4HA 000000018001d970 f   Connector.obj
 0001:0001c980       ?dtor$1@?0???0CAio@@QEAA@AEBV0@@Z@4HA 000000018001d980 f   Connector.obj
 0001:0001c9a0       ?dtor$0@?0???_ECWorkThreadNm@@UEAAPEAXI@Z@4HA 000000018001d9a0 f   Connector.obj
 0001:0001c9a0       ?dtor$0@?0???0CWorkThreadNm@@QEAA@AEBV0@@Z@4HA 000000018001d9a0 f   Connector.obj
 0001:0001c9a0       ?dtor$0@?0???1CWorkThreadNm@@UEAA@XZ@4HA 000000018001d9a0 f   WorkThreadNm.obj
 0001:0001c9a0       ?dtor$0@?0???0CWorkThreadNm@@QEAA@XZ@4HA 000000018001d9a0 f   WorkThreadNm.obj
 0001:0001c9ae       ?dtor$1@?0???_ECWorkThreadNm@@UEAAPEAXI@Z@4HA 000000018001d9ae f   Connector.obj
 0001:0001c9ae       ?dtor$1@?0???0CWorkThreadNm@@QEAA@XZ@4HA 000000018001d9ae f   WorkThreadNm.obj
 0001:0001c9ae       ?dtor$1@?0???1CWorkThreadNm@@UEAA@XZ@4HA 000000018001d9ae f   WorkThreadNm.obj
 0001:0001c9ae       ?dtor$1@?0???0CWorkThreadNm@@QEAA@AEBV0@@Z@4HA 000000018001d9ae f   Connector.obj
 0001:0001c9be       ?dtor$2@?0???1CWorkThreadNm@@UEAA@XZ@4HA 000000018001d9be f   WorkThreadNm.obj
 0001:0001c9be       ?dtor$2@?0???0CWorkThreadNm@@QEAA@XZ@4HA 000000018001d9be f   WorkThreadNm.obj
 0001:0001c9be       ?dtor$2@?0???0CWorkThreadNm@@QEAA@AEBV0@@Z@4HA 000000018001d9be f   Connector.obj
 0001:0001c9be       ?dtor$2@?0???_ECWorkThreadNm@@UEAAPEAXI@Z@4HA 000000018001d9be f   Connector.obj
 0001:0001c9ce       ?dtor$3@?0???0CWorkThreadNm@@QEAA@XZ@4HA 000000018001d9ce f   WorkThreadNm.obj
 0001:0001c9ce       ?dtor$3@?0???_ECWorkThreadNm@@UEAAPEAXI@Z@4HA 000000018001d9ce f   Connector.obj
 0001:0001c9ce       ?dtor$3@?0???1CWorkThreadNm@@UEAA@XZ@4HA 000000018001d9ce f   WorkThreadNm.obj
 0001:0001c9ce       ?dtor$3@?0???0CWorkThreadNm@@QEAA@AEBV0@@Z@4HA 000000018001d9ce f   Connector.obj
 0001:0001c9e0       ?dtor$0@?0???0CConnector@@QEAA@AEBV0@@Z@4HA 000000018001d9e0 f   Connector.obj
 0001:0001c9ec       ?dtor$5@?0???0CConnector@@QEAA@AEBV0@@Z@4HA 000000018001d9ec f   Connector.obj
 0001:0001c9fe       ?dtor$1@?0???0CConnector@@QEAA@AEBV0@@Z@4HA 000000018001d9fe f   Connector.obj
 0001:0001ca0e       ?dtor$2@?0???0CConnector@@QEAA@AEBV0@@Z@4HA 000000018001da0e f   Connector.obj
 0001:0001ca21       ?dtor$3@?0???0CConnector@@QEAA@AEBV0@@Z@4HA 000000018001da21 f   Connector.obj
 0001:0001ca36       ?dtor$4@?0???0CConnector@@QEAA@AEBV0@@Z@4HA 000000018001da36 f   Connector.obj
 0001:0001ca50       ?dtor$0@?0???0CListener@@QEAA@PEAVCProtocolCommServer@@@Z@4HA 000000018001da50 f   Listener.obj
 0001:0001ca50       ?dtor$0@?0???0CListener@@QEAA@AEBV0@@Z@4HA 000000018001da50 f   Connector.obj
 0001:0001ca60       ?dtor$0@?0???1CProtocolCommWorker@CProtocolCommImp@@UEAA@XZ@4HA 000000018001da60 f   Connector.obj
 0001:0001ca6c       ?dtor$1@?0???1CProtocolCommWorker@CProtocolCommImp@@UEAA@XZ@4HA 000000018001da6c f   Connector.obj
 0001:0001ca7f       ?dtor$2@?0???1CProtocolCommWorker@CProtocolCommImp@@UEAA@XZ@4HA 000000018001da7f f   Connector.obj
 0001:0001ca94       ?dtor$3@?0???1CProtocolCommWorker@CProtocolCommImp@@UEAA@XZ@4HA 000000018001da94 f   Connector.obj
 0001:0001caa0       ?dtor$4@?0???1CProtocolCommWorker@CProtocolCommImp@@UEAA@XZ@4HA 000000018001daa0 f   Connector.obj
 0001:0001caae       ?dtor$5@?0???1CProtocolCommWorker@CProtocolCommImp@@UEAA@XZ@4HA 000000018001daae f   Connector.obj
 0001:0001cabe       ?dtor$6@?0???1CProtocolCommWorker@CProtocolCommImp@@UEAA@XZ@4HA 000000018001dabe f   Connector.obj
 0001:0001cace       ?dtor$7@?0???1CProtocolCommWorker@CProtocolCommImp@@UEAA@XZ@4HA 000000018001dace f   Connector.obj
 0001:0001cae0       ?catch$0@?0??ThreadEntry@CProtocolCommWorker@CProtocolCommImp@@EEAAHXZ@4HA 000000018001dae0 f   Connector.obj
 0001:0001caed       __catch$?ThreadEntry@CProtocolCommWorker@CProtocolCommImp@@EEAAHXZ$0 000000018001daed f   Connector.obj
 0001:0001cb3d       ?catch$1@?0??ThreadEntry@CProtocolCommWorker@CProtocolCommImp@@EEAAHXZ@4HA 000000018001db3d f   Connector.obj
 0001:0001cb4a       __catch$?ThreadEntry@CProtocolCommWorker@CProtocolCommImp@@EEAAHXZ$2 000000018001db4a f   Connector.obj
 0001:0001cb9a       ?catch$2@?0??ThreadEntry@CProtocolCommWorker@CProtocolCommImp@@EEAAHXZ@4HA 000000018001db9a f   Connector.obj
 0001:0001cba7       __catch$?ThreadEntry@CProtocolCommWorker@CProtocolCommImp@@EEAAHXZ$4 000000018001dba7 f   Connector.obj
 0001:0001cc20       ?dtor$0@?0??ThreadEntry@CProtocolCommWorker@CProtocolCommImp@@EEAAHXZ@4HA 000000018001dc20 f   Connector.obj
 0001:0001cc2c       ?catch$3@?0??ThreadEntry@CProtocolCommWorker@CProtocolCommImp@@EEAAHXZ@4HA 000000018001dc2c f   Connector.obj
 0001:0001cc39       __catch$?ThreadEntry@CProtocolCommWorker@CProtocolCommImp@@EEAAHXZ$5 000000018001dc39 f   Connector.obj
 0001:0001cc90       ?dtor$6@?0???0CProtocolCommImp@@QEAA@AEBV0@@Z@4HA 000000018001dc90 f   Connector.obj
 0001:0001cca2       ?dtor$5@?0???0CProtocolCommImp@@QEAA@AEBV0@@Z@4HA 000000018001dca2 f   Connector.obj
 0001:0001ccae       ?dtor$0@?0???0CProtocolCommImp@@QEAA@AEBV0@@Z@4HA 000000018001dcae f   Connector.obj
 0001:0001ccba       ?dtor$1@?0???0CProtocolCommImp@@QEAA@AEBV0@@Z@4HA 000000018001dcba f   Connector.obj
 0001:0001ccca       ?dtor$7@?0???0CProtocolCommImp@@QEAA@AEBV0@@Z@4HA 000000018001dcca f   Connector.obj
 0001:0001ccd6       ?dtor$8@?0???0CProtocolCommImp@@QEAA@AEBV0@@Z@4HA 000000018001dcd6 f   Connector.obj
 0001:0001cce9       ?dtor$9@?0???0CProtocolCommImp@@QEAA@AEBV0@@Z@4HA 000000018001dce9 f   Connector.obj
 0001:0001ccfe       ?dtor$2@?0???0CProtocolCommImp@@QEAA@AEBV0@@Z@4HA 000000018001dcfe f   Connector.obj
 0001:0001cd0e       ?dtor$10@?0???0CProtocolCommImp@@QEAA@AEBV0@@Z@4HA 000000018001dd0e f   Connector.obj
 0001:0001cd1a       ?dtor$3@?0???0CProtocolCommImp@@QEAA@AEBV0@@Z@4HA 000000018001dd1a f   Connector.obj
 0001:0001cd2d       ?dtor$4@?0???0CProtocolCommImp@@QEAA@AEBV0@@Z@4HA 000000018001dd2d f   Connector.obj
 0001:0001cd50       ?dtor$0@?0???1?$map@_KPEAUtagKeyContex@@U?$less@_K@std@@V?$allocator@U?$pair@$$CB_KPEAUtagKeyContex@@@std@@@3@@std@@QEAA@XZ@4HA 000000018001dd50 f   Connector.obj
 0001:0001cd50       ?dtor$0@?0???1?$map@_KPEAXU?$less@_K@std@@V?$allocator@U?$pair@$$CB_KPEAX@std@@@2@@std@@QEAA@XZ@4HA 000000018001dd50 f   ProtocolComm.obj
 0001:0001cd5c       ?dtor$1@?0???1?$map@_KPEAXU?$less@_K@std@@V?$allocator@U?$pair@$$CB_KPEAX@std@@@2@@std@@QEAA@XZ@4HA 000000018001dd5c f   ProtocolComm.obj
 0001:0001cd5c       ?dtor$1@?0???1?$map@_KPEAUtagKeyContex@@U?$less@_K@std@@V?$allocator@U?$pair@$$CB_KPEAUtagKeyContex@@@std@@@3@@std@@QEAA@XZ@4HA 000000018001dd5c f   Connector.obj
 0001:0001cd70       ?dtor$0@?0???0CProtocolCommServer@@QEAA@AEBV0@@Z@4HA 000000018001dd70 f   Connector.obj
 0001:0001cd70       ?dtor$0@?0???0CProtocolCommServer@@QEAA@XZ@4HA 000000018001dd70 f   ProtocolComm.obj
 0001:0001cd70       ?dtor$0@?0???0CProtocolCommClient@@QEAA@AEBV0@@Z@4HA 000000018001dd70 f   Connector.obj
 0001:0001cd70       ?dtor$0@?0???1CProtocolCommServer@@UEAA@XZ@4HA 000000018001dd70 f   ProtocolComm.obj
 0001:0001cd70       ?dtor$0@?0???1CProtocolCommClient@@UEAA@XZ@4HA 000000018001dd70 f   ProtocolComm.obj
 0001:0001cd70       ?dtor$0@?0???0CProtocolCommClient@@QEAA@XZ@4HA 000000018001dd70 f   ProtocolComm.obj
 0001:0001cd80       ?dtor$0@?0???0CTcpShortComm@@QEAA@XZ@4HA 000000018001dd80 f   Connector.obj
 0001:0001cd90       ?dtor$1@?0???0CTcpShortComm@@QEAA@XZ@4HA 000000018001dd90 f   Connector.obj
 0001:0001cda2       ?dtor$3@?0???0CTcpShortComm@@QEAA@XZ@4HA 000000018001dda2 f   Connector.obj
 0001:0001cdb2       ?dtor$4@?0???0CTcpShortComm@@QEAA@XZ@4HA 000000018001ddb2 f   Connector.obj
 0001:0001cdc2       ?dtor$5@?0???0CTcpShortComm@@QEAA@XZ@4HA 000000018001ddc2 f   Connector.obj
 0001:0001cdd2       ?dtor$2@?0???0CTcpShortComm@@QEAA@XZ@4HA 000000018001ddd2 f   Connector.obj
 0001:0001cdf0       ?dtor$0@?0???1CTcpShortComm@@UEAA@XZ@4HA 000000018001ddf0 f   Connector.obj
 0001:0001ce00       ?dtor$1@?0???1CTcpShortComm@@UEAA@XZ@4HA 000000018001de00 f   Connector.obj
 0001:0001ce12       ?dtor$2@?0???1CTcpShortComm@@UEAA@XZ@4HA 000000018001de12 f   Connector.obj
 0001:0001ce22       ?dtor$3@?0???1CTcpShortComm@@UEAA@XZ@4HA 000000018001de22 f   Connector.obj
 0001:0001ce32       ?dtor$4@?0???1CTcpShortComm@@UEAA@XZ@4HA 000000018001de32 f   Connector.obj
 0001:0001ce42       ?dtor$5@?0???1CTcpShortComm@@UEAA@XZ@4HA 000000018001de42 f   Connector.obj
 0001:0001ce60       ?dtor$0@?0???0CTcpShortComm@@QEAA@AEBV0@@Z@4HA 000000018001de60 f   Connector.obj
 0001:0001ce70       ?dtor$1@?0???0CTcpShortComm@@QEAA@AEBV0@@Z@4HA 000000018001de70 f   Connector.obj
 0001:0001ce82       ?dtor$2@?0???0CTcpShortComm@@QEAA@AEBV0@@Z@4HA 000000018001de82 f   Connector.obj
 0001:0001cea0       ?dtor$0@?0???0tagProxyData@CTcpShortComm@@QEAA@AEBU01@@Z@4HA 000000018001dea0 f   Connector.obj
 0001:0001cea0       ?dtor$0@?0???1tagProxyData@CTcpShortComm@@QEAA@XZ@4HA 000000018001dea0 f   Connector.obj
 0001:0001ceb0       ?dtor$1@?0???1tagProxyData@CTcpShortComm@@QEAA@XZ@4HA 000000018001deb0 f   Connector.obj
 0001:0001ceb0       ?dtor$1@?0???0tagProxyData@CTcpShortComm@@QEAA@AEBU01@@Z@4HA 000000018001deb0 f   Connector.obj
 0001:0001cec0       ?dtor$2@?0???1tagProxyData@CTcpShortComm@@QEAA@XZ@4HA 000000018001dec0 f   Connector.obj
 0001:0001cec0       ?dtor$2@?0???0tagProxyData@CTcpShortComm@@QEAA@AEBU01@@Z@4HA 000000018001dec0 f   Connector.obj
 0001:0001ced0       ?dtor$0@?0???0CConnector@@QEAA@PEAVCProtocolCommClient@@@Z@4HA 000000018001ded0 f   Connector.obj
 0001:0001cedc       ?dtor$5@?0???0CConnector@@QEAA@PEAVCProtocolCommClient@@@Z@4HA 000000018001dedc f   Connector.obj
 0001:0001ceee       ?dtor$1@?0???0CConnector@@QEAA@PEAVCProtocolCommClient@@@Z@4HA 000000018001deee f   Connector.obj
 0001:0001cefe       ?dtor$2@?0???0CConnector@@QEAA@PEAVCProtocolCommClient@@@Z@4HA 000000018001defe f   Connector.obj
 0001:0001cf11       ?dtor$3@?0???0CConnector@@QEAA@PEAVCProtocolCommClient@@@Z@4HA 000000018001df11 f   Connector.obj
 0001:0001cf26       ?dtor$4@?0???0CConnector@@QEAA@PEAVCProtocolCommClient@@@Z@4HA 000000018001df26 f   Connector.obj
 0001:0001cf40       ?dtor$0@?0???1CConnector@@UEAA@XZ@4HA 000000018001df40 f   Connector.obj
 0001:0001cf4c       ?dtor$1@?0???1CConnector@@UEAA@XZ@4HA 000000018001df4c f   Connector.obj
 0001:0001cf5c       ?dtor$2@?0???1CConnector@@UEAA@XZ@4HA 000000018001df5c f   Connector.obj
 0001:0001cf6f       ?dtor$3@?0???1CConnector@@UEAA@XZ@4HA 000000018001df6f f   Connector.obj
 0001:0001cf84       ?dtor$4@?0???1CConnector@@UEAA@XZ@4HA 000000018001df84 f   Connector.obj
 0001:0001cf99       ?dtor$5@?0???1CConnector@@UEAA@XZ@4HA 000000018001df99 f   Connector.obj
 0001:0001cfab       ?dtor$6@?0???1CConnector@@UEAA@XZ@4HA 000000018001dfab f   Connector.obj
 0001:0001cfb9       ?dtor$7@?0???1CConnector@@UEAA@XZ@4HA 000000018001dfb9 f   Connector.obj
 0001:0001cfc9       ?dtor$8@?0???1CConnector@@UEAA@XZ@4HA 000000018001dfc9 f   Connector.obj
 0001:0001cfd9       ?dtor$9@?0???1CConnector@@UEAA@XZ@4HA 000000018001dfd9 f   Connector.obj
 0001:0001cff0       ?dtor$0@?0??Init@CConnector@@UEAAHPEAVCConfig@@@Z@4HA 000000018001dff0 f   Connector.obj
 0001:0001cffc       ?dtor$1@?0??Init@CConnector@@UEAAHPEAVCConfig@@@Z@4HA 000000018001dffc f   Connector.obj
 0001:0001d008       ?dtor$2@?0??Init@CConnector@@UEAAHPEAVCConfig@@@Z@4HA 000000018001e008 f   Connector.obj
 0001:0001d014       ?dtor$3@?0??Init@CConnector@@UEAAHPEAVCConfig@@@Z@4HA 000000018001e014 f   Connector.obj
 0001:0001d020       ?dtor$4@?0??Init@CConnector@@UEAAHPEAVCConfig@@@Z@4HA 000000018001e020 f   Connector.obj
 0001:0001d02c       ?dtor$5@?0??Init@CConnector@@UEAAHPEAVCConfig@@@Z@4HA 000000018001e02c f   Connector.obj
 0001:0001d038       ?dtor$6@?0??Init@CConnector@@UEAAHPEAVCConfig@@@Z@4HA 000000018001e038 f   Connector.obj
 0001:0001d044       ?dtor$7@?0??Init@CConnector@@UEAAHPEAVCConfig@@@Z@4HA 000000018001e044 f   Connector.obj
 0001:0001d050       ?dtor$8@?0??Init@CConnector@@UEAAHPEAVCConfig@@@Z@4HA 000000018001e050 f   Connector.obj
 0001:0001d05c       ?dtor$9@?0??Init@CConnector@@UEAAHPEAVCConfig@@@Z@4HA 000000018001e05c f   Connector.obj
 0001:0001d068       ?dtor$10@?0??Init@CConnector@@UEAAHPEAVCConfig@@@Z@4HA 000000018001e068 f   Connector.obj
 0001:0001d074       ?dtor$11@?0??Init@CConnector@@UEAAHPEAVCConfig@@@Z@4HA 000000018001e074 f   Connector.obj
 0001:0001d080       ?dtor$12@?0??Init@CConnector@@UEAAHPEAVCConfig@@@Z@4HA 000000018001e080 f   Connector.obj
 0001:0001d08c       ?dtor$14@?0??Init@CConnector@@UEAAHPEAVCConfig@@@Z@4HA 000000018001e08c f   Connector.obj
 0001:0001d098       ?dtor$13@?0??Init@CConnector@@UEAAHPEAVCConfig@@@Z@4HA 000000018001e098 f   Connector.obj
 0001:0001d0a4       ?dtor$15@?0??Init@CConnector@@UEAAHPEAVCConfig@@@Z@4HA 000000018001e0a4 f   Connector.obj
 0001:0001d0b0       ?dtor$0@?0???1?$pair@V?$basic_string@DU?$char_traits@D@std@@V?$allocator@D@2@@std@@H@std@@QEAA@XZ@4HA 000000018001e0b0 f   Connector.obj
 0001:0001d0b0       ?dtor$0@?0??_Destroy@?$vector@U?$pair@V?$basic_string@DU?$char_traits@D@std@@V?$allocator@D@2@@std@@H@std@@V?$allocator@U?$pair@V?$basic_string@DU?$char_traits@D@std@@V?$allocator@D@2@@std@@H@std@@@2@@std@@IEAAXPEAU?$pair@V?$basic_string@DU?$char_traits@D@std@@V?$allocator@D@2@@std@@H@2@0@Z@4HA 000000018001e0b0 f   Connector.obj
 0001:0001d0b0       ?dtor$0@?0??_Tidy@?$vector@U?$pair@V?$basic_string@DU?$char_traits@D@std@@V?$allocator@D@2@@std@@H@std@@V?$allocator@U?$pair@V?$basic_string@DU?$char_traits@D@std@@V?$allocator@D@2@@std@@H@std@@@2@@std@@IEAAXXZ@4HA 000000018001e0b0 f   Connector.obj
 0001:0001d0c0       ?dtor$0@?0??ThreadEntry@CConnector@@EEAAHXZ@4HA 000000018001e0c0 f   Connector.obj
 0001:0001d0cc       ?dtor$1@?0??ThreadEntry@CConnector@@EEAAHXZ@4HA 000000018001e0cc f   Connector.obj
 0001:0001d0d8       ?catch$0@?0??ThreadEntry@CConnector@@EEAAHXZ@4HA 000000018001e0d8 f   Connector.obj
 0001:0001d0e5       __catch$?ThreadEntry@CConnector@@EEAAHXZ$0 000000018001e0e5 f   Connector.obj
 0001:0001d167       ?dtor$2@?0??ThreadEntry@CConnector@@EEAAHXZ@4HA 000000018001e167 f   Connector.obj
 0001:0001d173       ?dtor$3@?0??ThreadEntry@CConnector@@EEAAHXZ@4HA 000000018001e173 f   Connector.obj
 0001:0001d17f       ?dtor$4@?0??ThreadEntry@CConnector@@EEAAHXZ@4HA 000000018001e17f f   Connector.obj
 0001:0001d18b       ?catch$1@?0??ThreadEntry@CConnector@@EEAAHXZ@4HA 000000018001e18b f   Connector.obj
 0001:0001d198       __catch$?ThreadEntry@CConnector@@EEAAHXZ$2 000000018001e198 f   Connector.obj
 0001:0001d230       ?catch$2@?0??ThreadEntry@CConnector@@EEAAHXZ@4HA 000000018001e230 f   Connector.obj
 0001:0001d23e       __catch$?ThreadEntry@CConnector@@EEAAHXZ$4 000000018001e23e f   Connector.obj
 0001:0001d31f       ?dtor$5@?0??ThreadEntry@CConnector@@EEAAHXZ@4HA 000000018001e31f f   Connector.obj
 0001:0001d32b       ?catch$3@?0??ThreadEntry@CConnector@@EEAAHXZ@4HA 000000018001e32b f   Connector.obj
 0001:0001d339       __catch$?ThreadEntry@CConnector@@EEAAHXZ$5 000000018001e339 f   Connector.obj
 0001:0001d3f0       ?dtor$0@?0??IsNetManaged@CConnector@@EEAA_NAEAV?$basic_string@DU?$char_traits@D@std@@V?$allocator@D@2@@std@@@Z@4HA 000000018001e3f0 f   Connector.obj
 0001:0001d3fc       ?dtor$1@?0??IsNetManaged@CConnector@@EEAA_NAEAV?$basic_string@DU?$char_traits@D@std@@V?$allocator@D@2@@std@@@Z@4HA 000000018001e3fc f   Connector.obj
 0001:0001d408       ?dtor$2@?0??IsNetManaged@CConnector@@EEAA_NAEAV?$basic_string@DU?$char_traits@D@std@@V?$allocator@D@2@@std@@@Z@4HA 000000018001e408 f   Connector.obj
 0001:0001d414       ?dtor$3@?0??IsNetManaged@CConnector@@EEAA_NAEAV?$basic_string@DU?$char_traits@D@std@@V?$allocator@D@2@@std@@@Z@4HA 000000018001e414 f   Connector.obj
 0001:0001d420       ?dtor$4@?0??IsNetManaged@CConnector@@EEAA_NAEAV?$basic_string@DU?$char_traits@D@std@@V?$allocator@D@2@@std@@@Z@4HA 000000018001e420 f   Connector.obj
 0001:0001d430       ?dtor$0@?0???1?$_List_buy@PEAUtagBuf@@V?$allocator@PEAUtagBuf@@@std@@@std@@QEAA@XZ@4HA 000000018001e430 f   ProtocolProcess.obj
 0001:0001d430       ?dtor$0@?0???1?$_Tree@V?$_Tmap_traits@_KPEAXU?$less@_K@std@@V?$allocator@U?$pair@$$CB_KPEAX@std@@@2@$0A@@std@@@std@@QEAA@XZ@4HA 000000018001e430 f   ProtocolComm.obj
 0001:0001d430       ?dtor$0@?0???1?$_List_buy@V?$basic_string@DU?$char_traits@D@std@@V?$allocator@D@2@@std@@V?$allocator@V?$basic_string@DU?$char_traits@D@std@@V?$allocator@D@2@@std@@@2@@std@@QEAA@XZ@4HA 000000018001e430 f   ProtocolProcess.obj
 0001:0001d430       ?dtor$0@?0???1?$_Tree@V?$_Tmap_traits@_KPEAUtagKeyContex@@U?$less@_K@std@@V?$allocator@U?$pair@$$CB_KPEAUtagKeyContex@@@std@@@3@$0A@@std@@@std@@QEAA@XZ@4HA 000000018001e430 f   Connector.obj
 0001:0001d440       ?dtor$0@?0???4?$deque@U?$pair@_JPEAUtagKeyContex@@@std@@V?$allocator@U?$pair@_JPEAUtagKeyContex@@@std@@@2@@std@@QEAAAEAV01@AEBV01@@Z@4HA 000000018001e440 f   Connector.obj
 0001:0001d440       ?dtor$0@?0???4?$deque@U?$pair@_KPEAX@std@@V?$allocator@U?$pair@_KPEAX@std@@@2@@std@@QEAAAEAV01@AEBV01@@Z@4HA 000000018001e440 f   ProtocolComm.obj
 0001:0001d440       ?dtor$0@?0???4?$deque@PEAUtagKeyContex@@V?$allocator@PEAUtagKeyContex@@@std@@@std@@QEAAAEAV01@AEBV01@@Z@4HA 000000018001e440 f   Connector.obj
 0001:0001d44c       ?dtor$1@?0???4?$deque@PEAUtagKeyContex@@V?$allocator@PEAUtagKeyContex@@@std@@@std@@QEAAAEAV01@AEBV01@@Z@4HA 000000018001e44c f   Connector.obj
 0001:0001d44c       ?dtor$1@?0???4?$deque@U?$pair@_JPEAUtagKeyContex@@@std@@V?$allocator@U?$pair@_JPEAUtagKeyContex@@@std@@@2@@std@@QEAAAEAV01@AEBV01@@Z@4HA 000000018001e44c f   Connector.obj
 0001:0001d44c       ?dtor$1@?0???4?$deque@U?$pair@_KPEAX@std@@V?$allocator@U?$pair@_KPEAX@std@@@2@@std@@QEAAAEAV01@AEBV01@@Z@4HA 000000018001e44c f   ProtocolComm.obj
 0001:0001d458       ?dtor$2@?0???4?$deque@U?$pair@_JPEAUtagKeyContex@@@std@@V?$allocator@U?$pair@_JPEAUtagKeyContex@@@std@@@2@@std@@QEAAAEAV01@AEBV01@@Z@4HA 000000018001e458 f   Connector.obj
 0001:0001d458       ?dtor$2@?0???4?$deque@U?$pair@_KPEAX@std@@V?$allocator@U?$pair@_KPEAX@std@@@2@@std@@QEAAAEAV01@AEBV01@@Z@4HA 000000018001e458 f   ProtocolComm.obj
 0001:0001d458       ?dtor$2@?0???4?$deque@PEAUtagKeyContex@@V?$allocator@PEAUtagKeyContex@@@std@@@std@@QEAAAEAV01@AEBV01@@Z@4HA 000000018001e458 f   Connector.obj
 0001:0001d464       ?dtor$3@?0???4?$deque@U?$pair@_KPEAX@std@@V?$allocator@U?$pair@_KPEAX@std@@@2@@std@@QEAAAEAV01@AEBV01@@Z@4HA 000000018001e464 f   ProtocolComm.obj
 0001:0001d464       ?dtor$3@?0???4?$deque@U?$pair@_JPEAUtagKeyContex@@@std@@V?$allocator@U?$pair@_JPEAUtagKeyContex@@@std@@@2@@std@@QEAAAEAV01@AEBV01@@Z@4HA 000000018001e464 f   Connector.obj
 0001:0001d464       ?dtor$3@?0???4?$deque@PEAUtagKeyContex@@V?$allocator@PEAUtagKeyContex@@@std@@@std@@QEAAAEAV01@AEBV01@@Z@4HA 000000018001e464 f   Connector.obj
 0001:0001d470       ?dtor$4@?0???4?$deque@U?$pair@_JPEAUtagKeyContex@@@std@@V?$allocator@U?$pair@_JPEAUtagKeyContex@@@std@@@2@@std@@QEAAAEAV01@AEBV01@@Z@4HA 000000018001e470 f   Connector.obj
 0001:0001d470       ?dtor$4@?0???4?$deque@PEAUtagKeyContex@@V?$allocator@PEAUtagKeyContex@@@std@@@std@@QEAAAEAV01@AEBV01@@Z@4HA 000000018001e470 f   Connector.obj
 0001:0001d470       ?dtor$4@?0???4?$deque@U?$pair@_KPEAX@std@@V?$allocator@U?$pair@_KPEAX@std@@@2@@std@@QEAAAEAV01@AEBV01@@Z@4HA 000000018001e470 f   ProtocolComm.obj
 0001:0001d47c       ?dtor$5@?0???4?$deque@PEAUtagKeyContex@@V?$allocator@PEAUtagKeyContex@@@std@@@std@@QEAAAEAV01@AEBV01@@Z@4HA 000000018001e47c f   Connector.obj
 0001:0001d47c       ?dtor$5@?0???4?$deque@U?$pair@_JPEAUtagKeyContex@@@std@@V?$allocator@U?$pair@_JPEAUtagKeyContex@@@std@@@2@@std@@QEAAAEAV01@AEBV01@@Z@4HA 000000018001e47c f   Connector.obj
 0001:0001d47c       ?dtor$5@?0???4?$deque@U?$pair@_KPEAX@std@@V?$allocator@U?$pair@_KPEAX@std@@@2@@std@@QEAAAEAV01@AEBV01@@Z@4HA 000000018001e47c f   ProtocolComm.obj
 0001:0001d488       ?dtor$6@?0???4?$deque@U?$pair@_KPEAX@std@@V?$allocator@U?$pair@_KPEAX@std@@@2@@std@@QEAAAEAV01@AEBV01@@Z@4HA 000000018001e488 f   ProtocolComm.obj
 0001:0001d488       ?dtor$6@?0???4?$deque@U?$pair@_JPEAUtagKeyContex@@@std@@V?$allocator@U?$pair@_JPEAUtagKeyContex@@@std@@@2@@std@@QEAAAEAV01@AEBV01@@Z@4HA 000000018001e488 f   Connector.obj
 0001:0001d488       ?dtor$6@?0???4?$deque@PEAUtagKeyContex@@V?$allocator@PEAUtagKeyContex@@@std@@@std@@QEAAAEAV01@AEBV01@@Z@4HA 000000018001e488 f   Connector.obj
 0001:0001d494       ?dtor$7@?0???4?$deque@U?$pair@_JPEAUtagKeyContex@@@std@@V?$allocator@U?$pair@_JPEAUtagKeyContex@@@std@@@2@@std@@QEAAAEAV01@AEBV01@@Z@4HA 000000018001e494 f   Connector.obj
 0001:0001d494       ?dtor$7@?0???4?$deque@PEAUtagKeyContex@@V?$allocator@PEAUtagKeyContex@@@std@@@std@@QEAAAEAV01@AEBV01@@Z@4HA 000000018001e494 f   Connector.obj
 0001:0001d494       ?dtor$7@?0???4?$deque@U?$pair@_KPEAX@std@@V?$allocator@U?$pair@_KPEAX@std@@@2@@std@@QEAAAEAV01@AEBV01@@Z@4HA 000000018001e494 f   ProtocolComm.obj
 0001:0001d4a0       ?dtor$8@?0???4?$deque@U?$pair@_JPEAUtagKeyContex@@@std@@V?$allocator@U?$pair@_JPEAUtagKeyContex@@@std@@@2@@std@@QEAAAEAV01@AEBV01@@Z@4HA 000000018001e4a0 f   Connector.obj
 0001:0001d4a0       ?dtor$8@?0???4?$deque@U?$pair@_KPEAX@std@@V?$allocator@U?$pair@_KPEAX@std@@@2@@std@@QEAAAEAV01@AEBV01@@Z@4HA 000000018001e4a0 f   ProtocolComm.obj
 0001:0001d4a0       ?dtor$8@?0???4?$deque@PEAUtagKeyContex@@V?$allocator@PEAUtagKeyContex@@@std@@@std@@QEAAAEAV01@AEBV01@@Z@4HA 000000018001e4a0 f   Connector.obj
 0001:0001d4ac       ?dtor$9@?0???4?$deque@PEAUtagKeyContex@@V?$allocator@PEAUtagKeyContex@@@std@@@std@@QEAAAEAV01@AEBV01@@Z@4HA 000000018001e4ac f   Connector.obj
 0001:0001d4ac       ?dtor$9@?0???4?$deque@U?$pair@_JPEAUtagKeyContex@@@std@@V?$allocator@U?$pair@_JPEAUtagKeyContex@@@std@@@2@@std@@QEAAAEAV01@AEBV01@@Z@4HA 000000018001e4ac f   Connector.obj
 0001:0001d4ac       ?dtor$9@?0???4?$deque@U?$pair@_KPEAX@std@@V?$allocator@U?$pair@_KPEAX@std@@@2@@std@@QEAAAEAV01@AEBV01@@Z@4HA 000000018001e4ac f   ProtocolComm.obj
 0001:0001d4b8       ?dtor$10@?0???4?$deque@U?$pair@_KPEAX@std@@V?$allocator@U?$pair@_KPEAX@std@@@2@@std@@QEAAAEAV01@AEBV01@@Z@4HA 000000018001e4b8 f   ProtocolComm.obj
 0001:0001d4b8       ?dtor$10@?0???4?$deque@PEAUtagKeyContex@@V?$allocator@PEAUtagKeyContex@@@std@@@std@@QEAAAEAV01@AEBV01@@Z@4HA 000000018001e4b8 f   Connector.obj
 0001:0001d4b8       ?dtor$10@?0???4?$deque@U?$pair@_JPEAUtagKeyContex@@@std@@V?$allocator@U?$pair@_JPEAUtagKeyContex@@@std@@@2@@std@@QEAAAEAV01@AEBV01@@Z@4HA 000000018001e4b8 f   Connector.obj
 0001:0001d4d0       ?dtor$0@?0???1?$deque@PEAUtagKeyContex@@V?$allocator@PEAUtagKeyContex@@@std@@@std@@QEAA@XZ@4HA 000000018001e4d0 f   Connector.obj
 0001:0001d4d0       ?dtor$0@?0??_Destroy@?$vector@V?$deque@U?$pair@_KPEAX@std@@V?$allocator@U?$pair@_KPEAX@std@@@2@@std@@V?$allocator@V?$deque@U?$pair@_KPEAX@std@@V?$allocator@U?$pair@_KPEAX@std@@@2@@std@@@2@@std@@IEAAXPEAV?$deque@U?$pair@_KPEAX@std@@V?$allocator@U?$pair@_KPEAX@std@@@2@@2@0@Z@4HA 000000018001e4d0 f   ProtocolComm.obj
 0001:0001d4d0       ?dtor$0@?0??clear@?$vector@V?$deque@U?$pair@_KPEAX@std@@V?$allocator@U?$pair@_KPEAX@std@@@2@@std@@V?$allocator@V?$deque@U?$pair@_KPEAX@std@@V?$allocator@U?$pair@_KPEAX@std@@@2@@std@@@2@@std@@QEAAXXZ@4HA 000000018001e4d0 f   ProtocolComm.obj
 0001:0001d4d0       ?dtor$0@?0???1?$deque@U?$pair@_JPEAUtagKeyContex@@@std@@V?$allocator@U?$pair@_JPEAUtagKeyContex@@@std@@@2@@std@@QEAA@XZ@4HA 000000018001e4d0 f   Connector.obj
 0001:0001d4d0       ?dtor$0@?0???1?$deque@U?$pair@_KPEAX@std@@V?$allocator@U?$pair@_KPEAX@std@@@2@@std@@QEAA@XZ@4HA 000000018001e4d0 f   ProtocolComm.obj
 0001:0001d4d0       ?dtor$0@?0??_Tidy@?$vector@V?$deque@U?$pair@_KPEAX@std@@V?$allocator@U?$pair@_KPEAX@std@@@2@@std@@V?$allocator@V?$deque@U?$pair@_KPEAX@std@@V?$allocator@U?$pair@_KPEAX@std@@@2@@std@@@2@@std@@IEAAXXZ@4HA 000000018001e4d0 f   ProtocolComm.obj
 0001:0001d4e0       ?dtor$0@?0???0?$deque@PEAUtagKeyContex@@V?$allocator@PEAUtagKeyContex@@@std@@@std@@QEAA@AEBV01@@Z@4HA 000000018001e4e0 f   Connector.obj
 0001:0001d4e0       ?dtor$0@?0???0?$deque@U?$pair@_JPEAUtagKeyContex@@@std@@V?$allocator@U?$pair@_JPEAUtagKeyContex@@@std@@@2@@std@@QEAA@AEBV01@@Z@4HA 000000018001e4e0 f   Connector.obj
 0001:0001d4e0       ?dtor$0@?0???0?$deque@U?$pair@_KPEAX@std@@V?$allocator@U?$pair@_KPEAX@std@@@2@@std@@QEAA@AEBV01@@Z@4HA 000000018001e4e0 f   ProtocolComm.obj
 0001:0001d4ec       ?dtor$1@?0???0?$deque@U?$pair@_JPEAUtagKeyContex@@@std@@V?$allocator@U?$pair@_JPEAUtagKeyContex@@@std@@@2@@std@@QEAA@AEBV01@@Z@4HA 000000018001e4ec f   Connector.obj
 0001:0001d4ec       ?dtor$1@?0???0?$deque@U?$pair@_KPEAX@std@@V?$allocator@U?$pair@_KPEAX@std@@@2@@std@@QEAA@AEBV01@@Z@4HA 000000018001e4ec f   ProtocolComm.obj
 0001:0001d4ec       ?dtor$1@?0???0?$deque@PEAUtagKeyContex@@V?$allocator@PEAUtagKeyContex@@@std@@@std@@QEAA@AEBV01@@Z@4HA 000000018001e4ec f   Connector.obj
 0001:0001d4f8       ?dtor$2@?0???0?$deque@U?$pair@_JPEAUtagKeyContex@@@std@@V?$allocator@U?$pair@_JPEAUtagKeyContex@@@std@@@2@@std@@QEAA@AEBV01@@Z@4HA 000000018001e4f8 f   Connector.obj
 0001:0001d4f8       ?dtor$2@?0???0?$deque@PEAUtagKeyContex@@V?$allocator@PEAUtagKeyContex@@@std@@@std@@QEAA@AEBV01@@Z@4HA 000000018001e4f8 f   Connector.obj
 0001:0001d4f8       ?dtor$2@?0???0?$deque@U?$pair@_KPEAX@std@@V?$allocator@U?$pair@_KPEAX@std@@@2@@std@@QEAA@AEBV01@@Z@4HA 000000018001e4f8 f   ProtocolComm.obj
 0001:0001d510       ?dtor$0@?0??push_back@?$vector@U?$pair@V?$basic_string@DU?$char_traits@D@std@@V?$allocator@D@2@@std@@H@std@@V?$allocator@U?$pair@V?$basic_string@DU?$char_traits@D@std@@V?$allocator@D@2@@std@@H@std@@@2@@std@@QEAAXAEBU?$pair@V?$basic_string@DU?$char_traits@D@std@@V?$allocator@D@2@@std@@H@2@@Z@4HA 000000018001e510 f   Connector.obj
 0001:0001d52c       ?dtor$1@?0??push_back@?$vector@U?$pair@V?$basic_string@DU?$char_traits@D@std@@V?$allocator@D@2@@std@@H@std@@V?$allocator@U?$pair@V?$basic_string@DU?$char_traits@D@std@@V?$allocator@D@2@@std@@H@std@@@2@@std@@QEAAXAEBU?$pair@V?$basic_string@DU?$char_traits@D@std@@V?$allocator@D@2@@std@@H@2@@Z@4HA 000000018001e52c f   Connector.obj
 0001:0001d538       ?dtor$2@?0??push_back@?$vector@U?$pair@V?$basic_string@DU?$char_traits@D@std@@V?$allocator@D@2@@std@@H@std@@V?$allocator@U?$pair@V?$basic_string@DU?$char_traits@D@std@@V?$allocator@D@2@@std@@H@std@@@2@@std@@QEAAXAEBU?$pair@V?$basic_string@DU?$char_traits@D@std@@V?$allocator@D@2@@std@@H@2@@Z@4HA 000000018001e538 f   Connector.obj
 0001:0001d554       ?dtor$3@?0??push_back@?$vector@U?$pair@V?$basic_string@DU?$char_traits@D@std@@V?$allocator@D@2@@std@@H@std@@V?$allocator@U?$pair@V?$basic_string@DU?$char_traits@D@std@@V?$allocator@D@2@@std@@H@std@@@2@@std@@QEAAXAEBU?$pair@V?$basic_string@DU?$char_traits@D@std@@V?$allocator@D@2@@std@@H@2@@Z@4HA 000000018001e554 f   Connector.obj
 0001:0001d560       ?dtor$0@?0???4?$vector@U?$pair@V?$basic_string@DU?$char_traits@D@std@@V?$allocator@D@2@@std@@H@std@@V?$allocator@U?$pair@V?$basic_string@DU?$char_traits@D@std@@V?$allocator@D@2@@std@@H@std@@@2@@std@@QEAAAEAV01@AEBV01@@Z@4HA 000000018001e560 f   Connector.obj
 0001:0001d56c       ?catch$0@?0???4?$vector@U?$pair@V?$basic_string@DU?$char_traits@D@std@@V?$allocator@D@2@@std@@H@std@@V?$allocator@U?$pair@V?$basic_string@DU?$char_traits@D@std@@V?$allocator@D@2@@std@@H@std@@@2@@std@@QEAAAEAV01@AEBV01@@Z@4HA 000000018001e56c f   Connector.obj
 0001:0001d579       __catch$??4?$vector@U?$pair@V?$basic_string@DU?$char_traits@D@std@@V?$allocator@D@2@@std@@H@std@@V?$allocator@U?$pair@V?$basic_string@DU?$char_traits@D@std@@V?$allocator@D@2@@std@@H@std@@@2@@std@@QEAAAEAV01@AEBV01@@Z$0 000000018001e579 f   Connector.obj
 0001:0001d590       ?catch$0@?0???0?$vector@U?$pair@V?$basic_string@DU?$char_traits@D@std@@V?$allocator@D@2@@std@@H@std@@V?$allocator@U?$pair@V?$basic_string@DU?$char_traits@D@std@@V?$allocator@D@2@@std@@H@std@@@2@@std@@QEAA@AEBV01@@Z@4HA 000000018001e590 f   Connector.obj
 0001:0001d59d       __catch$??0?$vector@U?$pair@V?$basic_string@DU?$char_traits@D@std@@V?$allocator@D@2@@std@@H@std@@V?$allocator@U?$pair@V?$basic_string@DU?$char_traits@D@std@@V?$allocator@D@2@@std@@H@std@@@2@@std@@QEAA@AEBV01@@Z$0 000000018001e59d f   Connector.obj
 0001:0001d5b0       ?dtor$0@?0??push_back@?$vector@V?$basic_string@DU?$char_traits@D@std@@V?$allocator@D@2@@std@@V?$allocator@V?$basic_string@DU?$char_traits@D@std@@V?$allocator@D@2@@std@@@2@@std@@QEAAXAEBV?$basic_string@DU?$char_traits@D@std@@V?$allocator@D@2@@2@@Z@4HA 000000018001e5b0 f   Connector.obj
 0001:0001d5cc       ?dtor$1@?0??push_back@?$vector@V?$basic_string@DU?$char_traits@D@std@@V?$allocator@D@2@@std@@V?$allocator@V?$basic_string@DU?$char_traits@D@std@@V?$allocator@D@2@@std@@@2@@std@@QEAAXAEBV?$basic_string@DU?$char_traits@D@std@@V?$allocator@D@2@@2@@Z@4HA 000000018001e5cc f   Connector.obj
 0001:0001d5f0       ?dtor$0@?0??str@?$basic_stringstream@DU?$char_traits@D@std@@V?$allocator@D@2@@std@@QEBA?AV?$basic_string@DU?$char_traits@D@std@@V?$allocator@D@2@@2@XZ@4HA 000000018001e5f0 f   Connector.obj
 0001:0001d5f0       ?dtor$0@?0??substr@?$basic_string@DU?$char_traits@D@std@@V?$allocator@D@2@@std@@QEBA?AV12@_K0@Z@4HA 000000018001e5f0 f   ProtocolComm.obj
 0001:0001d620       ?dtor$0@?0???1?$basic_stringstream@DU?$char_traits@D@std@@V?$allocator@D@2@@std@@UEAA@XZ@4HA 000000018001e620 f   Connector.obj
 0001:0001d639       ?dtor$1@?0???1?$basic_stringstream@DU?$char_traits@D@std@@V?$allocator@D@2@@std@@UEAA@XZ@4HA 000000018001e639 f   Connector.obj
 0001:0001d650       ?dtor$2@?0???1?$basic_stringstream@DU?$char_traits@D@std@@V?$allocator@D@2@@std@@UEAA@XZ@4HA 000000018001e650 f   Connector.obj
 0001:0001d660       ?dtor$0@?0???0?$basic_stringstream@DU?$char_traits@D@std@@V?$allocator@D@2@@std@@QEAA@H@Z@4HA 000000018001e660 f   Connector.obj
 0001:0001d68e       ?dtor$1@?0???0?$basic_stringstream@DU?$char_traits@D@std@@V?$allocator@D@2@@std@@QEAA@H@Z@4HA 000000018001e68e f   Connector.obj
 0001:0001d6a0       ?dtor$3@?0???0?$basic_stringstream@DU?$char_traits@D@std@@V?$allocator@D@2@@std@@QEAA@H@Z@4HA 000000018001e6a0 f   Connector.obj
 0001:0001d6ae       ?dtor$2@?0???0?$basic_stringstream@DU?$char_traits@D@std@@V?$allocator@D@2@@std@@QEAA@H@Z@4HA 000000018001e6ae f   Connector.obj
 0001:0001d6c0       ?dtor$0@?0???1?$basic_stringbuf@DU?$char_traits@D@std@@V?$allocator@D@2@@std@@UEAA@XZ@4HA 000000018001e6c0 f   Connector.obj
 0001:0001d6c0       ?dtor$0@?0???_G?$basic_stringbuf@DU?$char_traits@D@std@@V?$allocator@D@2@@std@@UEAAPEAXI@Z@4HA 000000018001e6c0 f   Connector.obj
 0001:0001d6d0       ?dtor$0@?0???0?$_Tree@V?$_Tmap_traits@_KPEAXU?$less@_K@std@@V?$allocator@U?$pair@$$CB_KPEAX@std@@@2@$0A@@std@@@std@@QEAA@AEBV01@AEBV?$allocator@U?$pair@$$CB_KPEAX@std@@@1@@Z@4HA 000000018001e6d0 f   ProtocolComm.obj
 0001:0001d6d0       ?dtor$0@?0???0?$_Tree@V?$_Tmap_traits@_KPEAUtagKeyContex@@U?$less@_K@std@@V?$allocator@U?$pair@$$CB_KPEAUtagKeyContex@@@std@@@3@$0A@@std@@@std@@QEAA@AEBV01@AEBV?$allocator@U?$pair@$$CB_KPEAUtagKeyContex@@@std@@@1@@Z@4HA 000000018001e6d0 f   Connector.obj
 0001:0001d6dc       ?catch$0@?0???0?$_Tree@V?$_Tmap_traits@_KPEAXU?$less@_K@std@@V?$allocator@U?$pair@$$CB_KPEAX@std@@@2@$0A@@std@@@std@@QEAA@AEBV01@AEBV?$allocator@U?$pair@$$CB_KPEAX@std@@@1@@Z@4HA 000000018001e6dc f   ProtocolComm.obj
 0001:0001d6dc       ?catch$0@?0???0?$_Tree@V?$_Tmap_traits@_KPEAUtagKeyContex@@U?$less@_K@std@@V?$allocator@U?$pair@$$CB_KPEAUtagKeyContex@@@std@@@3@$0A@@std@@@std@@QEAA@AEBV01@AEBV?$allocator@U?$pair@$$CB_KPEAUtagKeyContex@@@std@@@1@@Z@4HA 000000018001e6dc f   Connector.obj
 0001:0001d6e9       __catch$??0?$_Tree@V?$_Tmap_traits@_KPEAUtagKeyContex@@U?$less@_K@std@@V?$allocator@U?$pair@$$CB_KPEAUtagKeyContex@@@std@@@3@$0A@@std@@@std@@QEAA@AEBV01@AEBV?$allocator@U?$pair@$$CB_KPEAUtagKeyContex@@@std@@@1@@Z$0 000000018001e6e9 f   Connector.obj
 0001:0001d6e9       __catch$??0?$_Tree@V?$_Tmap_traits@_KPEAXU?$less@_K@std@@V?$allocator@U?$pair@$$CB_KPEAX@std@@@2@$0A@@std@@@std@@QEAA@AEBV01@AEBV?$allocator@U?$pair@$$CB_KPEAX@std@@@1@@Z$0 000000018001e6e9 f   ProtocolComm.obj
 0001:0001d710       ?dtor$0@?0??erase@?$deque@U?$pair@_JPEAUtagKeyContex@@@std@@V?$allocator@U?$pair@_JPEAUtagKeyContex@@@std@@@2@@std@@QEAA?AV?$_Deque_iterator@V?$_Deque_val@U?$_Deque_simple_types@U?$pair@_JPEAUtagKeyContex@@@std@@@std@@@std@@@2@V?$_Deque_const_iterator@V?$_Deque_val@U?$_Deque_simple_types@U?$pair@_JPEAUtagKeyContex@@@std@@@std@@@std@@@2@0@Z@4HA 000000018001e710 f   Connector.obj
 0001:0001d710       ?dtor$0@?0??erase@?$deque@U?$pair@_KPEAX@std@@V?$allocator@U?$pair@_KPEAX@std@@@2@@std@@QEAA?AV?$_Deque_iterator@V?$_Deque_val@U?$_Deque_simple_types@U?$pair@_KPEAX@std@@@std@@@std@@@2@V?$_Deque_const_iterator@V?$_Deque_val@U?$_Deque_simple_types@U?$pair@_KPEAX@std@@@std@@@std@@@2@0@Z@4HA 000000018001e710 f   ProtocolComm.obj
 0001:0001d710       ?dtor$0@?0??erase@?$deque@PEAUtagKeyContex@@V?$allocator@PEAUtagKeyContex@@@std@@@std@@QEAA?AV?$_Deque_iterator@V?$_Deque_val@U?$_Deque_simple_types@PEAUtagKeyContex@@@std@@@std@@@2@V?$_Deque_const_iterator@V?$_Deque_val@U?$_Deque_simple_types@PEAUtagKeyContex@@@std@@@std@@@2@0@Z@4HA 000000018001e710 f   Connector.obj
 0001:0001d71c       ?dtor$1@?0??erase@?$deque@PEAUtagKeyContex@@V?$allocator@PEAUtagKeyContex@@@std@@@std@@QEAA?AV?$_Deque_iterator@V?$_Deque_val@U?$_Deque_simple_types@PEAUtagKeyContex@@@std@@@std@@@2@V?$_Deque_const_iterator@V?$_Deque_val@U?$_Deque_simple_types@PEAUtagKeyContex@@@std@@@std@@@2@0@Z@4HA 000000018001e71c f   Connector.obj
 0001:0001d71c       ?dtor$1@?0??erase@?$deque@U?$pair@_JPEAUtagKeyContex@@@std@@V?$allocator@U?$pair@_JPEAUtagKeyContex@@@std@@@2@@std@@QEAA?AV?$_Deque_iterator@V?$_Deque_val@U?$_Deque_simple_types@U?$pair@_JPEAUtagKeyContex@@@std@@@std@@@std@@@2@V?$_Deque_const_iterator@V?$_Deque_val@U?$_Deque_simple_types@U?$pair@_JPEAUtagKeyContex@@@std@@@std@@@std@@@2@0@Z@4HA 000000018001e71c f   Connector.obj
 0001:0001d71c       ?dtor$1@?0??erase@?$deque@U?$pair@_KPEAX@std@@V?$allocator@U?$pair@_KPEAX@std@@@2@@std@@QEAA?AV?$_Deque_iterator@V?$_Deque_val@U?$_Deque_simple_types@U?$pair@_KPEAX@std@@@std@@@std@@@2@V?$_Deque_const_iterator@V?$_Deque_val@U?$_Deque_simple_types@U?$pair@_KPEAX@std@@@std@@@std@@@2@0@Z@4HA 000000018001e71c f   ProtocolComm.obj
 0001:0001d728       ?dtor$2@?0??erase@?$deque@PEAUtagKeyContex@@V?$allocator@PEAUtagKeyContex@@@std@@@std@@QEAA?AV?$_Deque_iterator@V?$_Deque_val@U?$_Deque_simple_types@PEAUtagKeyContex@@@std@@@std@@@2@V?$_Deque_const_iterator@V?$_Deque_val@U?$_Deque_simple_types@PEAUtagKeyContex@@@std@@@std@@@2@0@Z@4HA 000000018001e728 f   Connector.obj
 0001:0001d728       ?dtor$2@?0??erase@?$deque@U?$pair@_KPEAX@std@@V?$allocator@U?$pair@_KPEAX@std@@@2@@std@@QEAA?AV?$_Deque_iterator@V?$_Deque_val@U?$_Deque_simple_types@U?$pair@_KPEAX@std@@@std@@@std@@@2@V?$_Deque_const_iterator@V?$_Deque_val@U?$_Deque_simple_types@U?$pair@_KPEAX@std@@@std@@@std@@@2@0@Z@4HA 000000018001e728 f   ProtocolComm.obj
 0001:0001d728       ?dtor$2@?0??erase@?$deque@U?$pair@_JPEAUtagKeyContex@@@std@@V?$allocator@U?$pair@_JPEAUtagKeyContex@@@std@@@2@@std@@QEAA?AV?$_Deque_iterator@V?$_Deque_val@U?$_Deque_simple_types@U?$pair@_JPEAUtagKeyContex@@@std@@@std@@@std@@@2@V?$_Deque_const_iterator@V?$_Deque_val@U?$_Deque_simple_types@U?$pair@_JPEAUtagKeyContex@@@std@@@std@@@std@@@2@0@Z@4HA 000000018001e728 f   Connector.obj
 0001:0001d734       ?dtor$3@?0??erase@?$deque@U?$pair@_KPEAX@std@@V?$allocator@U?$pair@_KPEAX@std@@@2@@std@@QEAA?AV?$_Deque_iterator@V?$_Deque_val@U?$_Deque_simple_types@U?$pair@_KPEAX@std@@@std@@@std@@@2@V?$_Deque_const_iterator@V?$_Deque_val@U?$_Deque_simple_types@U?$pair@_KPEAX@std@@@std@@@std@@@2@0@Z@4HA 000000018001e734 f   ProtocolComm.obj
 0001:0001d734       ?dtor$3@?0??erase@?$deque@U?$pair@_JPEAUtagKeyContex@@@std@@V?$allocator@U?$pair@_JPEAUtagKeyContex@@@std@@@2@@std@@QEAA?AV?$_Deque_iterator@V?$_Deque_val@U?$_Deque_simple_types@U?$pair@_JPEAUtagKeyContex@@@std@@@std@@@std@@@2@V?$_Deque_const_iterator@V?$_Deque_val@U?$_Deque_simple_types@U?$pair@_JPEAUtagKeyContex@@@std@@@std@@@std@@@2@0@Z@4HA 000000018001e734 f   Connector.obj
 0001:0001d734       ?dtor$3@?0??erase@?$deque@PEAUtagKeyContex@@V?$allocator@PEAUtagKeyContex@@@std@@@std@@QEAA?AV?$_Deque_iterator@V?$_Deque_val@U?$_Deque_simple_types@PEAUtagKeyContex@@@std@@@std@@@2@V?$_Deque_const_iterator@V?$_Deque_val@U?$_Deque_simple_types@PEAUtagKeyContex@@@std@@@std@@@2@0@Z@4HA 000000018001e734 f   Connector.obj
 0001:0001d740       ?dtor$4@?0??erase@?$deque@PEAUtagKeyContex@@V?$allocator@PEAUtagKeyContex@@@std@@@std@@QEAA?AV?$_Deque_iterator@V?$_Deque_val@U?$_Deque_simple_types@PEAUtagKeyContex@@@std@@@std@@@2@V?$_Deque_const_iterator@V?$_Deque_val@U?$_Deque_simple_types@PEAUtagKeyContex@@@std@@@std@@@2@0@Z@4HA 000000018001e740 f   Connector.obj
 0001:0001d740       ?dtor$4@?0??erase@?$deque@U?$pair@_JPEAUtagKeyContex@@@std@@V?$allocator@U?$pair@_JPEAUtagKeyContex@@@std@@@2@@std@@QEAA?AV?$_Deque_iterator@V?$_Deque_val@U?$_Deque_simple_types@U?$pair@_JPEAUtagKeyContex@@@std@@@std@@@std@@@2@V?$_Deque_const_iterator@V?$_Deque_val@U?$_Deque_simple_types@U?$pair@_JPEAUtagKeyContex@@@std@@@std@@@std@@@2@0@Z@4HA 000000018001e740 f   Connector.obj
 0001:0001d740       ?dtor$4@?0??erase@?$deque@U?$pair@_KPEAX@std@@V?$allocator@U?$pair@_KPEAX@std@@@2@@std@@QEAA?AV?$_Deque_iterator@V?$_Deque_val@U?$_Deque_simple_types@U?$pair@_KPEAX@std@@@std@@@std@@@2@V?$_Deque_const_iterator@V?$_Deque_val@U?$_Deque_simple_types@U?$pair@_KPEAX@std@@@std@@@std@@@2@0@Z@4HA 000000018001e740 f   ProtocolComm.obj
 0001:0001d74c       ?dtor$5@?0??erase@?$deque@U?$pair@_KPEAX@std@@V?$allocator@U?$pair@_KPEAX@std@@@2@@std@@QEAA?AV?$_Deque_iterator@V?$_Deque_val@U?$_Deque_simple_types@U?$pair@_KPEAX@std@@@std@@@std@@@2@V?$_Deque_const_iterator@V?$_Deque_val@U?$_Deque_simple_types@U?$pair@_KPEAX@std@@@std@@@std@@@2@0@Z@4HA 000000018001e74c f   ProtocolComm.obj
 0001:0001d74c       ?dtor$5@?0??erase@?$deque@PEAUtagKeyContex@@V?$allocator@PEAUtagKeyContex@@@std@@@std@@QEAA?AV?$_Deque_iterator@V?$_Deque_val@U?$_Deque_simple_types@PEAUtagKeyContex@@@std@@@std@@@2@V?$_Deque_const_iterator@V?$_Deque_val@U?$_Deque_simple_types@PEAUtagKeyContex@@@std@@@std@@@2@0@Z@4HA 000000018001e74c f   Connector.obj
 0001:0001d74c       ?dtor$5@?0??erase@?$deque@U?$pair@_JPEAUtagKeyContex@@@std@@V?$allocator@U?$pair@_JPEAUtagKeyContex@@@std@@@2@@std@@QEAA?AV?$_Deque_iterator@V?$_Deque_val@U?$_Deque_simple_types@U?$pair@_JPEAUtagKeyContex@@@std@@@std@@@std@@@2@V?$_Deque_const_iterator@V?$_Deque_val@U?$_Deque_simple_types@U?$pair@_JPEAUtagKeyContex@@@std@@@std@@@std@@@2@0@Z@4HA 000000018001e74c f   Connector.obj
 0001:0001d758       ?dtor$6@?0??erase@?$deque@U?$pair@_JPEAUtagKeyContex@@@std@@V?$allocator@U?$pair@_JPEAUtagKeyContex@@@std@@@2@@std@@QEAA?AV?$_Deque_iterator@V?$_Deque_val@U?$_Deque_simple_types@U?$pair@_JPEAUtagKeyContex@@@std@@@std@@@std@@@2@V?$_Deque_const_iterator@V?$_Deque_val@U?$_Deque_simple_types@U?$pair@_JPEAUtagKeyContex@@@std@@@std@@@std@@@2@0@Z@4HA 000000018001e758 f   Connector.obj
 0001:0001d758       ?dtor$6@?0??erase@?$deque@PEAUtagKeyContex@@V?$allocator@PEAUtagKeyContex@@@std@@@std@@QEAA?AV?$_Deque_iterator@V?$_Deque_val@U?$_Deque_simple_types@PEAUtagKeyContex@@@std@@@std@@@2@V?$_Deque_const_iterator@V?$_Deque_val@U?$_Deque_simple_types@PEAUtagKeyContex@@@std@@@std@@@2@0@Z@4HA 000000018001e758 f   Connector.obj
 0001:0001d758       ?dtor$6@?0??erase@?$deque@U?$pair@_KPEAX@std@@V?$allocator@U?$pair@_KPEAX@std@@@2@@std@@QEAA?AV?$_Deque_iterator@V?$_Deque_val@U?$_Deque_simple_types@U?$pair@_KPEAX@std@@@std@@@std@@@2@V?$_Deque_const_iterator@V?$_Deque_val@U?$_Deque_simple_types@U?$pair@_KPEAX@std@@@std@@@std@@@2@0@Z@4HA 000000018001e758 f   ProtocolComm.obj
 0001:0001d764       ?dtor$7@?0??erase@?$deque@U?$pair@_KPEAX@std@@V?$allocator@U?$pair@_KPEAX@std@@@2@@std@@QEAA?AV?$_Deque_iterator@V?$_Deque_val@U?$_Deque_simple_types@U?$pair@_KPEAX@std@@@std@@@std@@@2@V?$_Deque_const_iterator@V?$_Deque_val@U?$_Deque_simple_types@U?$pair@_KPEAX@std@@@std@@@std@@@2@0@Z@4HA 000000018001e764 f   ProtocolComm.obj
 0001:0001d764       ?dtor$7@?0??erase@?$deque@PEAUtagKeyContex@@V?$allocator@PEAUtagKeyContex@@@std@@@std@@QEAA?AV?$_Deque_iterator@V?$_Deque_val@U?$_Deque_simple_types@PEAUtagKeyContex@@@std@@@std@@@2@V?$_Deque_const_iterator@V?$_Deque_val@U?$_Deque_simple_types@PEAUtagKeyContex@@@std@@@std@@@2@0@Z@4HA 000000018001e764 f   Connector.obj
 0001:0001d764       ?dtor$7@?0??erase@?$deque@U?$pair@_JPEAUtagKeyContex@@@std@@V?$allocator@U?$pair@_JPEAUtagKeyContex@@@std@@@2@@std@@QEAA?AV?$_Deque_iterator@V?$_Deque_val@U?$_Deque_simple_types@U?$pair@_JPEAUtagKeyContex@@@std@@@std@@@std@@@2@V?$_Deque_const_iterator@V?$_Deque_val@U?$_Deque_simple_types@U?$pair@_JPEAUtagKeyContex@@@std@@@std@@@std@@@2@0@Z@4HA 000000018001e764 f   Connector.obj
 0001:0001d770       ?dtor$0@?0??str@?$basic_stringbuf@DU?$char_traits@D@std@@V?$allocator@D@2@@std@@QEBA?AV?$basic_string@DU?$char_traits@D@std@@V?$allocator@D@2@@2@XZ@4HA 000000018001e770 f   Connector.obj
 0001:0001d77c       ?dtor$1@?0??str@?$basic_stringbuf@DU?$char_traits@D@std@@V?$allocator@D@2@@std@@QEBA?AV?$basic_string@DU?$char_traits@D@std@@V?$allocator@D@2@@2@XZ@4HA 000000018001e77c f   Connector.obj
 0001:0001d7a2       ?dtor$2@?0??str@?$basic_stringbuf@DU?$char_traits@D@std@@V?$allocator@D@2@@std@@QEBA?AV?$basic_string@DU?$char_traits@D@std@@V?$allocator@D@2@@2@XZ@4HA 000000018001e7a2 f   Connector.obj
 0001:0001d7ae       ?dtor$3@?0??str@?$basic_stringbuf@DU?$char_traits@D@std@@V?$allocator@D@2@@std@@QEBA?AV?$basic_string@DU?$char_traits@D@std@@V?$allocator@D@2@@2@XZ@4HA 000000018001e7ae f   Connector.obj
 0001:0001d7c0       ?catch$0@?0??_Reallocate@?$vector@HV?$allocator@H@std@@@std@@IEAAX_K@Z@4HA 000000018001e7c0 f   Connector.obj
 0001:0001d7cd       __catch$?_Reallocate@?$vector@HV?$allocator@H@std@@@std@@IEAAX_K@Z$0 000000018001e7cd f   Connector.obj
 0001:0001d7f0       ?catch$0@?0??_Reallocate@?$vector@U?$pair@V?$basic_string@DU?$char_traits@D@std@@V?$allocator@D@2@@std@@H@std@@V?$allocator@U?$pair@V?$basic_string@DU?$char_traits@D@std@@V?$allocator@D@2@@std@@H@std@@@2@@std@@IEAAX_K@Z@4HA 000000018001e7f0 f   Connector.obj
 0001:0001d7fd       __catch$?_Reallocate@?$vector@U?$pair@V?$basic_string@DU?$char_traits@D@std@@V?$allocator@D@2@@std@@H@std@@V?$allocator@U?$pair@V?$basic_string@DU?$char_traits@D@std@@V?$allocator@D@2@@std@@H@std@@@2@@std@@IEAAX_K@Z$0 000000018001e7fd f   Connector.obj
 0001:0001d817       ?dtor$0@?0??_Reallocate@?$vector@U?$pair@V?$basic_string@DU?$char_traits@D@std@@V?$allocator@D@2@@std@@H@std@@V?$allocator@U?$pair@V?$basic_string@DU?$char_traits@D@std@@V?$allocator@D@2@@std@@H@std@@@2@@std@@IEAAX_K@Z@4HA 000000018001e817 f   Connector.obj
 0001:0001d830       ?catch$0@?0??_Reallocate@?$vector@V?$basic_string@DU?$char_traits@D@std@@V?$allocator@D@2@@std@@V?$allocator@V?$basic_string@DU?$char_traits@D@std@@V?$allocator@D@2@@std@@@2@@std@@IEAAX_K@Z@4HA 000000018001e830 f   Connector.obj
 0001:0001d83d       __catch$?_Reallocate@?$vector@V?$basic_string@DU?$char_traits@D@std@@V?$allocator@D@2@@std@@V?$allocator@V?$basic_string@DU?$char_traits@D@std@@V?$allocator@D@2@@std@@@2@@std@@IEAAX_K@Z$0 000000018001e83d f   Connector.obj
 0001:0001d860       ?catch$1@?0??_Copy@?$basic_string@DU?$char_traits@D@std@@V?$allocator@D@2@@std@@QEAAX_K0@Z@4HA 000000018001e860 f   Connector.obj
 0001:0001d86d       __catch$?_Copy@?$basic_string@DU?$char_traits@D@std@@V?$allocator@D@2@@std@@QEAAX_K0@Z$0 000000018001e86d f   Connector.obj
 0001:0001d894       ?catch$0@?0??_Copy@?$basic_string@DU?$char_traits@D@std@@V?$allocator@D@2@@std@@QEAAX_K0@Z@4HA 000000018001e894 f   Connector.obj
 0001:0001d8a1       __catch$?_Copy@?$basic_string@DU?$char_traits@D@std@@V?$allocator@D@2@@std@@QEAAX_K0@Z$1 000000018001e8a1 f   Connector.obj
 0001:0001d8c0       ?dtor$0@?0???$FromString@H@strutils@@YAHV?$basic_string@DU?$char_traits@D@std@@V?$allocator@D@2@@std@@I@Z@4HA 000000018001e8c0 f   Connector.obj
 0001:0001d8cc       ?dtor$1@?0???$FromString@H@strutils@@YAHV?$basic_string@DU?$char_traits@D@std@@V?$allocator@D@2@@std@@I@Z@4HA 000000018001e8cc f   Connector.obj
 0001:0001d8e0       ?dtor$0@?0???$?HDU?$char_traits@D@std@@V?$allocator@D@1@@std@@YA?AV?$basic_string@DU?$char_traits@D@std@@V?$allocator@D@2@@0@$$QEAV10@AEBV10@@Z@4HA 000000018001e8e0 f   WorkThreadNm.obj
 0001:0001d8e0       ?dtor$0@?0???$?HDU?$char_traits@D@std@@V?$allocator@D@1@@std@@YA?AV?$basic_string@DU?$char_traits@D@std@@V?$allocator@D@2@@0@$$QEAV10@PEBD@Z@4HA 000000018001e8e0 f   Connector.obj
 0001:0001d8e0       ?dtor$0@?0???$?HDU?$char_traits@D@std@@V?$allocator@D@1@@std@@YA?AV?$basic_string@DU?$char_traits@D@std@@V?$allocator@D@2@@0@AEBV10@PEBD@Z@4HA 000000018001e8e0 f   WorkThreadNm.obj
 0001:0001d8e0       ?dtor$0@?0???$?HDU?$char_traits@D@std@@V?$allocator@D@1@@std@@YA?AV?$basic_string@DU?$char_traits@D@std@@V?$allocator@D@2@@0@PEBDAEBV10@@Z@4HA 000000018001e8e0 f   Connector.obj
 0001:0001d910       ?dtor$0@?0???$ToString@H@strutils@@YA?AV?$basic_string@DU?$char_traits@D@std@@V?$allocator@D@2@@std@@HGGDD@Z@4HA 000000018001e910 f   Connector.obj
 0001:0001d910       ?dtor$0@?0???$ToString@I@strutils@@YA?AV?$basic_string@DU?$char_traits@D@std@@V?$allocator@D@2@@std@@IGGDD@Z@4HA 000000018001e910 f   WorkThreadNm.obj
 0001:0001d91c       ?dtor$1@?0???$ToString@H@strutils@@YA?AV?$basic_string@DU?$char_traits@D@std@@V?$allocator@D@2@@std@@HGGDD@Z@4HA 000000018001e91c f   Connector.obj
 0001:0001d91c       ?dtor$1@?0???$ToString@I@strutils@@YA?AV?$basic_string@DU?$char_traits@D@std@@V?$allocator@D@2@@std@@IGGDD@Z@4HA 000000018001e91c f   WorkThreadNm.obj
 0001:0001d950       ?dtor$0@?0???$?HDU?$char_traits@D@std@@V?$allocator@D@1@@std@@YA?AV?$basic_string@DU?$char_traits@D@std@@V?$allocator@D@2@@0@$$QEAV10@0@Z@4HA 000000018001e950 f   Connector.obj
 0001:0001d980       ?dtor$1@?0???$copy@V?$_Deque_const_iterator@V?$_Deque_val@U?$_Deque_simple_types@U?$pair@_JPEAUtagKeyContex@@@std@@@std@@@std@@@std@@V?$_Deque_iterator@V?$_Deque_val@U?$_Deque_simple_types@U?$pair@_JPEAUtagKeyContex@@@std@@@std@@@std@@@2@@std@@YA?AV?$_Deque_iterator@V?$_Deque_val@U?$_Deque_simple_types@U?$pair@_JPEAUtagKeyContex@@@std@@@std@@@std@@@0@V?$_Deque_const_iterator@V?$_Deque_val@U?$_Deque_simple_types@U?$pair@_JPEAUtagKeyContex@@@std@@@std@@@std@@@0@0V10@@Z@4HA 000000018001e980 f   Connector.obj
 0001:0001d980       ?dtor$1@?0???$move@V?$_Deque_iterator@V?$_Deque_val@U?$_Deque_simple_types@U?$pair@_KPEAX@std@@@std@@@std@@@std@@V12@@std@@YA?AV?$_Deque_iterator@V?$_Deque_val@U?$_Deque_simple_types@U?$pair@_KPEAX@std@@@std@@@std@@@0@V10@00@Z@4HA 000000018001e980 f   ProtocolComm.obj
 0001:0001d980       ?dtor$1@?0???$copy@V?$_Deque_const_iterator@V?$_Deque_val@U?$_Deque_simple_types@U?$pair@_KPEAX@std@@@std@@@std@@@std@@V?$_Deque_iterator@V?$_Deque_val@U?$_Deque_simple_types@U?$pair@_KPEAX@std@@@std@@@std@@@2@@std@@YA?AV?$_Deque_iterator@V?$_Deque_val@U?$_Deque_simple_types@U?$pair@_KPEAX@std@@@std@@@std@@@0@V?$_Deque_const_iterator@V?$_Deque_val@U?$_Deque_simple_types@U?$pair@_KPEAX@std@@@std@@@std@@@0@0V10@@Z@4HA 000000018001e980 f   ProtocolComm.obj
 0001:0001d980       ?dtor$1@?0???$move@V?$_Deque_iterator@V?$_Deque_val@U?$_Deque_simple_types@PEAUtagKeyContex@@@std@@@std@@@std@@V12@@std@@YA?AV?$_Deque_iterator@V?$_Deque_val@U?$_Deque_simple_types@PEAUtagKeyContex@@@std@@@std@@@0@V10@00@Z@4HA 000000018001e980 f   Connector.obj
 0001:0001d980       ?dtor$1@?0???$move@V?$_Deque_iterator@V?$_Deque_val@U?$_Deque_simple_types@U?$pair@_JPEAUtagKeyContex@@@std@@@std@@@std@@@std@@V12@@std@@YA?AV?$_Deque_iterator@V?$_Deque_val@U?$_Deque_simple_types@U?$pair@_JPEAUtagKeyContex@@@std@@@std@@@std@@@0@V10@00@Z@4HA 000000018001e980 f   Connector.obj
 0001:0001d980       ?dtor$1@?0???$copy@V?$_Deque_const_iterator@V?$_Deque_val@U?$_Deque_simple_types@PEAUtagKeyContex@@@std@@@std@@@std@@V?$_Deque_iterator@V?$_Deque_val@U?$_Deque_simple_types@PEAUtagKeyContex@@@std@@@std@@@2@@std@@YA?AV?$_Deque_iterator@V?$_Deque_val@U?$_Deque_simple_types@PEAUtagKeyContex@@@std@@@std@@@0@V?$_Deque_const_iterator@V?$_Deque_val@U?$_Deque_simple_types@PEAUtagKeyContex@@@std@@@std@@@0@0V10@@Z@4HA 000000018001e980 f   Connector.obj
 0001:0001d98c       ?dtor$2@?0???$move@V?$_Deque_iterator@V?$_Deque_val@U?$_Deque_simple_types@PEAUtagKeyContex@@@std@@@std@@@std@@V12@@std@@YA?AV?$_Deque_iterator@V?$_Deque_val@U?$_Deque_simple_types@PEAUtagKeyContex@@@std@@@std@@@0@V10@00@Z@4HA 000000018001e98c f   Connector.obj
 0001:0001d98c       ?dtor$2@?0???$move@V?$_Deque_iterator@V?$_Deque_val@U?$_Deque_simple_types@U?$pair@_JPEAUtagKeyContex@@@std@@@std@@@std@@@std@@V12@@std@@YA?AV?$_Deque_iterator@V?$_Deque_val@U?$_Deque_simple_types@U?$pair@_JPEAUtagKeyContex@@@std@@@std@@@std@@@0@V10@00@Z@4HA 000000018001e98c f   Connector.obj
 0001:0001d98c       ?dtor$2@?0???$move@V?$_Deque_iterator@V?$_Deque_val@U?$_Deque_simple_types@U?$pair@_KPEAX@std@@@std@@@std@@@std@@V12@@std@@YA?AV?$_Deque_iterator@V?$_Deque_val@U?$_Deque_simple_types@U?$pair@_KPEAX@std@@@std@@@std@@@0@V10@00@Z@4HA 000000018001e98c f   ProtocolComm.obj
 0001:0001d98c       ?dtor$2@?0???$copy@V?$_Deque_const_iterator@V?$_Deque_val@U?$_Deque_simple_types@U?$pair@_KPEAX@std@@@std@@@std@@@std@@V?$_Deque_iterator@V?$_Deque_val@U?$_Deque_simple_types@U?$pair@_KPEAX@std@@@std@@@std@@@2@@std@@YA?AV?$_Deque_iterator@V?$_Deque_val@U?$_Deque_simple_types@U?$pair@_KPEAX@std@@@std@@@std@@@0@V?$_Deque_const_iterator@V?$_Deque_val@U?$_Deque_simple_types@U?$pair@_KPEAX@std@@@std@@@std@@@0@0V10@@Z@4HA 000000018001e98c f   ProtocolComm.obj
 0001:0001d98c       ?dtor$2@?0???$copy@V?$_Deque_const_iterator@V?$_Deque_val@U?$_Deque_simple_types@U?$pair@_JPEAUtagKeyContex@@@std@@@std@@@std@@@std@@V?$_Deque_iterator@V?$_Deque_val@U?$_Deque_simple_types@U?$pair@_JPEAUtagKeyContex@@@std@@@std@@@std@@@2@@std@@YA?AV?$_Deque_iterator@V?$_Deque_val@U?$_Deque_simple_types@U?$pair@_JPEAUtagKeyContex@@@std@@@std@@@std@@@0@V?$_Deque_const_iterator@V?$_Deque_val@U?$_Deque_simple_types@U?$pair@_JPEAUtagKeyContex@@@std@@@std@@@std@@@0@0V10@@Z@4HA 000000018001e98c f   Connector.obj
 0001:0001d98c       ?dtor$2@?0???$copy@V?$_Deque_const_iterator@V?$_Deque_val@U?$_Deque_simple_types@PEAUtagKeyContex@@@std@@@std@@@std@@V?$_Deque_iterator@V?$_Deque_val@U?$_Deque_simple_types@PEAUtagKeyContex@@@std@@@std@@@2@@std@@YA?AV?$_Deque_iterator@V?$_Deque_val@U?$_Deque_simple_types@PEAUtagKeyContex@@@std@@@std@@@0@V?$_Deque_const_iterator@V?$_Deque_val@U?$_Deque_simple_types@PEAUtagKeyContex@@@std@@@std@@@0@0V10@@Z@4HA 000000018001e98c f   Connector.obj
 0001:0001d998       ?dtor$3@?0???$move@V?$_Deque_iterator@V?$_Deque_val@U?$_Deque_simple_types@U?$pair@_KPEAX@std@@@std@@@std@@@std@@V12@@std@@YA?AV?$_Deque_iterator@V?$_Deque_val@U?$_Deque_simple_types@U?$pair@_KPEAX@std@@@std@@@std@@@0@V10@00@Z@4HA 000000018001e998 f   ProtocolComm.obj
 0001:0001d998       ?dtor$3@?0???$move@V?$_Deque_iterator@V?$_Deque_val@U?$_Deque_simple_types@U?$pair@_JPEAUtagKeyContex@@@std@@@std@@@std@@@std@@V12@@std@@YA?AV?$_Deque_iterator@V?$_Deque_val@U?$_Deque_simple_types@U?$pair@_JPEAUtagKeyContex@@@std@@@std@@@std@@@0@V10@00@Z@4HA 000000018001e998 f   Connector.obj
 0001:0001d998       ?dtor$3@?0???$copy@V?$_Deque_const_iterator@V?$_Deque_val@U?$_Deque_simple_types@PEAUtagKeyContex@@@std@@@std@@@std@@V?$_Deque_iterator@V?$_Deque_val@U?$_Deque_simple_types@PEAUtagKeyContex@@@std@@@std@@@2@@std@@YA?AV?$_Deque_iterator@V?$_Deque_val@U?$_Deque_simple_types@PEAUtagKeyContex@@@std@@@std@@@0@V?$_Deque_const_iterator@V?$_Deque_val@U?$_Deque_simple_types@PEAUtagKeyContex@@@std@@@std@@@0@0V10@@Z@4HA 000000018001e998 f   Connector.obj
 0001:0001d998       ?dtor$3@?0???$copy@V?$_Deque_const_iterator@V?$_Deque_val@U?$_Deque_simple_types@U?$pair@_KPEAX@std@@@std@@@std@@@std@@V?$_Deque_iterator@V?$_Deque_val@U?$_Deque_simple_types@U?$pair@_KPEAX@std@@@std@@@std@@@2@@std@@YA?AV?$_Deque_iterator@V?$_Deque_val@U?$_Deque_simple_types@U?$pair@_KPEAX@std@@@std@@@std@@@0@V?$_Deque_const_iterator@V?$_Deque_val@U?$_Deque_simple_types@U?$pair@_KPEAX@std@@@std@@@std@@@0@0V10@@Z@4HA 000000018001e998 f   ProtocolComm.obj
 0001:0001d998       ?dtor$3@?0???$move@V?$_Deque_iterator@V?$_Deque_val@U?$_Deque_simple_types@PEAUtagKeyContex@@@std@@@std@@@std@@V12@@std@@YA?AV?$_Deque_iterator@V?$_Deque_val@U?$_Deque_simple_types@PEAUtagKeyContex@@@std@@@std@@@0@V10@00@Z@4HA 000000018001e998 f   Connector.obj
 0001:0001d998       ?dtor$3@?0???$copy@V?$_Deque_const_iterator@V?$_Deque_val@U?$_Deque_simple_types@U?$pair@_JPEAUtagKeyContex@@@std@@@std@@@std@@@std@@V?$_Deque_iterator@V?$_Deque_val@U?$_Deque_simple_types@U?$pair@_JPEAUtagKeyContex@@@std@@@std@@@std@@@2@@std@@YA?AV?$_Deque_iterator@V?$_Deque_val@U?$_Deque_simple_types@U?$pair@_JPEAUtagKeyContex@@@std@@@std@@@std@@@0@V?$_Deque_const_iterator@V?$_Deque_val@U?$_Deque_simple_types@U?$pair@_JPEAUtagKeyContex@@@std@@@std@@@std@@@0@0V10@@Z@4HA 000000018001e998 f   Connector.obj
 0001:0001d9b0       ?catch$0@?0???$insert@V?$_Deque_const_iterator@V?$_Deque_val@U?$_Deque_simple_types@U?$pair@_JPEAUtagKeyContex@@@std@@@std@@@std@@@std@@@?$deque@U?$pair@_JPEAUtagKeyContex@@@std@@V?$allocator@U?$pair@_JPEAUtagKeyContex@@@std@@@2@@std@@QEAA?AV?$_Deque_iterator@V?$_Deque_val@U?$_Deque_simple_types@U?$pair@_JPEAUtagKeyContex@@@std@@@std@@@std@@@1@V?$_Deque_const_iterator@V?$_Deque_val@U?$_Deque_simple_types@U?$pair@_JPEAUtagKeyContex@@@std@@@std@@@std@@@1@00@Z@4HA 000000018001e9b0 f   Connector.obj
 0001:0001d9b0       ?catch$0@?0???$insert@V?$_Deque_const_iterator@V?$_Deque_val@U?$_Deque_simple_types@U?$pair@_KPEAX@std@@@std@@@std@@@std@@@?$deque@U?$pair@_KPEAX@std@@V?$allocator@U?$pair@_KPEAX@std@@@2@@std@@QEAA?AV?$_Deque_iterator@V?$_Deque_val@U?$_Deque_simple_types@U?$pair@_KPEAX@std@@@std@@@std@@@1@V?$_Deque_const_iterator@V?$_Deque_val@U?$_Deque_simple_types@U?$pair@_KPEAX@std@@@std@@@std@@@1@00@Z@4HA 000000018001e9b0 f   ProtocolComm.obj
 0001:0001d9bd       __catch$??$insert@V?$_Deque_const_iterator@V?$_Deque_val@U?$_Deque_simple_types@U?$pair@_JPEAUtagKeyContex@@@std@@@std@@@std@@@std@@@?$deque@U?$pair@_JPEAUtagKeyContex@@@std@@V?$allocator@U?$pair@_JPEAUtagKeyContex@@@std@@@2@@std@@QEAA?AV?$_Deque_iterator@V?$_Deque_val@U?$_Deque_simple_types@U?$pair@_JPEAUtagKeyContex@@@std@@@std@@@std@@@1@V?$_Deque_const_iterator@V?$_Deque_val@U?$_Deque_simple_types@U?$pair@_JPEAUtagKeyContex@@@std@@@std@@@std@@@1@00@Z$0 000000018001e9bd f   Connector.obj
 0001:0001d9bd       __catch$??$insert@V?$_Deque_const_iterator@V?$_Deque_val@U?$_Deque_simple_types@U?$pair@_KPEAX@std@@@std@@@std@@@std@@@?$deque@U?$pair@_KPEAX@std@@V?$allocator@U?$pair@_KPEAX@std@@@2@@std@@QEAA?AV?$_Deque_iterator@V?$_Deque_val@U?$_Deque_simple_types@U?$pair@_KPEAX@std@@@std@@@std@@@1@V?$_Deque_const_iterator@V?$_Deque_val@U?$_Deque_simple_types@U?$pair@_KPEAX@std@@@std@@@std@@@1@00@Z$0 000000018001e9bd f   ProtocolComm.obj
 0001:0001d9f6       ?dtor$0@?0???$insert@V?$_Deque_const_iterator@V?$_Deque_val@U?$_Deque_simple_types@U?$pair@_KPEAX@std@@@std@@@std@@@std@@@?$deque@U?$pair@_KPEAX@std@@V?$allocator@U?$pair@_KPEAX@std@@@2@@std@@QEAA?AV?$_Deque_iterator@V?$_Deque_val@U?$_Deque_simple_types@U?$pair@_KPEAX@std@@@std@@@std@@@1@V?$_Deque_const_iterator@V?$_Deque_val@U?$_Deque_simple_types@U?$pair@_KPEAX@std@@@std@@@std@@@1@00@Z@4HA 000000018001e9f6 f   ProtocolComm.obj
 0001:0001d9f6       ?dtor$0@?0???$insert@V?$_Deque_const_iterator@V?$_Deque_val@U?$_Deque_simple_types@U?$pair@_JPEAUtagKeyContex@@@std@@@std@@@std@@@std@@@?$deque@U?$pair@_JPEAUtagKeyContex@@@std@@V?$allocator@U?$pair@_JPEAUtagKeyContex@@@std@@@2@@std@@QEAA?AV?$_Deque_iterator@V?$_Deque_val@U?$_Deque_simple_types@U?$pair@_JPEAUtagKeyContex@@@std@@@std@@@std@@@1@V?$_Deque_const_iterator@V?$_Deque_val@U?$_Deque_simple_types@U?$pair@_JPEAUtagKeyContex@@@std@@@std@@@std@@@1@00@Z@4HA 000000018001e9f6 f   Connector.obj
 0001:0001da02       ?dtor$1@?0???$insert@V?$_Deque_const_iterator@V?$_Deque_val@U?$_Deque_simple_types@U?$pair@_KPEAX@std@@@std@@@std@@@std@@@?$deque@U?$pair@_KPEAX@std@@V?$allocator@U?$pair@_KPEAX@std@@@2@@std@@QEAA?AV?$_Deque_iterator@V?$_Deque_val@U?$_Deque_simple_types@U?$pair@_KPEAX@std@@@std@@@std@@@1@V?$_Deque_const_iterator@V?$_Deque_val@U?$_Deque_simple_types@U?$pair@_KPEAX@std@@@std@@@std@@@1@00@Z@4HA 000000018001ea02 f   ProtocolComm.obj
 0001:0001da02       ?dtor$1@?0???$insert@V?$_Deque_const_iterator@V?$_Deque_val@U?$_Deque_simple_types@U?$pair@_JPEAUtagKeyContex@@@std@@@std@@@std@@@std@@@?$deque@U?$pair@_JPEAUtagKeyContex@@@std@@V?$allocator@U?$pair@_JPEAUtagKeyContex@@@std@@@2@@std@@QEAA?AV?$_Deque_iterator@V?$_Deque_val@U?$_Deque_simple_types@U?$pair@_JPEAUtagKeyContex@@@std@@@std@@@std@@@1@V?$_Deque_const_iterator@V?$_Deque_val@U?$_Deque_simple_types@U?$pair@_JPEAUtagKeyContex@@@std@@@std@@@std@@@1@00@Z@4HA 000000018001ea02 f   Connector.obj
 0001:0001da0e       ?dtor$2@?0???$insert@V?$_Deque_const_iterator@V?$_Deque_val@U?$_Deque_simple_types@U?$pair@_JPEAUtagKeyContex@@@std@@@std@@@std@@@std@@@?$deque@U?$pair@_JPEAUtagKeyContex@@@std@@V?$allocator@U?$pair@_JPEAUtagKeyContex@@@std@@@2@@std@@QEAA?AV?$_Deque_iterator@V?$_Deque_val@U?$_Deque_simple_types@U?$pair@_JPEAUtagKeyContex@@@std@@@std@@@std@@@1@V?$_Deque_const_iterator@V?$_Deque_val@U?$_Deque_simple_types@U?$pair@_JPEAUtagKeyContex@@@std@@@std@@@std@@@1@00@Z@4HA 000000018001ea0e f   Connector.obj
 0001:0001da0e       ?dtor$2@?0???$insert@V?$_Deque_const_iterator@V?$_Deque_val@U?$_Deque_simple_types@U?$pair@_KPEAX@std@@@std@@@std@@@std@@@?$deque@U?$pair@_KPEAX@std@@V?$allocator@U?$pair@_KPEAX@std@@@2@@std@@QEAA?AV?$_Deque_iterator@V?$_Deque_val@U?$_Deque_simple_types@U?$pair@_KPEAX@std@@@std@@@std@@@1@V?$_Deque_const_iterator@V?$_Deque_val@U?$_Deque_simple_types@U?$pair@_KPEAX@std@@@std@@@std@@@1@00@Z@4HA 000000018001ea0e f   ProtocolComm.obj
 0001:0001da1a       ?dtor$3@?0???$insert@V?$_Deque_const_iterator@V?$_Deque_val@U?$_Deque_simple_types@U?$pair@_KPEAX@std@@@std@@@std@@@std@@@?$deque@U?$pair@_KPEAX@std@@V?$allocator@U?$pair@_KPEAX@std@@@2@@std@@QEAA?AV?$_Deque_iterator@V?$_Deque_val@U?$_Deque_simple_types@U?$pair@_KPEAX@std@@@std@@@std@@@1@V?$_Deque_const_iterator@V?$_Deque_val@U?$_Deque_simple_types@U?$pair@_KPEAX@std@@@std@@@std@@@1@00@Z@4HA 000000018001ea1a f   ProtocolComm.obj
 0001:0001da1a       ?dtor$3@?0???$insert@V?$_Deque_const_iterator@V?$_Deque_val@U?$_Deque_simple_types@U?$pair@_JPEAUtagKeyContex@@@std@@@std@@@std@@@std@@@?$deque@U?$pair@_JPEAUtagKeyContex@@@std@@V?$allocator@U?$pair@_JPEAUtagKeyContex@@@std@@@2@@std@@QEAA?AV?$_Deque_iterator@V?$_Deque_val@U?$_Deque_simple_types@U?$pair@_JPEAUtagKeyContex@@@std@@@std@@@std@@@1@V?$_Deque_const_iterator@V?$_Deque_val@U?$_Deque_simple_types@U?$pair@_JPEAUtagKeyContex@@@std@@@std@@@std@@@1@00@Z@4HA 000000018001ea1a f   Connector.obj
 0001:0001da26       ?dtor$4@?0???$insert@V?$_Deque_const_iterator@V?$_Deque_val@U?$_Deque_simple_types@U?$pair@_JPEAUtagKeyContex@@@std@@@std@@@std@@@std@@@?$deque@U?$pair@_JPEAUtagKeyContex@@@std@@V?$allocator@U?$pair@_JPEAUtagKeyContex@@@std@@@2@@std@@QEAA?AV?$_Deque_iterator@V?$_Deque_val@U?$_Deque_simple_types@U?$pair@_JPEAUtagKeyContex@@@std@@@std@@@std@@@1@V?$_Deque_const_iterator@V?$_Deque_val@U?$_Deque_simple_types@U?$pair@_JPEAUtagKeyContex@@@std@@@std@@@std@@@1@00@Z@4HA 000000018001ea26 f   Connector.obj
 0001:0001da26       ?dtor$4@?0???$insert@V?$_Deque_const_iterator@V?$_Deque_val@U?$_Deque_simple_types@U?$pair@_KPEAX@std@@@std@@@std@@@std@@@?$deque@U?$pair@_KPEAX@std@@V?$allocator@U?$pair@_KPEAX@std@@@2@@std@@QEAA?AV?$_Deque_iterator@V?$_Deque_val@U?$_Deque_simple_types@U?$pair@_KPEAX@std@@@std@@@std@@@1@V?$_Deque_const_iterator@V?$_Deque_val@U?$_Deque_simple_types@U?$pair@_KPEAX@std@@@std@@@std@@@1@00@Z@4HA 000000018001ea26 f   ProtocolComm.obj
 0001:0001da32       ?catch$1@?0???$insert@V?$_Deque_const_iterator@V?$_Deque_val@U?$_Deque_simple_types@U?$pair@_JPEAUtagKeyContex@@@std@@@std@@@std@@@std@@@?$deque@U?$pair@_JPEAUtagKeyContex@@@std@@V?$allocator@U?$pair@_JPEAUtagKeyContex@@@std@@@2@@std@@QEAA?AV?$_Deque_iterator@V?$_Deque_val@U?$_Deque_simple_types@U?$pair@_JPEAUtagKeyContex@@@std@@@std@@@std@@@1@V?$_Deque_const_iterator@V?$_Deque_val@U?$_Deque_simple_types@U?$pair@_JPEAUtagKeyContex@@@std@@@std@@@std@@@1@00@Z@4HA 000000018001ea32 f   Connector.obj
 0001:0001da32       ?catch$1@?0???$insert@V?$_Deque_const_iterator@V?$_Deque_val@U?$_Deque_simple_types@U?$pair@_KPEAX@std@@@std@@@std@@@std@@@?$deque@U?$pair@_KPEAX@std@@V?$allocator@U?$pair@_KPEAX@std@@@2@@std@@QEAA?AV?$_Deque_iterator@V?$_Deque_val@U?$_Deque_simple_types@U?$pair@_KPEAX@std@@@std@@@std@@@1@V?$_Deque_const_iterator@V?$_Deque_val@U?$_Deque_simple_types@U?$pair@_KPEAX@std@@@std@@@std@@@1@00@Z@4HA 000000018001ea32 f   ProtocolComm.obj
 0001:0001da3f       __catch$??$insert@V?$_Deque_const_iterator@V?$_Deque_val@U?$_Deque_simple_types@U?$pair@_KPEAX@std@@@std@@@std@@@std@@@?$deque@U?$pair@_KPEAX@std@@V?$allocator@U?$pair@_KPEAX@std@@@2@@std@@QEAA?AV?$_Deque_iterator@V?$_Deque_val@U?$_Deque_simple_types@U?$pair@_KPEAX@std@@@std@@@std@@@1@V?$_Deque_const_iterator@V?$_Deque_val@U?$_Deque_simple_types@U?$pair@_KPEAX@std@@@std@@@std@@@1@00@Z$2 000000018001ea3f f   ProtocolComm.obj
 0001:0001da3f       __catch$??$insert@V?$_Deque_const_iterator@V?$_Deque_val@U?$_Deque_simple_types@U?$pair@_JPEAUtagKeyContex@@@std@@@std@@@std@@@std@@@?$deque@U?$pair@_JPEAUtagKeyContex@@@std@@V?$allocator@U?$pair@_JPEAUtagKeyContex@@@std@@@2@@std@@QEAA?AV?$_Deque_iterator@V?$_Deque_val@U?$_Deque_simple_types@U?$pair@_JPEAUtagKeyContex@@@std@@@std@@@std@@@1@V?$_Deque_const_iterator@V?$_Deque_val@U?$_Deque_simple_types@U?$pair@_JPEAUtagKeyContex@@@std@@@std@@@std@@@1@00@Z$2 000000018001ea3f f   Connector.obj
 0001:0001da72       ?dtor$5@?0???$insert@V?$_Deque_const_iterator@V?$_Deque_val@U?$_Deque_simple_types@U?$pair@_JPEAUtagKeyContex@@@std@@@std@@@std@@@std@@@?$deque@U?$pair@_JPEAUtagKeyContex@@@std@@V?$allocator@U?$pair@_JPEAUtagKeyContex@@@std@@@2@@std@@QEAA?AV?$_Deque_iterator@V?$_Deque_val@U?$_Deque_simple_types@U?$pair@_JPEAUtagKeyContex@@@std@@@std@@@std@@@1@V?$_Deque_const_iterator@V?$_Deque_val@U?$_Deque_simple_types@U?$pair@_JPEAUtagKeyContex@@@std@@@std@@@std@@@1@00@Z@4HA 000000018001ea72 f   Connector.obj
 0001:0001da72       ?dtor$5@?0???$insert@V?$_Deque_const_iterator@V?$_Deque_val@U?$_Deque_simple_types@U?$pair@_KPEAX@std@@@std@@@std@@@std@@@?$deque@U?$pair@_KPEAX@std@@V?$allocator@U?$pair@_KPEAX@std@@@2@@std@@QEAA?AV?$_Deque_iterator@V?$_Deque_val@U?$_Deque_simple_types@U?$pair@_KPEAX@std@@@std@@@std@@@1@V?$_Deque_const_iterator@V?$_Deque_val@U?$_Deque_simple_types@U?$pair@_KPEAX@std@@@std@@@std@@@1@00@Z@4HA 000000018001ea72 f   ProtocolComm.obj
 0001:0001da7e       ?dtor$6@?0???$insert@V?$_Deque_const_iterator@V?$_Deque_val@U?$_Deque_simple_types@U?$pair@_JPEAUtagKeyContex@@@std@@@std@@@std@@@std@@@?$deque@U?$pair@_JPEAUtagKeyContex@@@std@@V?$allocator@U?$pair@_JPEAUtagKeyContex@@@std@@@2@@std@@QEAA?AV?$_Deque_iterator@V?$_Deque_val@U?$_Deque_simple_types@U?$pair@_JPEAUtagKeyContex@@@std@@@std@@@std@@@1@V?$_Deque_const_iterator@V?$_Deque_val@U?$_Deque_simple_types@U?$pair@_JPEAUtagKeyContex@@@std@@@std@@@std@@@1@00@Z@4HA 000000018001ea7e f   Connector.obj
 0001:0001da7e       ?dtor$6@?0???$insert@V?$_Deque_const_iterator@V?$_Deque_val@U?$_Deque_simple_types@U?$pair@_KPEAX@std@@@std@@@std@@@std@@@?$deque@U?$pair@_KPEAX@std@@V?$allocator@U?$pair@_KPEAX@std@@@2@@std@@QEAA?AV?$_Deque_iterator@V?$_Deque_val@U?$_Deque_simple_types@U?$pair@_KPEAX@std@@@std@@@std@@@1@V?$_Deque_const_iterator@V?$_Deque_val@U?$_Deque_simple_types@U?$pair@_KPEAX@std@@@std@@@std@@@1@00@Z@4HA 000000018001ea7e f   ProtocolComm.obj
 0001:0001da8a       ?dtor$7@?0???$insert@V?$_Deque_const_iterator@V?$_Deque_val@U?$_Deque_simple_types@U?$pair@_KPEAX@std@@@std@@@std@@@std@@@?$deque@U?$pair@_KPEAX@std@@V?$allocator@U?$pair@_KPEAX@std@@@2@@std@@QEAA?AV?$_Deque_iterator@V?$_Deque_val@U?$_Deque_simple_types@U?$pair@_KPEAX@std@@@std@@@std@@@1@V?$_Deque_const_iterator@V?$_Deque_val@U?$_Deque_simple_types@U?$pair@_KPEAX@std@@@std@@@std@@@1@00@Z@4HA 000000018001ea8a f   ProtocolComm.obj
 0001:0001da8a       ?dtor$7@?0???$insert@V?$_Deque_const_iterator@V?$_Deque_val@U?$_Deque_simple_types@U?$pair@_JPEAUtagKeyContex@@@std@@@std@@@std@@@std@@@?$deque@U?$pair@_JPEAUtagKeyContex@@@std@@V?$allocator@U?$pair@_JPEAUtagKeyContex@@@std@@@2@@std@@QEAA?AV?$_Deque_iterator@V?$_Deque_val@U?$_Deque_simple_types@U?$pair@_JPEAUtagKeyContex@@@std@@@std@@@std@@@1@V?$_Deque_const_iterator@V?$_Deque_val@U?$_Deque_simple_types@U?$pair@_JPEAUtagKeyContex@@@std@@@std@@@std@@@1@00@Z@4HA 000000018001ea8a f   Connector.obj
 0001:0001daa0       ?catch$0@?0???$_Construct@V?$_Deque_const_iterator@V?$_Deque_val@U?$_Deque_simple_types@U?$pair@_JPEAUtagKeyContex@@@std@@@std@@@std@@@std@@@?$deque@U?$pair@_JPEAUtagKeyContex@@@std@@V?$allocator@U?$pair@_JPEAUtagKeyContex@@@std@@@2@@std@@QEAAXV?$_Deque_const_iterator@V?$_Deque_val@U?$_Deque_simple_types@U?$pair@_JPEAUtagKeyContex@@@std@@@std@@@std@@@1@0@Z@4HA 000000018001eaa0 f   Connector.obj
 0001:0001daa0       ?catch$0@?0???$_Construct@V?$_Deque_const_iterator@V?$_Deque_val@U?$_Deque_simple_types@U?$pair@_KPEAX@std@@@std@@@std@@@std@@@?$deque@U?$pair@_KPEAX@std@@V?$allocator@U?$pair@_KPEAX@std@@@2@@std@@QEAAXV?$_Deque_const_iterator@V?$_Deque_val@U?$_Deque_simple_types@U?$pair@_KPEAX@std@@@std@@@std@@@1@0@Z@4HA 000000018001eaa0 f   ProtocolComm.obj
 0001:0001daad       __catch$??$_Construct@V?$_Deque_const_iterator@V?$_Deque_val@U?$_Deque_simple_types@U?$pair@_JPEAUtagKeyContex@@@std@@@std@@@std@@@std@@@?$deque@U?$pair@_JPEAUtagKeyContex@@@std@@V?$allocator@U?$pair@_JPEAUtagKeyContex@@@std@@@2@@std@@QEAAXV?$_Deque_const_iterator@V?$_Deque_val@U?$_Deque_simple_types@U?$pair@_JPEAUtagKeyContex@@@std@@@std@@@std@@@1@0@Z$0 000000018001eaad f   Connector.obj
 0001:0001daad       __catch$??$_Construct@V?$_Deque_const_iterator@V?$_Deque_val@U?$_Deque_simple_types@U?$pair@_KPEAX@std@@@std@@@std@@@std@@@?$deque@U?$pair@_KPEAX@std@@V?$allocator@U?$pair@_KPEAX@std@@@2@@std@@QEAAXV?$_Deque_const_iterator@V?$_Deque_val@U?$_Deque_simple_types@U?$pair@_KPEAX@std@@@std@@@std@@@1@0@Z$0 000000018001eaad f   ProtocolComm.obj
 0001:0001dac0       ?catch$0@?0???$insert@V?$_Deque_const_iterator@V?$_Deque_val@U?$_Deque_simple_types@PEAUtagKeyContex@@@std@@@std@@@std@@@?$deque@PEAUtagKeyContex@@V?$allocator@PEAUtagKeyContex@@@std@@@std@@QEAA?AV?$_Deque_iterator@V?$_Deque_val@U?$_Deque_simple_types@PEAUtagKeyContex@@@std@@@std@@@1@V?$_Deque_const_iterator@V?$_Deque_val@U?$_Deque_simple_types@PEAUtagKeyContex@@@std@@@std@@@1@00@Z@4HA 000000018001eac0 f   Connector.obj
 0001:0001dacd       __catch$??$insert@V?$_Deque_const_iterator@V?$_Deque_val@U?$_Deque_simple_types@PEAUtagKeyContex@@@std@@@std@@@std@@@?$deque@PEAUtagKeyContex@@V?$allocator@PEAUtagKeyContex@@@std@@@std@@QEAA?AV?$_Deque_iterator@V?$_Deque_val@U?$_Deque_simple_types@PEAUtagKeyContex@@@std@@@std@@@1@V?$_Deque_const_iterator@V?$_Deque_val@U?$_Deque_simple_types@PEAUtagKeyContex@@@std@@@std@@@1@00@Z$0 000000018001eacd f   Connector.obj
 0001:0001db06       ?dtor$0@?0???$insert@V?$_Deque_const_iterator@V?$_Deque_val@U?$_Deque_simple_types@PEAUtagKeyContex@@@std@@@std@@@std@@@?$deque@PEAUtagKeyContex@@V?$allocator@PEAUtagKeyContex@@@std@@@std@@QEAA?AV?$_Deque_iterator@V?$_Deque_val@U?$_Deque_simple_types@PEAUtagKeyContex@@@std@@@std@@@1@V?$_Deque_const_iterator@V?$_Deque_val@U?$_Deque_simple_types@PEAUtagKeyContex@@@std@@@std@@@1@00@Z@4HA 000000018001eb06 f   Connector.obj
 0001:0001db12       ?dtor$1@?0???$insert@V?$_Deque_const_iterator@V?$_Deque_val@U?$_Deque_simple_types@PEAUtagKeyContex@@@std@@@std@@@std@@@?$deque@PEAUtagKeyContex@@V?$allocator@PEAUtagKeyContex@@@std@@@std@@QEAA?AV?$_Deque_iterator@V?$_Deque_val@U?$_Deque_simple_types@PEAUtagKeyContex@@@std@@@std@@@1@V?$_Deque_const_iterator@V?$_Deque_val@U?$_Deque_simple_types@PEAUtagKeyContex@@@std@@@std@@@1@00@Z@4HA 000000018001eb12 f   Connector.obj
 0001:0001db1e       ?dtor$2@?0???$insert@V?$_Deque_const_iterator@V?$_Deque_val@U?$_Deque_simple_types@PEAUtagKeyContex@@@std@@@std@@@std@@@?$deque@PEAUtagKeyContex@@V?$allocator@PEAUtagKeyContex@@@std@@@std@@QEAA?AV?$_Deque_iterator@V?$_Deque_val@U?$_Deque_simple_types@PEAUtagKeyContex@@@std@@@std@@@1@V?$_Deque_const_iterator@V?$_Deque_val@U?$_Deque_simple_types@PEAUtagKeyContex@@@std@@@std@@@1@00@Z@4HA 000000018001eb1e f   Connector.obj
 0001:0001db2a       ?dtor$3@?0???$insert@V?$_Deque_const_iterator@V?$_Deque_val@U?$_Deque_simple_types@PEAUtagKeyContex@@@std@@@std@@@std@@@?$deque@PEAUtagKeyContex@@V?$allocator@PEAUtagKeyContex@@@std@@@std@@QEAA?AV?$_Deque_iterator@V?$_Deque_val@U?$_Deque_simple_types@PEAUtagKeyContex@@@std@@@std@@@1@V?$_Deque_const_iterator@V?$_Deque_val@U?$_Deque_simple_types@PEAUtagKeyContex@@@std@@@std@@@1@00@Z@4HA 000000018001eb2a f   Connector.obj
 0001:0001db36       ?dtor$4@?0???$insert@V?$_Deque_const_iterator@V?$_Deque_val@U?$_Deque_simple_types@PEAUtagKeyContex@@@std@@@std@@@std@@@?$deque@PEAUtagKeyContex@@V?$allocator@PEAUtagKeyContex@@@std@@@std@@QEAA?AV?$_Deque_iterator@V?$_Deque_val@U?$_Deque_simple_types@PEAUtagKeyContex@@@std@@@std@@@1@V?$_Deque_const_iterator@V?$_Deque_val@U?$_Deque_simple_types@PEAUtagKeyContex@@@std@@@std@@@1@00@Z@4HA 000000018001eb36 f   Connector.obj
 0001:0001db42       ?catch$1@?0???$insert@V?$_Deque_const_iterator@V?$_Deque_val@U?$_Deque_simple_types@PEAUtagKeyContex@@@std@@@std@@@std@@@?$deque@PEAUtagKeyContex@@V?$allocator@PEAUtagKeyContex@@@std@@@std@@QEAA?AV?$_Deque_iterator@V?$_Deque_val@U?$_Deque_simple_types@PEAUtagKeyContex@@@std@@@std@@@1@V?$_Deque_const_iterator@V?$_Deque_val@U?$_Deque_simple_types@PEAUtagKeyContex@@@std@@@std@@@1@00@Z@4HA 000000018001eb42 f   Connector.obj
 0001:0001db4f       __catch$??$insert@V?$_Deque_const_iterator@V?$_Deque_val@U?$_Deque_simple_types@PEAUtagKeyContex@@@std@@@std@@@std@@@?$deque@PEAUtagKeyContex@@V?$allocator@PEAUtagKeyContex@@@std@@@std@@QEAA?AV?$_Deque_iterator@V?$_Deque_val@U?$_Deque_simple_types@PEAUtagKeyContex@@@std@@@std@@@1@V?$_Deque_const_iterator@V?$_Deque_val@U?$_Deque_simple_types@PEAUtagKeyContex@@@std@@@std@@@1@00@Z$2 000000018001eb4f f   Connector.obj
 0001:0001db82       ?dtor$5@?0???$insert@V?$_Deque_const_iterator@V?$_Deque_val@U?$_Deque_simple_types@PEAUtagKeyContex@@@std@@@std@@@std@@@?$deque@PEAUtagKeyContex@@V?$allocator@PEAUtagKeyContex@@@std@@@std@@QEAA?AV?$_Deque_iterator@V?$_Deque_val@U?$_Deque_simple_types@PEAUtagKeyContex@@@std@@@std@@@1@V?$_Deque_const_iterator@V?$_Deque_val@U?$_Deque_simple_types@PEAUtagKeyContex@@@std@@@std@@@1@00@Z@4HA 000000018001eb82 f   Connector.obj
 0001:0001db8e       ?dtor$6@?0???$insert@V?$_Deque_const_iterator@V?$_Deque_val@U?$_Deque_simple_types@PEAUtagKeyContex@@@std@@@std@@@std@@@?$deque@PEAUtagKeyContex@@V?$allocator@PEAUtagKeyContex@@@std@@@std@@QEAA?AV?$_Deque_iterator@V?$_Deque_val@U?$_Deque_simple_types@PEAUtagKeyContex@@@std@@@std@@@1@V?$_Deque_const_iterator@V?$_Deque_val@U?$_Deque_simple_types@PEAUtagKeyContex@@@std@@@std@@@1@00@Z@4HA 000000018001eb8e f   Connector.obj
 0001:0001db9a       ?dtor$7@?0???$insert@V?$_Deque_const_iterator@V?$_Deque_val@U?$_Deque_simple_types@PEAUtagKeyContex@@@std@@@std@@@std@@@?$deque@PEAUtagKeyContex@@V?$allocator@PEAUtagKeyContex@@@std@@@std@@QEAA?AV?$_Deque_iterator@V?$_Deque_val@U?$_Deque_simple_types@PEAUtagKeyContex@@@std@@@std@@@1@V?$_Deque_const_iterator@V?$_Deque_val@U?$_Deque_simple_types@PEAUtagKeyContex@@@std@@@std@@@1@00@Z@4HA 000000018001eb9a f   Connector.obj
 0001:0001dbb0       ?catch$0@?0???$_Construct@V?$_Deque_const_iterator@V?$_Deque_val@U?$_Deque_simple_types@PEAUtagKeyContex@@@std@@@std@@@std@@@?$deque@PEAUtagKeyContex@@V?$allocator@PEAUtagKeyContex@@@std@@@std@@QEAAXV?$_Deque_const_iterator@V?$_Deque_val@U?$_Deque_simple_types@PEAUtagKeyContex@@@std@@@std@@@1@0@Z@4HA 000000018001ebb0 f   Connector.obj
 0001:0001dbbd       __catch$??$_Construct@V?$_Deque_const_iterator@V?$_Deque_val@U?$_Deque_simple_types@PEAUtagKeyContex@@@std@@@std@@@std@@@?$deque@PEAUtagKeyContex@@V?$allocator@PEAUtagKeyContex@@@std@@@std@@QEAAXV?$_Deque_const_iterator@V?$_Deque_val@U?$_Deque_simple_types@PEAUtagKeyContex@@@std@@@std@@@1@0@Z$0 000000018001ebbd f   Connector.obj
 0001:0001dbd0       ?dtor$0@?0???$_Move_no_deprecate@V?$_Deque_iterator@V?$_Deque_val@U?$_Deque_simple_types@PEAUtagKeyContex@@@std@@@std@@@std@@V12@@std@@YA?AV?$_Deque_iterator@V?$_Deque_val@U?$_Deque_simple_types@PEAUtagKeyContex@@@std@@@std@@@0@V10@00@Z@4HA 000000018001ebd0 f   Connector.obj
 0001:0001dbd0       ?dtor$0@?0???$_Copy_no_deprecate@V?$_Deque_const_iterator@V?$_Deque_val@U?$_Deque_simple_types@U?$pair@_JPEAUtagKeyContex@@@std@@@std@@@std@@@std@@V?$_Deque_iterator@V?$_Deque_val@U?$_Deque_simple_types@U?$pair@_JPEAUtagKeyContex@@@std@@@std@@@std@@@2@@std@@YA?AV?$_Deque_iterator@V?$_Deque_val@U?$_Deque_simple_types@U?$pair@_JPEAUtagKeyContex@@@std@@@std@@@std@@@0@V?$_Deque_const_iterator@V?$_Deque_val@U?$_Deque_simple_types@U?$pair@_JPEAUtagKeyContex@@@std@@@std@@@std@@@0@0V10@@Z@4HA 000000018001ebd0 f   Connector.obj
 0001:0001dbd0       ?dtor$0@?0???$_Copy_no_deprecate@V?$_Deque_const_iterator@V?$_Deque_val@U?$_Deque_simple_types@PEAUtagKeyContex@@@std@@@std@@@std@@V?$_Deque_iterator@V?$_Deque_val@U?$_Deque_simple_types@PEAUtagKeyContex@@@std@@@std@@@2@@std@@YA?AV?$_Deque_iterator@V?$_Deque_val@U?$_Deque_simple_types@PEAUtagKeyContex@@@std@@@std@@@0@V?$_Deque_const_iterator@V?$_Deque_val@U?$_Deque_simple_types@PEAUtagKeyContex@@@std@@@std@@@0@0V10@@Z@4HA 000000018001ebd0 f   Connector.obj
 0001:0001dbd0       ?dtor$0@?0???$_Move_no_deprecate@V?$_Deque_iterator@V?$_Deque_val@U?$_Deque_simple_types@U?$pair@_JPEAUtagKeyContex@@@std@@@std@@@std@@@std@@V12@@std@@YA?AV?$_Deque_iterator@V?$_Deque_val@U?$_Deque_simple_types@U?$pair@_JPEAUtagKeyContex@@@std@@@std@@@std@@@0@V10@00@Z@4HA 000000018001ebd0 f   Connector.obj
 0001:0001dbd0       ?dtor$1@?0???$move_backward@V?$_Deque_iterator@V?$_Deque_val@U?$_Deque_simple_types@U?$pair@_JPEAUtagKeyContex@@@std@@@std@@@std@@@std@@V12@@std@@YA?AV?$_Deque_iterator@V?$_Deque_val@U?$_Deque_simple_types@U?$pair@_JPEAUtagKeyContex@@@std@@@std@@@std@@@0@V10@00@Z@4HA 000000018001ebd0 f   Connector.obj
 0001:0001dbd0       ?dtor$0@?0???$_Copy_no_deprecate@V?$_Deque_const_iterator@V?$_Deque_val@U?$_Deque_simple_types@U?$pair@_KPEAX@std@@@std@@@std@@@std@@V?$_Deque_iterator@V?$_Deque_val@U?$_Deque_simple_types@U?$pair@_KPEAX@std@@@std@@@std@@@2@@std@@YA?AV?$_Deque_iterator@V?$_Deque_val@U?$_Deque_simple_types@U?$pair@_KPEAX@std@@@std@@@std@@@0@V?$_Deque_const_iterator@V?$_Deque_val@U?$_Deque_simple_types@U?$pair@_KPEAX@std@@@std@@@std@@@0@0V10@@Z@4HA 000000018001ebd0 f   ProtocolComm.obj
 0001:0001dbd0       ?dtor$0@?0???$_Move_no_deprecate@V?$_Deque_iterator@V?$_Deque_val@U?$_Deque_simple_types@U?$pair@_KPEAX@std@@@std@@@std@@@std@@V12@@std@@YA?AV?$_Deque_iterator@V?$_Deque_val@U?$_Deque_simple_types@U?$pair@_KPEAX@std@@@std@@@std@@@0@V10@00@Z@4HA 000000018001ebd0 f   ProtocolComm.obj
 0001:0001dbd0       ?dtor$1@?0???$move_backward@V?$_Deque_iterator@V?$_Deque_val@U?$_Deque_simple_types@U?$pair@_KPEAX@std@@@std@@@std@@@std@@V12@@std@@YA?AV?$_Deque_iterator@V?$_Deque_val@U?$_Deque_simple_types@U?$pair@_KPEAX@std@@@std@@@std@@@0@V10@00@Z@4HA 000000018001ebd0 f   ProtocolComm.obj
 0001:0001dbd0       ?dtor$1@?0???$move_backward@V?$_Deque_iterator@V?$_Deque_val@U?$_Deque_simple_types@PEAUtagKeyContex@@@std@@@std@@@std@@V12@@std@@YA?AV?$_Deque_iterator@V?$_Deque_val@U?$_Deque_simple_types@PEAUtagKeyContex@@@std@@@std@@@0@V10@00@Z@4HA 000000018001ebd0 f   Connector.obj
 0001:0001dbe0       ?dtor$0@?0???0?$basic_stringstream@DU?$char_traits@D@std@@V?$allocator@D@2@@std@@QEAA@AEBV?$basic_string@DU?$char_traits@D@std@@V?$allocator@D@2@@1@H@Z@4HA 000000018001ebe0 f   Connector.obj
 0001:0001dc0e       ?dtor$1@?0???0?$basic_stringstream@DU?$char_traits@D@std@@V?$allocator@D@2@@std@@QEAA@AEBV?$basic_string@DU?$char_traits@D@std@@V?$allocator@D@2@@1@H@Z@4HA 000000018001ec0e f   Connector.obj
 0001:0001dc20       ?dtor$3@?0???0?$basic_stringstream@DU?$char_traits@D@std@@V?$allocator@D@2@@std@@QEAA@AEBV?$basic_string@DU?$char_traits@D@std@@V?$allocator@D@2@@1@H@Z@4HA 000000018001ec20 f   Connector.obj
 0001:0001dc2e       ?dtor$2@?0???0?$basic_stringstream@DU?$char_traits@D@std@@V?$allocator@D@2@@std@@QEAA@AEBV?$basic_string@DU?$char_traits@D@std@@V?$allocator@D@2@@1@H@Z@4HA 000000018001ec2e f   Connector.obj
 0001:0001dc40       ?catch$0@?0??_Buyheadnode@?$_Tree_comp_alloc@V?$_Tmap_traits@_KPEAXU?$less@_K@std@@V?$allocator@U?$pair@$$CB_KPEAX@std@@@2@$0A@@std@@@std@@QEAAPEAU?$_Tree_node@U?$pair@$$CB_KPEAX@std@@PEAX@2@XZ@4HA 000000018001ec40 f   ProtocolComm.obj
 0001:0001dc40       ?catch$0@?0??_Buyheadnode@?$_Tree_comp_alloc@V?$_Tmap_traits@_KPEAUtagKeyContex@@U?$less@_K@std@@V?$allocator@U?$pair@$$CB_KPEAUtagKeyContex@@@std@@@3@$0A@@std@@@std@@QEAAPEAU?$_Tree_node@U?$pair@$$CB_KPEAUtagKeyContex@@@std@@PEAX@2@XZ@4HA 000000018001ec40 f   Connector.obj
 0001:0001dc4d       __catch$?_Buyheadnode@?$_Tree_comp_alloc@V?$_Tmap_traits@_KPEAUtagKeyContex@@U?$less@_K@std@@V?$allocator@U?$pair@$$CB_KPEAUtagKeyContex@@@std@@@3@$0A@@std@@@std@@QEAAPEAU?$_Tree_node@U?$pair@$$CB_KPEAUtagKeyContex@@@std@@PEAX@2@XZ$0 000000018001ec4d f   Connector.obj
 0001:0001dc4d       __catch$?_Buyheadnode@?$_Tree_comp_alloc@V?$_Tmap_traits@_KPEAXU?$less@_K@std@@V?$allocator@U?$pair@$$CB_KPEAX@std@@@2@$0A@@std@@@std@@QEAAPEAU?$_Tree_node@U?$pair@$$CB_KPEAX@std@@PEAX@2@XZ$0 000000018001ec4d f   ProtocolComm.obj
 0001:0001dc60       ?catch$0@?0???$_Copy_nodes@U_Copy_tag@?$_Tree@V?$_Tmap_traits@_KPEAXU?$less@_K@std@@V?$allocator@U?$pair@$$CB_KPEAX@std@@@2@$0A@@std@@@std@@@?$_Tree@V?$_Tmap_traits@_KPEAXU?$less@_K@std@@V?$allocator@U?$pair@$$CB_KPEAX@std@@@2@$0A@@std@@@std@@IEAAPEAU?$_Tree_node@U?$pair@$$CB_KPEAX@std@@PEAX@1@PEAU21@0U_Copy_tag@01@@Z@4HA 000000018001ec60 f   ProtocolComm.obj
 0001:0001dc60       ?catch$0@?0???$_Copy_nodes@U_Copy_tag@?$_Tree@V?$_Tmap_traits@_KPEAUtagKeyContex@@U?$less@_K@std@@V?$allocator@U?$pair@$$CB_KPEAUtagKeyContex@@@std@@@3@$0A@@std@@@std@@@?$_Tree@V?$_Tmap_traits@_KPEAUtagKeyContex@@U?$less@_K@std@@V?$allocator@U?$pair@$$CB_KPEAUtagKeyContex@@@std@@@3@$0A@@std@@@std@@IEAAPEAU?$_Tree_node@U?$pair@$$CB_KPEAUtagKeyContex@@@std@@PEAX@1@PEAU21@0U_Copy_tag@01@@Z@4HA 000000018001ec60 f   Connector.obj
 0001:0001dc70       __catch$??$_Copy_nodes@U_Copy_tag@?$_Tree@V?$_Tmap_traits@_KPEAXU?$less@_K@std@@V?$allocator@U?$pair@$$CB_KPEAX@std@@@2@$0A@@std@@@std@@@?$_Tree@V?$_Tmap_traits@_KPEAXU?$less@_K@std@@V?$allocator@U?$pair@$$CB_KPEAX@std@@@2@$0A@@std@@@std@@IEAAPEAU?$_Tree_node@U?$pair@$$CB_KPEAX@std@@PEAX@1@PEAU21@0U_Copy_tag@01@@Z$0 000000018001ec70 f   ProtocolComm.obj
 0001:0001dc70       __catch$??$_Copy_nodes@U_Copy_tag@?$_Tree@V?$_Tmap_traits@_KPEAUtagKeyContex@@U?$less@_K@std@@V?$allocator@U?$pair@$$CB_KPEAUtagKeyContex@@@std@@@3@$0A@@std@@@std@@@?$_Tree@V?$_Tmap_traits@_KPEAUtagKeyContex@@U?$less@_K@std@@V?$allocator@U?$pair@$$CB_KPEAUtagKeyContex@@@std@@@3@$0A@@std@@@std@@IEAAPEAU?$_Tree_node@U?$pair@$$CB_KPEAUtagKeyContex@@@std@@PEAX@1@PEAU21@0U_Copy_tag@01@@Z$0 000000018001ec70 f   Connector.obj
 0001:0001dcb0       ?dtor$0@?0???$_Uninitialized_copy_al_unchecked1@PEAU?$pair@V?$basic_string@DU?$char_traits@D@std@@V?$allocator@D@2@@std@@H@std@@PEAU12@V?$allocator@U?$pair@V?$basic_string@DU?$char_traits@D@std@@V?$allocator@D@2@@std@@H@std@@@2@@std@@YAPEAU?$pair@V?$basic_string@DU?$char_traits@D@std@@V?$allocator@D@2@@std@@H@0@PEAU10@00AEAU?$_Wrap_alloc@V?$allocator@U?$pair@V?$basic_string@DU?$char_traits@D@std@@V?$allocator@D@2@@std@@H@std@@@std@@@0@U_General_ptr_iterator_tag@0@@Z@4HA 000000018001ecb0 f   Connector.obj
 0001:0001dcb0       ?dtor$0@?0???$_Uninitialized_copy_al_unchecked1@PEBU?$pair@V?$basic_string@DU?$char_traits@D@std@@V?$allocator@D@2@@std@@H@std@@PEAU12@V?$allocator@U?$pair@V?$basic_string@DU?$char_traits@D@std@@V?$allocator@D@2@@std@@H@std@@@2@@std@@YAPEAU?$pair@V?$basic_string@DU?$char_traits@D@std@@V?$allocator@D@2@@std@@H@0@PEBU10@0PEAU10@AEAU?$_Wrap_alloc@V?$allocator@U?$pair@V?$basic_string@DU?$char_traits@D@std@@V?$allocator@D@2@@std@@H@std@@@std@@@0@U_General_ptr_iterator_tag@0@@Z@4HA 000000018001ecb0 f   Connector.obj
 0001:0001dccc       ?dtor$1@?0???$_Uninitialized_copy_al_unchecked1@PEAU?$pair@V?$basic_string@DU?$char_traits@D@std@@V?$allocator@D@2@@std@@H@std@@PEAU12@V?$allocator@U?$pair@V?$basic_string@DU?$char_traits@D@std@@V?$allocator@D@2@@std@@H@std@@@2@@std@@YAPEAU?$pair@V?$basic_string@DU?$char_traits@D@std@@V?$allocator@D@2@@std@@H@0@PEAU10@00AEAU?$_Wrap_alloc@V?$allocator@U?$pair@V?$basic_string@DU?$char_traits@D@std@@V?$allocator@D@2@@std@@H@std@@@std@@@0@U_General_ptr_iterator_tag@0@@Z@4HA 000000018001eccc f   Connector.obj
 0001:0001dccc       ?dtor$1@?0???$_Uninitialized_copy_al_unchecked1@PEBU?$pair@V?$basic_string@DU?$char_traits@D@std@@V?$allocator@D@2@@std@@H@std@@PEAU12@V?$allocator@U?$pair@V?$basic_string@DU?$char_traits@D@std@@V?$allocator@D@2@@std@@H@std@@@2@@std@@YAPEAU?$pair@V?$basic_string@DU?$char_traits@D@std@@V?$allocator@D@2@@std@@H@0@PEBU10@0PEAU10@AEAU?$_Wrap_alloc@V?$allocator@U?$pair@V?$basic_string@DU?$char_traits@D@std@@V?$allocator@D@2@@std@@H@std@@@std@@@0@U_General_ptr_iterator_tag@0@@Z@4HA 000000018001eccc f   Connector.obj
 0001:0001dcd8       ?catch$0@?0???$_Uninitialized_copy_al_unchecked1@PEBU?$pair@V?$basic_string@DU?$char_traits@D@std@@V?$allocator@D@2@@std@@H@std@@PEAU12@V?$allocator@U?$pair@V?$basic_string@DU?$char_traits@D@std@@V?$allocator@D@2@@std@@H@std@@@2@@std@@YAPEAU?$pair@V?$basic_string@DU?$char_traits@D@std@@V?$allocator@D@2@@std@@H@0@PEBU10@0PEAU10@AEAU?$_Wrap_alloc@V?$allocator@U?$pair@V?$basic_string@DU?$char_traits@D@std@@V?$allocator@D@2@@std@@H@std@@@std@@@0@U_General_ptr_iterator_tag@0@@Z@4HA 000000018001ecd8 f   Connector.obj
 0001:0001dcd8       ?catch$0@?0???$_Uninitialized_copy_al_unchecked1@PEAU?$pair@V?$basic_string@DU?$char_traits@D@std@@V?$allocator@D@2@@std@@H@std@@PEAU12@V?$allocator@U?$pair@V?$basic_string@DU?$char_traits@D@std@@V?$allocator@D@2@@std@@H@std@@@2@@std@@YAPEAU?$pair@V?$basic_string@DU?$char_traits@D@std@@V?$allocator@D@2@@std@@H@0@PEAU10@00AEAU?$_Wrap_alloc@V?$allocator@U?$pair@V?$basic_string@DU?$char_traits@D@std@@V?$allocator@D@2@@std@@H@std@@@std@@@0@U_General_ptr_iterator_tag@0@@Z@4HA 000000018001ecd8 f   Connector.obj
 0001:0001dce7       __catch$??$_Uninitialized_copy_al_unchecked1@PEAU?$pair@V?$basic_string@DU?$char_traits@D@std@@V?$allocator@D@2@@std@@H@std@@PEAU12@V?$allocator@U?$pair@V?$basic_string@DU?$char_traits@D@std@@V?$allocator@D@2@@std@@H@std@@@2@@std@@YAPEAU?$pair@V?$basic_string@DU?$char_traits@D@std@@V?$allocator@D@2@@std@@H@0@PEAU10@00AEAU?$_Wrap_alloc@V?$allocator@U?$pair@V?$basic_string@DU?$char_traits@D@std@@V?$allocator@D@2@@std@@H@std@@@std@@@0@U_General_ptr_iterator_tag@0@@Z$0 000000018001ece7 f   Connector.obj
 0001:0001dce7       __catch$??$_Uninitialized_copy_al_unchecked1@PEBU?$pair@V?$basic_string@DU?$char_traits@D@std@@V?$allocator@D@2@@std@@H@std@@PEAU12@V?$allocator@U?$pair@V?$basic_string@DU?$char_traits@D@std@@V?$allocator@D@2@@std@@H@std@@@2@@std@@YAPEAU?$pair@V?$basic_string@DU?$char_traits@D@std@@V?$allocator@D@2@@std@@H@0@PEBU10@0PEAU10@AEAU?$_Wrap_alloc@V?$allocator@U?$pair@V?$basic_string@DU?$char_traits@D@std@@V?$allocator@D@2@@std@@H@std@@@std@@@0@U_General_ptr_iterator_tag@0@@Z$0 000000018001ece7 f   Connector.obj
 0001:0001dd13       ?dtor$2@?0???$_Uninitialized_copy_al_unchecked1@PEAU?$pair@V?$basic_string@DU?$char_traits@D@std@@V?$allocator@D@2@@std@@H@std@@PEAU12@V?$allocator@U?$pair@V?$basic_string@DU?$char_traits@D@std@@V?$allocator@D@2@@std@@H@std@@@2@@std@@YAPEAU?$pair@V?$basic_string@DU?$char_traits@D@std@@V?$allocator@D@2@@std@@H@0@PEAU10@00AEAU?$_Wrap_alloc@V?$allocator@U?$pair@V?$basic_string@DU?$char_traits@D@std@@V?$allocator@D@2@@std@@H@std@@@std@@@0@U_General_ptr_iterator_tag@0@@Z@4HA 000000018001ed13 f   Connector.obj
 0001:0001dd13       ?dtor$2@?0???$_Uninitialized_copy_al_unchecked1@PEBU?$pair@V?$basic_string@DU?$char_traits@D@std@@V?$allocator@D@2@@std@@H@std@@PEAU12@V?$allocator@U?$pair@V?$basic_string@DU?$char_traits@D@std@@V?$allocator@D@2@@std@@H@std@@@2@@std@@YAPEAU?$pair@V?$basic_string@DU?$char_traits@D@std@@V?$allocator@D@2@@std@@H@0@PEBU10@0PEAU10@AEAU?$_Wrap_alloc@V?$allocator@U?$pair@V?$basic_string@DU?$char_traits@D@std@@V?$allocator@D@2@@std@@H@std@@@std@@@0@U_General_ptr_iterator_tag@0@@Z@4HA 000000018001ed13 f   Connector.obj
 0001:0001dd20       ?catch$0@?0???$_Buynode@AEAU?$pair@$$CB_KPEAX@std@@@?$_Tree_comp_alloc@V?$_Tmap_traits@_KPEAXU?$less@_K@std@@V?$allocator@U?$pair@$$CB_KPEAX@std@@@2@$0A@@std@@@std@@QEAAPEAU?$_Tree_node@U?$pair@$$CB_KPEAX@std@@PEAX@1@AEAU?$pair@$$CB_KPEAX@1@@Z@4HA 000000018001ed20 f   ProtocolComm.obj
 0001:0001dd20       ?catch$0@?0???$_Buynode@AEAU?$pair@$$CB_KPEAUtagKeyContex@@@std@@@?$_Tree_comp_alloc@V?$_Tmap_traits@_KPEAUtagKeyContex@@U?$less@_K@std@@V?$allocator@U?$pair@$$CB_KPEAUtagKeyContex@@@std@@@3@$0A@@std@@@std@@QEAAPEAU?$_Tree_node@U?$pair@$$CB_KPEAUtagKeyContex@@@std@@PEAX@1@AEAU?$pair@$$CB_KPEAUtagKeyContex@@@1@@Z@4HA 000000018001ed20 f   Connector.obj
 0001:0001dd2d       __catch$??$_Buynode@AEAU?$pair@$$CB_KPEAX@std@@@?$_Tree_comp_alloc@V?$_Tmap_traits@_KPEAXU?$less@_K@std@@V?$allocator@U?$pair@$$CB_KPEAX@std@@@2@$0A@@std@@@std@@QEAAPEAU?$_Tree_node@U?$pair@$$CB_KPEAX@std@@PEAX@1@AEAU?$pair@$$CB_KPEAX@1@@Z$0 000000018001ed2d f   ProtocolComm.obj
 0001:0001dd2d       __catch$??$_Buynode@AEAU?$pair@$$CB_KPEAUtagKeyContex@@@std@@@?$_Tree_comp_alloc@V?$_Tmap_traits@_KPEAUtagKeyContex@@U?$less@_K@std@@V?$allocator@U?$pair@$$CB_KPEAUtagKeyContex@@@std@@@3@$0A@@std@@@std@@QEAAPEAU?$_Tree_node@U?$pair@$$CB_KPEAUtagKeyContex@@@std@@PEAX@1@AEAU?$pair@$$CB_KPEAUtagKeyContex@@@1@@Z$0 000000018001ed2d f   Connector.obj
 0001:0001dd40       ?dtor$0@?0???$_Uninitialized_move_al_unchecked1@PEAU?$pair@V?$basic_string@DU?$char_traits@D@std@@V?$allocator@D@2@@std@@H@std@@PEAU12@V?$allocator@U?$pair@V?$basic_string@DU?$char_traits@D@std@@V?$allocator@D@2@@std@@H@std@@@2@@std@@YAPEAU?$pair@V?$basic_string@DU?$char_traits@D@std@@V?$allocator@D@2@@std@@H@0@PEAU10@00AEAU?$_Wrap_alloc@V?$allocator@U?$pair@V?$basic_string@DU?$char_traits@D@std@@V?$allocator@D@2@@std@@H@std@@@std@@@0@U_General_ptr_iterator_tag@0@@Z@4HA 000000018001ed40 f   Connector.obj
 0001:0001dd4c       ?catch$0@?0???$_Uninitialized_move_al_unchecked1@PEAU?$pair@V?$basic_string@DU?$char_traits@D@std@@V?$allocator@D@2@@std@@H@std@@PEAU12@V?$allocator@U?$pair@V?$basic_string@DU?$char_traits@D@std@@V?$allocator@D@2@@std@@H@std@@@2@@std@@YAPEAU?$pair@V?$basic_string@DU?$char_traits@D@std@@V?$allocator@D@2@@std@@H@0@PEAU10@00AEAU?$_Wrap_alloc@V?$allocator@U?$pair@V?$basic_string@DU?$char_traits@D@std@@V?$allocator@D@2@@std@@H@std@@@std@@@0@U_General_ptr_iterator_tag@0@@Z@4HA 000000018001ed4c f   Connector.obj
 0001:0001dd5b       __catch$??$_Uninitialized_move_al_unchecked1@PEAU?$pair@V?$basic_string@DU?$char_traits@D@std@@V?$allocator@D@2@@std@@H@std@@PEAU12@V?$allocator@U?$pair@V?$basic_string@DU?$char_traits@D@std@@V?$allocator@D@2@@std@@H@std@@@2@@std@@YAPEAU?$pair@V?$basic_string@DU?$char_traits@D@std@@V?$allocator@D@2@@std@@H@0@PEAU10@00AEAU?$_Wrap_alloc@V?$allocator@U?$pair@V?$basic_string@DU?$char_traits@D@std@@V?$allocator@D@2@@std@@H@std@@@std@@@0@U_General_ptr_iterator_tag@0@@Z$0 000000018001ed5b f   Connector.obj
 0001:0001dd87       ?dtor$1@?0???$_Uninitialized_move_al_unchecked1@PEAU?$pair@V?$basic_string@DU?$char_traits@D@std@@V?$allocator@D@2@@std@@H@std@@PEAU12@V?$allocator@U?$pair@V?$basic_string@DU?$char_traits@D@std@@V?$allocator@D@2@@std@@H@std@@@2@@std@@YAPEAU?$pair@V?$basic_string@DU?$char_traits@D@std@@V?$allocator@D@2@@std@@H@0@PEAU10@00AEAU?$_Wrap_alloc@V?$allocator@U?$pair@V?$basic_string@DU?$char_traits@D@std@@V?$allocator@D@2@@std@@H@std@@@std@@@0@U_General_ptr_iterator_tag@0@@Z@4HA 000000018001ed87 f   Connector.obj
 0001:0001dda0       ?catch$0@?0???$_Uninitialized_move_al_unchecked1@PEAV?$basic_string@DU?$char_traits@D@std@@V?$allocator@D@2@@std@@PEAV12@V?$allocator@V?$basic_string@DU?$char_traits@D@std@@V?$allocator@D@2@@std@@@2@@std@@YAPEAV?$basic_string@DU?$char_traits@D@std@@V?$allocator@D@2@@0@PEAV10@00AEAU?$_Wrap_alloc@V?$allocator@V?$basic_string@DU?$char_traits@D@std@@V?$allocator@D@2@@std@@@std@@@0@U_General_ptr_iterator_tag@0@@Z@4HA 000000018001eda0 f   Connector.obj
 0001:0001ddaf       __catch$??$_Uninitialized_move_al_unchecked1@PEAV?$basic_string@DU?$char_traits@D@std@@V?$allocator@D@2@@std@@PEAV12@V?$allocator@V?$basic_string@DU?$char_traits@D@std@@V?$allocator@D@2@@std@@@2@@std@@YAPEAV?$basic_string@DU?$char_traits@D@std@@V?$allocator@D@2@@0@PEAV10@00AEAU?$_Wrap_alloc@V?$allocator@V?$basic_string@DU?$char_traits@D@std@@V?$allocator@D@2@@std@@@std@@@0@U_General_ptr_iterator_tag@0@@Z$0 000000018001edaf f   Connector.obj
 0001:0001dde0       ?catch$0@?0??_Buynode0@?$_Tree_comp_alloc@V?$_Tmap_traits@_KPEAUtagKeyContex@@U?$less@_K@std@@V?$allocator@U?$pair@$$CB_KPEAUtagKeyContex@@@std@@@3@$0A@@std@@@std@@QEAAPEAU?$_Tree_node@U?$pair@$$CB_KPEAUtagKeyContex@@@std@@PEAX@2@XZ@4HA 000000018001ede0 f   Connector.obj
 0001:0001dde0       ?catch$0@?0??_Buynode0@?$_Tree_comp_alloc@V?$_Tmap_traits@_KPEAXU?$less@_K@std@@V?$allocator@U?$pair@$$CB_KPEAX@std@@@2@$0A@@std@@@std@@QEAAPEAU?$_Tree_node@U?$pair@$$CB_KPEAX@std@@PEAX@2@XZ@4HA 000000018001ede0 f   ProtocolComm.obj
 0001:0001dded       __catch$?_Buynode0@?$_Tree_comp_alloc@V?$_Tmap_traits@_KPEAXU?$less@_K@std@@V?$allocator@U?$pair@$$CB_KPEAX@std@@@2@$0A@@std@@@std@@QEAAPEAU?$_Tree_node@U?$pair@$$CB_KPEAX@std@@PEAX@2@XZ$0 000000018001eded f   ProtocolComm.obj
 0001:0001dded       __catch$?_Buynode0@?$_Tree_comp_alloc@V?$_Tmap_traits@_KPEAUtagKeyContex@@U?$less@_K@std@@V?$allocator@U?$pair@$$CB_KPEAUtagKeyContex@@@std@@@3@$0A@@std@@@std@@QEAAPEAU?$_Tree_node@U?$pair@$$CB_KPEAUtagKeyContex@@@std@@PEAX@2@XZ$0 000000018001eded f   Connector.obj
 0001:0001de00       ?dtor$0@?0???1CListener@@UEAA@XZ@4HA 000000018001ee00 f   Listener.obj
 0001:0001de20       ?dtor$0@?0??Init@CListener@@UEAAHPEAVCConfig@@@Z@4HA 000000018001ee20 f   Listener.obj
 0001:0001de2c       ?dtor$1@?0??Init@CListener@@UEAAHPEAVCConfig@@@Z@4HA 000000018001ee2c f   Listener.obj
 0001:0001de38       ?dtor$2@?0??Init@CListener@@UEAAHPEAVCConfig@@@Z@4HA 000000018001ee38 f   Listener.obj
 0001:0001de44       ?dtor$3@?0??Init@CListener@@UEAAHPEAVCConfig@@@Z@4HA 000000018001ee44 f   Listener.obj
 0001:0001de50       ?dtor$4@?0??Init@CListener@@UEAAHPEAVCConfig@@@Z@4HA 000000018001ee50 f   Listener.obj
 0001:0001de5c       ?dtor$5@?0??Init@CListener@@UEAAHPEAVCConfig@@@Z@4HA 000000018001ee5c f   Listener.obj
 0001:0001de68       ?dtor$6@?0??Init@CListener@@UEAAHPEAVCConfig@@@Z@4HA 000000018001ee68 f   Listener.obj
 0001:0001de80       ?dtor$0@?0??OnAccept@CListener@@UEAAH_KAEBV?$basic_string@DU?$char_traits@D@std@@V?$allocator@D@2@@std@@H@Z@4HA 000000018001ee80 f   Listener.obj
 0001:0001de8c       ?dtor$1@?0??OnAccept@CListener@@UEAAH_KAEBV?$basic_string@DU?$char_traits@D@std@@V?$allocator@D@2@@std@@H@Z@4HA 000000018001ee8c f   Listener.obj
 0001:0001dea0       ?dtor$0@?0??OnAccept@CListener@@UEAAHXZ@4HA 000000018001eea0 f   Listener.obj
 0001:0001deac       ?dtor$1@?0??OnAccept@CListener@@UEAAHXZ@4HA 000000018001eeac f   Listener.obj
 0001:0001deb8       ?dtor$2@?0??OnAccept@CListener@@UEAAHXZ@4HA 000000018001eeb8 f   Listener.obj
 0001:0001ded0       ?dtor$0@?0???0CProtocolCommWorker@CProtocolCommImp@@QEAA@XZ@4HA 000000018001eed0 f   ProtocolComm.obj
 0001:0001dedc       ?dtor$3@?0???0CProtocolCommWorker@CProtocolCommImp@@QEAA@XZ@4HA 000000018001eedc f   ProtocolComm.obj
 0001:0001dee8       ?dtor$1@?0???0CProtocolCommWorker@CProtocolCommImp@@QEAA@XZ@4HA 000000018001eee8 f   ProtocolComm.obj
 0001:0001defb       ?dtor$2@?0???0CProtocolCommWorker@CProtocolCommImp@@QEAA@XZ@4HA 000000018001eefb f   ProtocolComm.obj
 0001:0001df10       ?dtor$0@?0???0CSelector@@QEAA@AEBV0@@Z@4HA 000000018001ef10 f   ProtocolComm.obj
 0001:0001df1c       ?dtor$8@?0???0CSelector@@QEAA@AEBV0@@Z@4HA 000000018001ef1c f   ProtocolComm.obj
 0001:0001df2c       ?dtor$9@?0???0CSelector@@QEAA@AEBV0@@Z@4HA 000000018001ef2c f   ProtocolComm.obj
 0001:0001df3e       ?dtor$1@?0???0CSelector@@QEAA@AEBV0@@Z@4HA 000000018001ef3e f   ProtocolComm.obj
 0001:0001df51       ?dtor$2@?0???0CSelector@@QEAA@AEBV0@@Z@4HA 000000018001ef51 f   ProtocolComm.obj
 0001:0001df64       ?dtor$3@?0???0CSelector@@QEAA@AEBV0@@Z@4HA 000000018001ef64 f   ProtocolComm.obj
 0001:0001df77       ?dtor$4@?0???0CSelector@@QEAA@AEBV0@@Z@4HA 000000018001ef77 f   ProtocolComm.obj
 0001:0001df8a       ?dtor$10@?0???0CSelector@@QEAA@AEBV0@@Z@4HA 000000018001ef8a f   ProtocolComm.obj
 0001:0001df96       ?dtor$5@?0???0CSelector@@QEAA@AEBV0@@Z@4HA 000000018001ef96 f   ProtocolComm.obj
 0001:0001dfa9       ?dtor$6@?0???0CSelector@@QEAA@AEBV0@@Z@4HA 000000018001efa9 f   ProtocolComm.obj
 0001:0001dfbe       ?dtor$7@?0???0CSelector@@QEAA@AEBV0@@Z@4HA 000000018001efbe f   ProtocolComm.obj
 0001:0001dfe0       ?dtor$2@?0???0CSelectorListen@@IEAA@XZ@4HA 000000018001efe0 f   ProtocolComm.obj
 0001:0001dfe0       ?dtor$2@?0???0CSelectorIo@@IEAA@XZ@4HA 000000018001efe0 f   ProtocolComm.obj
 0001:0001dff2       ?dtor$0@?0???0CSelectorIo@@IEAA@XZ@4HA 000000018001eff2 f   ProtocolComm.obj
 0001:0001dff2       ?dtor$0@?0???0CSelectorListen@@IEAA@XZ@4HA 000000018001eff2 f   ProtocolComm.obj
 0001:0001e01f       ?dtor$1@?0???0CSelectorIo@@IEAA@XZ@4HA 000000018001f01f f   ProtocolComm.obj
 0001:0001e01f       ?dtor$1@?0???0CSelectorListen@@IEAA@XZ@4HA 000000018001f01f f   ProtocolComm.obj
 0001:0001e030       ?dtor$0@?0???1CSelectorListen@@MEAA@XZ@4HA 000000018001f030 f   ProtocolComm.obj
 0001:0001e030       ?dtor$0@?0???1CSelectorIo@@MEAA@XZ@4HA 000000018001f030 f   ProtocolComm.obj
 0001:0001e040       ?dtor$0@?0???_DCSelectorListen@@IEAAXXZ@4HA 000000018001f040 f   ProtocolComm.obj
 0001:0001e040       ?dtor$0@?0???_DCSelectorIo@@IEAAXXZ@4HA 000000018001f040 f   ProtocolComm.obj
 0001:0001e04c       ?dtor$1@?0???_DCSelectorListen@@IEAAXXZ@4HA 000000018001f04c f   ProtocolComm.obj
 0001:0001e04c       ?dtor$1@?0???_DCSelectorIo@@IEAAXXZ@4HA 000000018001f04c f   ProtocolComm.obj
 0001:0001e060       ?dtor$6@?0???0CProtocolCommImp@@QEAA@XZ@4HA 000000018001f060 f   ProtocolComm.obj
 0001:0001e072       ?dtor$5@?0???0CProtocolCommImp@@QEAA@XZ@4HA 000000018001f072 f   ProtocolComm.obj
 0001:0001e07e       ?dtor$0@?0???0CProtocolCommImp@@QEAA@XZ@4HA 000000018001f07e f   ProtocolComm.obj
 0001:0001e08a       ?dtor$1@?0???0CProtocolCommImp@@QEAA@XZ@4HA 000000018001f08a f   ProtocolComm.obj
 0001:0001e09a       ?dtor$2@?0???0CProtocolCommImp@@QEAA@XZ@4HA 000000018001f09a f   ProtocolComm.obj
 0001:0001e0aa       ?dtor$8@?0???0CProtocolCommImp@@QEAA@XZ@4HA 000000018001f0aa f   ProtocolComm.obj
 0001:0001e0b6       ?dtor$7@?0???0CProtocolCommImp@@QEAA@XZ@4HA 000000018001f0b6 f   ProtocolComm.obj
 0001:0001e0c2       ?dtor$3@?0???0CProtocolCommImp@@QEAA@XZ@4HA 000000018001f0c2 f   ProtocolComm.obj
 0001:0001e0d5       ?dtor$4@?0???0CProtocolCommImp@@QEAA@XZ@4HA 000000018001f0d5 f   ProtocolComm.obj
 0001:0001e0f0       ?dtor$0@?0???1CProtocolCommImp@@UEAA@XZ@4HA 000000018001f0f0 f   ProtocolComm.obj
 0001:0001e0fc       ?dtor$1@?0???1CProtocolCommImp@@UEAA@XZ@4HA 000000018001f0fc f   ProtocolComm.obj
 0001:0001e10c       ?dtor$2@?0???1CProtocolCommImp@@UEAA@XZ@4HA 000000018001f10c f   ProtocolComm.obj
 0001:0001e11c       ?dtor$3@?0???1CProtocolCommImp@@UEAA@XZ@4HA 000000018001f11c f   ProtocolComm.obj
 0001:0001e12f       ?dtor$4@?0???1CProtocolCommImp@@UEAA@XZ@4HA 000000018001f12f f   ProtocolComm.obj
 0001:0001e144       ?dtor$5@?0???1CProtocolCommImp@@UEAA@XZ@4HA 000000018001f144 f   ProtocolComm.obj
 0001:0001e150       ?dtor$6@?0???1CProtocolCommImp@@UEAA@XZ@4HA 000000018001f150 f   ProtocolComm.obj
 0001:0001e15c       ?dtor$7@?0???1CProtocolCommImp@@UEAA@XZ@4HA 000000018001f15c f   ProtocolComm.obj
 0001:0001e168       ?dtor$8@?0???1CProtocolCommImp@@UEAA@XZ@4HA 000000018001f168 f   ProtocolComm.obj
 0001:0001e180       ?dtor$0@?0??RegisterAio@CProtocolCommImp@@IEAAHPEAVCProtocolProcess@@@Z@4HA 000000018001f180 f   ProtocolComm.obj
 0001:0001e18c       ?dtor$1@?0??RegisterAio@CProtocolCommImp@@IEAAHPEAVCProtocolProcess@@@Z@4HA 000000018001f18c f   ProtocolComm.obj
 0001:0001e1a0       ?catch$0@?0??SendData@CProtocolCommImp@@UEAAHPEAVCProtocolProcess@@PEBDH@Z@4HA 000000018001f1a0 f   ProtocolComm.obj
 0001:0001e1ad       __catch$?SendData@CProtocolCommImp@@UEAAHPEAVCProtocolProcess@@PEBDH@Z$0 000000018001f1ad f   ProtocolComm.obj
 0001:0001e200       ?dtor$0@?0??Handle@CProtocolCommImp@@AEAAHPEAUtagKeyContex@@@Z@4HA 000000018001f200 f   ProtocolComm.obj
 0001:0001e20c       ?dtor$1@?0??Handle@CProtocolCommImp@@AEAAHPEAUtagKeyContex@@@Z@4HA 000000018001f20c f   ProtocolComm.obj
 0001:0001e218       ?catch$0@?0??Handle@CProtocolCommImp@@AEAAHPEAUtagKeyContex@@@Z@4HA 000000018001f218 f   ProtocolComm.obj
 0001:0001e225       __catch$?Handle@CProtocolCommImp@@AEAAHPEAUtagKeyContex@@@Z$0 000000018001f225 f   ProtocolComm.obj
 0001:0001e280       ?dtor$0@?0??Init@CProtocolCommClient@@UEAAHPEAVCConfig@@@Z@4HA 000000018001f280 f   ProtocolComm.obj
 0001:0001e2a0       ?dtor$0@?0??OnAccept@CProtocolCommServer@@MEAAH_KV?$basic_string@DU?$char_traits@D@std@@V?$allocator@D@2@@std@@H1H@Z@4HA 000000018001f2a0 f   ProtocolComm.obj
 0001:0001e2a0       ?dtor$0@?0??OnConnect@CProtocolCommClient@@MEAAH_KV?$basic_string@DU?$char_traits@D@std@@V?$allocator@D@2@@std@@H1HH@Z@4HA 000000018001f2a0 f   ProtocolComm.obj
 0001:0001e2ac       ?dtor$1@?0??OnConnect@CProtocolCommClient@@MEAAH_KV?$basic_string@DU?$char_traits@D@std@@V?$allocator@D@2@@std@@H1HH@Z@4HA 000000018001f2ac f   ProtocolComm.obj
 0001:0001e2ac       ?dtor$1@?0??OnAccept@CProtocolCommServer@@MEAAH_KV?$basic_string@DU?$char_traits@D@std@@V?$allocator@D@2@@std@@H1H@Z@4HA 000000018001f2ac f   ProtocolComm.obj
 0001:0001e2c0       ?dtor$0@?0??Init@CTcpShortComm@@QEAAHPEAVCConfig@@@Z@4HA 000000018001f2c0 f   ProtocolComm.obj
 0001:0001e2cc       ?dtor$1@?0??Init@CTcpShortComm@@QEAAHPEAVCConfig@@@Z@4HA 000000018001f2cc f   ProtocolComm.obj
 0001:0001e2d8       ?dtor$2@?0??Init@CTcpShortComm@@QEAAHPEAVCConfig@@@Z@4HA 000000018001f2d8 f   ProtocolComm.obj
 0001:0001e2e4       ?dtor$3@?0??Init@CTcpShortComm@@QEAAHPEAVCConfig@@@Z@4HA 000000018001f2e4 f   ProtocolComm.obj
 0001:0001e2f0       ?dtor$0@?0??SetProxy@CTcpShortComm@@QEAAXHV?$basic_string@DU?$char_traits@D@std@@V?$allocator@D@2@@std@@H00@Z@4HA 000000018001f2f0 f   ProtocolComm.obj
 0001:0001e2fc       ?dtor$1@?0??SetProxy@CTcpShortComm@@QEAAXHV?$basic_string@DU?$char_traits@D@std@@V?$allocator@D@2@@std@@H00@Z@4HA 000000018001f2fc f   ProtocolComm.obj
 0001:0001e308       ?dtor$2@?0??SetProxy@CTcpShortComm@@QEAAXHV?$basic_string@DU?$char_traits@D@std@@V?$allocator@D@2@@std@@H00@Z@4HA 000000018001f308 f   ProtocolComm.obj
 0001:0001e320       ?dtor$0@?0??LoginProxy@CTcpShortComm@@AEAAHXZ@4HA 000000018001f320 f   ProtocolComm.obj
 0001:0001e32c       ?dtor$1@?0??LoginProxy@CTcpShortComm@@AEAAHXZ@4HA 000000018001f32c f   ProtocolComm.obj
 0001:0001e338       ?dtor$2@?0??LoginProxy@CTcpShortComm@@AEAAHXZ@4HA 000000018001f338 f   ProtocolComm.obj
 0001:0001e344       ?dtor$3@?0??LoginProxy@CTcpShortComm@@AEAAHXZ@4HA 000000018001f344 f   ProtocolComm.obj
 0001:0001e350       ?dtor$4@?0??LoginProxy@CTcpShortComm@@AEAAHXZ@4HA 000000018001f350 f   ProtocolComm.obj
 0001:0001e35c       ?dtor$5@?0??LoginProxy@CTcpShortComm@@AEAAHXZ@4HA 000000018001f35c f   ProtocolComm.obj
 0001:0001e368       ?dtor$6@?0??LoginProxy@CTcpShortComm@@AEAAHXZ@4HA 000000018001f368 f   ProtocolComm.obj
 0001:0001e374       ?dtor$7@?0??LoginProxy@CTcpShortComm@@AEAAHXZ@4HA 000000018001f374 f   ProtocolComm.obj
 0001:0001e380       ?dtor$8@?0??LoginProxy@CTcpShortComm@@AEAAHXZ@4HA 000000018001f380 f   ProtocolComm.obj
 0001:0001e38c       ?dtor$9@?0??LoginProxy@CTcpShortComm@@AEAAHXZ@4HA 000000018001f38c f   ProtocolComm.obj
 0001:0001e398       ?dtor$10@?0??LoginProxy@CTcpShortComm@@AEAAHXZ@4HA 000000018001f398 f   ProtocolComm.obj
 0001:0001e3a4       ?dtor$11@?0??LoginProxy@CTcpShortComm@@AEAAHXZ@4HA 000000018001f3a4 f   ProtocolComm.obj
 0001:0001e3b0       ?dtor$12@?0??LoginProxy@CTcpShortComm@@AEAAHXZ@4HA 000000018001f3b0 f   ProtocolComm.obj
 0001:0001e3bc       ?dtor$13@?0??LoginProxy@CTcpShortComm@@AEAAHXZ@4HA 000000018001f3bc f   ProtocolComm.obj
 0001:0001e3c8       ?dtor$14@?0??LoginProxy@CTcpShortComm@@AEAAHXZ@4HA 000000018001f3c8 f   ProtocolComm.obj
 0001:0001e3d4       ?dtor$15@?0??LoginProxy@CTcpShortComm@@AEAAHXZ@4HA 000000018001f3d4 f   ProtocolComm.obj
 0001:0001e3e0       ?dtor$0@?0??Instance@?$CSingleton@VCSelectorListen@@@@SAPEAVCSelectorListen@@XZ@4HA 000000018001f3e0 f   ProtocolComm.obj
 0001:0001e3e0       ?dtor$0@?0??Instance@?$CSingleton@VCSelectorIo@@@@SAPEAVCSelectorIo@@XZ@4HA 000000018001f3e0 f   ProtocolComm.obj
 0001:0001e400       ?catch$0@?0???4?$vector@PEAVCSelectorWorker@@V?$allocator@PEAVCSelectorWorker@@@std@@@std@@QEAAAEAV01@AEBV01@@Z@4HA 000000018001f400 f   ProtocolComm.obj
 0001:0001e400       ?catch$0@?0???4?$vector@PEAVCGessMutex@@V?$allocator@PEAVCGessMutex@@@std@@@std@@QEAAAEAV01@AEBV01@@Z@4HA 000000018001f400 f   ProtocolComm.obj
 0001:0001e40e       __catch$??4?$vector@PEAVCSelectorWorker@@V?$allocator@PEAVCSelectorWorker@@@std@@@std@@QEAAAEAV01@AEBV01@@Z$0 000000018001f40e f   ProtocolComm.obj
 0001:0001e40e       __catch$??4?$vector@PEAVCGessMutex@@V?$allocator@PEAVCGessMutex@@@std@@@std@@QEAAAEAV01@AEBV01@@Z$0 000000018001f40e f   ProtocolComm.obj
 0001:0001e450       ?catch$0@?0???0?$vector@PEAVCSelectorWorker@@V?$allocator@PEAVCSelectorWorker@@@std@@@std@@QEAA@AEBV01@@Z@4HA 000000018001f450 f   ProtocolComm.obj
 0001:0001e450       ?catch$0@?0???0?$vector@PEAVCGessMutex@@V?$allocator@PEAVCGessMutex@@@std@@@std@@QEAA@AEBV01@@Z@4HA 000000018001f450 f   ProtocolComm.obj
 0001:0001e45e       __catch$??0?$vector@PEAVCGessMutex@@V?$allocator@PEAVCGessMutex@@@std@@@std@@QEAA@AEBV01@@Z$0 000000018001f45e f   ProtocolComm.obj
 0001:0001e45e       __catch$??0?$vector@PEAVCSelectorWorker@@V?$allocator@PEAVCSelectorWorker@@@std@@@std@@QEAA@AEBV01@@Z$0 000000018001f45e f   ProtocolComm.obj
 0001:0001e4a0       ?catch$0@?0???4?$vector@V?$deque@U?$pair@_KPEAX@std@@V?$allocator@U?$pair@_KPEAX@std@@@2@@std@@V?$allocator@V?$deque@U?$pair@_KPEAX@std@@V?$allocator@U?$pair@_KPEAX@std@@@2@@std@@@2@@std@@QEAAAEAV01@AEBV01@@Z@4HA 000000018001f4a0 f   ProtocolComm.obj
 0001:0001e4ad       __catch$??4?$vector@V?$deque@U?$pair@_KPEAX@std@@V?$allocator@U?$pair@_KPEAX@std@@@2@@std@@V?$allocator@V?$deque@U?$pair@_KPEAX@std@@V?$allocator@U?$pair@_KPEAX@std@@@2@@std@@@2@@std@@QEAAAEAV01@AEBV01@@Z$0 000000018001f4ad f   ProtocolComm.obj
 0001:0001e4c0       ?catch$0@?0???0?$vector@V?$deque@U?$pair@_KPEAX@std@@V?$allocator@U?$pair@_KPEAX@std@@@2@@std@@V?$allocator@V?$deque@U?$pair@_KPEAX@std@@V?$allocator@U?$pair@_KPEAX@std@@@2@@std@@@2@@std@@QEAA@AEBV01@@Z@4HA 000000018001f4c0 f   ProtocolComm.obj
 0001:0001e4cd       __catch$??0?$vector@V?$deque@U?$pair@_KPEAX@std@@V?$allocator@U?$pair@_KPEAX@std@@@2@@std@@V?$allocator@V?$deque@U?$pair@_KPEAX@std@@V?$allocator@U?$pair@_KPEAX@std@@@2@@std@@@2@@std@@QEAA@AEBV01@@Z$0 000000018001f4cd f   ProtocolComm.obj
 0001:0001e4e0       ?dtor$0@?0???1sentry@?$basic_ostream@DU?$char_traits@D@std@@@std@@QEAA@XZ@4HA 000000018001f4e0 f   ProtocolComm.obj
 0001:0001e4f0       ?dtor$1@?0???$?6U?$char_traits@D@std@@@std@@YAAEAV?$basic_ostream@DU?$char_traits@D@std@@@0@AEAV10@PEBD@Z@4HA 000000018001f4f0 f   ProtocolComm.obj
 0001:0001e4fc       ?dtor$0@?0???$?6U?$char_traits@D@std@@@std@@YAAEAV?$basic_ostream@DU?$char_traits@D@std@@@0@AEAV10@PEBD@Z@4HA 000000018001f4fc f   ProtocolComm.obj
 0001:0001e508       ?catch$0@?0???$?6U?$char_traits@D@std@@@std@@YAAEAV?$basic_ostream@DU?$char_traits@D@std@@@0@AEAV10@PEBD@Z@4HA 000000018001f508 f   ProtocolComm.obj
 0001:0001e515       __catch$??$?6U?$char_traits@D@std@@@std@@YAAEAV?$basic_ostream@DU?$char_traits@D@std@@@0@AEAV10@PEBD@Z$0 000000018001f515 f   ProtocolComm.obj
 0001:0001e540       ?dtor$2@?0???$?6U?$char_traits@D@std@@@std@@YAAEAV?$basic_ostream@DU?$char_traits@D@std@@@0@AEAV10@PEBD@Z@4HA 000000018001f540 f   ProtocolComm.obj
 0001:0001e550       ?dtor$1@?0???$?6DU?$char_traits@D@std@@V?$allocator@D@1@@std@@YAAEAV?$basic_ostream@DU?$char_traits@D@std@@@0@AEAV10@AEBV?$basic_string@DU?$char_traits@D@std@@V?$allocator@D@2@@0@@Z@4HA 000000018001f550 f   ProtocolComm.obj
 0001:0001e55c       ?dtor$0@?0???$?6DU?$char_traits@D@std@@V?$allocator@D@1@@std@@YAAEAV?$basic_ostream@DU?$char_traits@D@std@@@0@AEAV10@AEBV?$basic_string@DU?$char_traits@D@std@@V?$allocator@D@2@@0@@Z@4HA 000000018001f55c f   ProtocolComm.obj
 0001:0001e568       ?catch$0@?0???$?6DU?$char_traits@D@std@@V?$allocator@D@1@@std@@YAAEAV?$basic_ostream@DU?$char_traits@D@std@@@0@AEAV10@AEBV?$basic_string@DU?$char_traits@D@std@@V?$allocator@D@2@@0@@Z@4HA 000000018001f568 f   ProtocolComm.obj
 0001:0001e575       __catch$??$?6DU?$char_traits@D@std@@V?$allocator@D@1@@std@@YAAEAV?$basic_ostream@DU?$char_traits@D@std@@@0@AEAV10@AEBV?$basic_string@DU?$char_traits@D@std@@V?$allocator@D@2@@0@@Z$0 000000018001f575 f   ProtocolComm.obj
 0001:0001e5a0       ?dtor$2@?0???$?6DU?$char_traits@D@std@@V?$allocator@D@1@@std@@YAAEAV?$basic_ostream@DU?$char_traits@D@std@@@0@AEAV10@AEBV?$basic_string@DU?$char_traits@D@std@@V?$allocator@D@2@@0@@Z@4HA 000000018001f5a0 f   ProtocolComm.obj
 0001:0001e5b0       ?dtor$0@?0???$_Uninitialized_copy_al_unchecked1@PEAV?$deque@U?$pair@_KPEAX@std@@V?$allocator@U?$pair@_KPEAX@std@@@2@@std@@PEAV12@V?$allocator@V?$deque@U?$pair@_KPEAX@std@@V?$allocator@U?$pair@_KPEAX@std@@@2@@std@@@2@@std@@YAPEAV?$deque@U?$pair@_KPEAX@std@@V?$allocator@U?$pair@_KPEAX@std@@@2@@0@PEAV10@00AEAU?$_Wrap_alloc@V?$allocator@V?$deque@U?$pair@_KPEAX@std@@V?$allocator@U?$pair@_KPEAX@std@@@2@@std@@@std@@@0@U_General_ptr_iterator_tag@0@@Z@4HA 000000018001f5b0 f   ProtocolComm.obj
 0001:0001e5b0       ?dtor$0@?0???$_Uninitialized_copy_al_unchecked1@PEBV?$deque@U?$pair@_KPEAX@std@@V?$allocator@U?$pair@_KPEAX@std@@@2@@std@@PEAV12@V?$allocator@V?$deque@U?$pair@_KPEAX@std@@V?$allocator@U?$pair@_KPEAX@std@@@2@@std@@@2@@std@@YAPEAV?$deque@U?$pair@_KPEAX@std@@V?$allocator@U?$pair@_KPEAX@std@@@2@@0@PEBV10@0PEAV10@AEAU?$_Wrap_alloc@V?$allocator@V?$deque@U?$pair@_KPEAX@std@@V?$allocator@U?$pair@_KPEAX@std@@@2@@std@@@std@@@0@U_General_ptr_iterator_tag@0@@Z@4HA 000000018001f5b0 f   ProtocolComm.obj
 0001:0001e5cc       ?catch$0@?0???$_Uninitialized_copy_al_unchecked1@PEBV?$deque@U?$pair@_KPEAX@std@@V?$allocator@U?$pair@_KPEAX@std@@@2@@std@@PEAV12@V?$allocator@V?$deque@U?$pair@_KPEAX@std@@V?$allocator@U?$pair@_KPEAX@std@@@2@@std@@@2@@std@@YAPEAV?$deque@U?$pair@_KPEAX@std@@V?$allocator@U?$pair@_KPEAX@std@@@2@@0@PEBV10@0PEAV10@AEAU?$_Wrap_alloc@V?$allocator@V?$deque@U?$pair@_KPEAX@std@@V?$allocator@U?$pair@_KPEAX@std@@@2@@std@@@std@@@0@U_General_ptr_iterator_tag@0@@Z@4HA 000000018001f5cc f   ProtocolComm.obj
 0001:0001e5cc       ?catch$0@?0???$_Uninitialized_copy_al_unchecked1@PEAV?$deque@U?$pair@_KPEAX@std@@V?$allocator@U?$pair@_KPEAX@std@@@2@@std@@PEAV12@V?$allocator@V?$deque@U?$pair@_KPEAX@std@@V?$allocator@U?$pair@_KPEAX@std@@@2@@std@@@2@@std@@YAPEAV?$deque@U?$pair@_KPEAX@std@@V?$allocator@U?$pair@_KPEAX@std@@@2@@0@PEAV10@00AEAU?$_Wrap_alloc@V?$allocator@V?$deque@U?$pair@_KPEAX@std@@V?$allocator@U?$pair@_KPEAX@std@@@2@@std@@@std@@@0@U_General_ptr_iterator_tag@0@@Z@4HA 000000018001f5cc f   ProtocolComm.obj
 0001:0001e5db       __catch$??$_Uninitialized_copy_al_unchecked1@PEAV?$deque@U?$pair@_KPEAX@std@@V?$allocator@U?$pair@_KPEAX@std@@@2@@std@@PEAV12@V?$allocator@V?$deque@U?$pair@_KPEAX@std@@V?$allocator@U?$pair@_KPEAX@std@@@2@@std@@@2@@std@@YAPEAV?$deque@U?$pair@_KPEAX@std@@V?$allocator@U?$pair@_KPEAX@std@@@2@@0@PEAV10@00AEAU?$_Wrap_alloc@V?$allocator@V?$deque@U?$pair@_KPEAX@std@@V?$allocator@U?$pair@_KPEAX@std@@@2@@std@@@std@@@0@U_General_ptr_iterator_tag@0@@Z$0 000000018001f5db f   ProtocolComm.obj
 0001:0001e5db       __catch$??$_Uninitialized_copy_al_unchecked1@PEBV?$deque@U?$pair@_KPEAX@std@@V?$allocator@U?$pair@_KPEAX@std@@@2@@std@@PEAV12@V?$allocator@V?$deque@U?$pair@_KPEAX@std@@V?$allocator@U?$pair@_KPEAX@std@@@2@@std@@@2@@std@@YAPEAV?$deque@U?$pair@_KPEAX@std@@V?$allocator@U?$pair@_KPEAX@std@@@2@@0@PEBV10@0PEAV10@AEAU?$_Wrap_alloc@V?$allocator@V?$deque@U?$pair@_KPEAX@std@@V?$allocator@U?$pair@_KPEAX@std@@@2@@std@@@std@@@0@U_General_ptr_iterator_tag@0@@Z$0 000000018001f5db f   ProtocolComm.obj
 0001:0001e617       ?dtor$1@?0???$_Uninitialized_copy_al_unchecked1@PEBV?$deque@U?$pair@_KPEAX@std@@V?$allocator@U?$pair@_KPEAX@std@@@2@@std@@PEAV12@V?$allocator@V?$deque@U?$pair@_KPEAX@std@@V?$allocator@U?$pair@_KPEAX@std@@@2@@std@@@2@@std@@YAPEAV?$deque@U?$pair@_KPEAX@std@@V?$allocator@U?$pair@_KPEAX@std@@@2@@0@PEBV10@0PEAV10@AEAU?$_Wrap_alloc@V?$allocator@V?$deque@U?$pair@_KPEAX@std@@V?$allocator@U?$pair@_KPEAX@std@@@2@@std@@@std@@@0@U_General_ptr_iterator_tag@0@@Z@4HA 000000018001f617 f   ProtocolComm.obj
 0001:0001e617       ?dtor$1@?0???$_Uninitialized_copy_al_unchecked1@PEAV?$deque@U?$pair@_KPEAX@std@@V?$allocator@U?$pair@_KPEAX@std@@@2@@std@@PEAV12@V?$allocator@V?$deque@U?$pair@_KPEAX@std@@V?$allocator@U?$pair@_KPEAX@std@@@2@@std@@@2@@std@@YAPEAV?$deque@U?$pair@_KPEAX@std@@V?$allocator@U?$pair@_KPEAX@std@@@2@@0@PEAV10@00AEAU?$_Wrap_alloc@V?$allocator@V?$deque@U?$pair@_KPEAX@std@@V?$allocator@U?$pair@_KPEAX@std@@@2@@std@@@std@@@0@U_General_ptr_iterator_tag@0@@Z@4HA 000000018001f617 f   ProtocolComm.obj
 0001:0001e630       ?dtor$0@?0???$_Buynode@AEBUpiecewise_construct_t@std@@V?$tuple@AEB_K@2@V?$tuple@$$V@2@@?$_Tree_comp_alloc@V?$_Tmap_traits@_KPEAUtagKeyContex@@U?$less@_K@std@@V?$allocator@U?$pair@$$CB_KPEAUtagKeyContex@@@std@@@3@$0A@@std@@@std@@QEAAPEAU?$_Tree_node@U?$pair@$$CB_KPEAUtagKeyContex@@@std@@PEAX@1@AEBUpiecewise_construct_t@1@$$QEAV?$tuple@AEB_K@1@$$QEAV?$tuple@$$V@1@@Z@4HA 000000018001f630 f   ProtocolComm.obj
 0001:0001e630       ?dtor$0@?0???$_Buynode@AEBUpiecewise_construct_t@std@@V?$tuple@AEB_K@2@V?$tuple@$$V@2@@?$_Tree_comp_alloc@V?$_Tmap_traits@_KPEAXU?$less@_K@std@@V?$allocator@U?$pair@$$CB_KPEAX@std@@@2@$0A@@std@@@std@@QEAAPEAU?$_Tree_node@U?$pair@$$CB_KPEAX@std@@PEAX@1@AEBUpiecewise_construct_t@1@$$QEAV?$tuple@AEB_K@1@$$QEAV?$tuple@$$V@1@@Z@4HA 000000018001f630 f   Selector.obj
 0001:0001e64c       ?catch$0@?0???$_Buynode@AEBUpiecewise_construct_t@std@@V?$tuple@AEB_K@2@V?$tuple@$$V@2@@?$_Tree_comp_alloc@V?$_Tmap_traits@_KPEAXU?$less@_K@std@@V?$allocator@U?$pair@$$CB_KPEAX@std@@@2@$0A@@std@@@std@@QEAAPEAU?$_Tree_node@U?$pair@$$CB_KPEAX@std@@PEAX@1@AEBUpiecewise_construct_t@1@$$QEAV?$tuple@AEB_K@1@$$QEAV?$tuple@$$V@1@@Z@4HA 000000018001f64c f   Selector.obj
 0001:0001e64c       ?catch$0@?0???$_Buynode@AEBUpiecewise_construct_t@std@@V?$tuple@AEB_K@2@V?$tuple@$$V@2@@?$_Tree_comp_alloc@V?$_Tmap_traits@_KPEAUtagKeyContex@@U?$less@_K@std@@V?$allocator@U?$pair@$$CB_KPEAUtagKeyContex@@@std@@@3@$0A@@std@@@std@@QEAAPEAU?$_Tree_node@U?$pair@$$CB_KPEAUtagKeyContex@@@std@@PEAX@1@AEBUpiecewise_construct_t@1@$$QEAV?$tuple@AEB_K@1@$$QEAV?$tuple@$$V@1@@Z@4HA 000000018001f64c f   ProtocolComm.obj
 0001:0001e659       __catch$??$_Buynode@AEBUpiecewise_construct_t@std@@V?$tuple@AEB_K@2@V?$tuple@$$V@2@@?$_Tree_comp_alloc@V?$_Tmap_traits@_KPEAUtagKeyContex@@U?$less@_K@std@@V?$allocator@U?$pair@$$CB_KPEAUtagKeyContex@@@std@@@3@$0A@@std@@@std@@QEAAPEAU?$_Tree_node@U?$pair@$$CB_KPEAUtagKeyContex@@@std@@PEAX@1@AEBUpiecewise_construct_t@1@$$QEAV?$tuple@AEB_K@1@$$QEAV?$tuple@$$V@1@@Z$0 000000018001f659 f   ProtocolComm.obj
 0001:0001e659       __catch$??$_Buynode@AEBUpiecewise_construct_t@std@@V?$tuple@AEB_K@2@V?$tuple@$$V@2@@?$_Tree_comp_alloc@V?$_Tmap_traits@_KPEAXU?$less@_K@std@@V?$allocator@U?$pair@$$CB_KPEAX@std@@@2@$0A@@std@@@std@@QEAAPEAU?$_Tree_node@U?$pair@$$CB_KPEAX@std@@PEAX@1@AEBUpiecewise_construct_t@1@$$QEAV?$tuple@AEB_K@1@$$QEAV?$tuple@$$V@1@@Z$0 000000018001f659 f   Selector.obj
 0001:0001e670       ?catch$0@?0???$_Insert_hint@AEAU?$pair@$$CB_KPEAX@std@@PEAU?$_Tree_node@U?$pair@$$CB_KPEAX@std@@PEAX@2@@?$_Tree@V?$_Tmap_traits@_KPEAXU?$less@_K@std@@V?$allocator@U?$pair@$$CB_KPEAX@std@@@2@$0A@@std@@@std@@IEAA?AV?$_Tree_iterator@V?$_Tree_val@U?$_Tree_simple_types@U?$pair@$$CB_KPEAX@std@@@std@@@std@@@1@V?$_Tree_const_iterator@V?$_Tree_val@U?$_Tree_simple_types@U?$pair@$$CB_KPEAX@std@@@std@@@std@@@1@AEAU?$pair@$$CB_KPEAX@1@PEAU?$_Tree_node@U?$pair@$$CB_KPEAX@std@@PEAX@1@@Z@4HA 000000018001f670 f   Selector.obj
 0001:0001e670       ?catch$0@?0???$_Insert_hint@AEAU?$pair@$$CB_KPEAUtagKeyContex@@@std@@PEAU?$_Tree_node@U?$pair@$$CB_KPEAUtagKeyContex@@@std@@PEAX@2@@?$_Tree@V?$_Tmap_traits@_KPEAUtagKeyContex@@U?$less@_K@std@@V?$allocator@U?$pair@$$CB_KPEAUtagKeyContex@@@std@@@3@$0A@@std@@@std@@IEAA?AV?$_Tree_iterator@V?$_Tree_val@U?$_Tree_simple_types@U?$pair@$$CB_KPEAUtagKeyContex@@@std@@@std@@@std@@@1@V?$_Tree_const_iterator@V?$_Tree_val@U?$_Tree_simple_types@U?$pair@$$CB_KPEAUtagKeyContex@@@std@@@std@@@std@@@1@AEAU?$pair@$$CB_KPEAUtagKeyContex@@@1@PEAU?$_Tree_node@U?$pair@$$CB_KPEAUtagKeyContex@@@std@@PEAX@1@@Z@4HA 000000018001f670 f   ProtocolComm.obj
 0001:0001e67d       __catch$??$_Insert_hint@AEAU?$pair@$$CB_KPEAUtagKeyContex@@@std@@PEAU?$_Tree_node@U?$pair@$$CB_KPEAUtagKeyContex@@@std@@PEAX@2@@?$_Tree@V?$_Tmap_traits@_KPEAUtagKeyContex@@U?$less@_K@std@@V?$allocator@U?$pair@$$CB_KPEAUtagKeyContex@@@std@@@3@$0A@@std@@@std@@IEAA?AV?$_Tree_iterator@V?$_Tree_val@U?$_Tree_simple_types@U?$pair@$$CB_KPEAUtagKeyContex@@@std@@@std@@@std@@@1@V?$_Tree_const_iterator@V?$_Tree_val@U?$_Tree_simple_types@U?$pair@$$CB_KPEAUtagKeyContex@@@std@@@std@@@std@@@1@AEAU?$pair@$$CB_KPEAUtagKeyContex@@@1@PEAU?$_Tree_node@U?$pair@$$CB_KPEAUtagKeyContex@@@std@@PEAX@1@@Z$0 000000018001f67d f   ProtocolComm.obj
 0001:0001e67d       __catch$??$_Insert_hint@AEAU?$pair@$$CB_KPEAX@std@@PEAU?$_Tree_node@U?$pair@$$CB_KPEAX@std@@PEAX@2@@?$_Tree@V?$_Tmap_traits@_KPEAXU?$less@_K@std@@V?$allocator@U?$pair@$$CB_KPEAX@std@@@2@$0A@@std@@@std@@IEAA?AV?$_Tree_iterator@V?$_Tree_val@U?$_Tree_simple_types@U?$pair@$$CB_KPEAX@std@@@std@@@std@@@1@V?$_Tree_const_iterator@V?$_Tree_val@U?$_Tree_simple_types@U?$pair@$$CB_KPEAX@std@@@std@@@std@@@1@AEAU?$pair@$$CB_KPEAX@1@PEAU?$_Tree_node@U?$pair@$$CB_KPEAX@std@@PEAX@1@@Z$0 000000018001f67d f   Selector.obj
 0001:0001e6a0       ?catch$0@?0???$_Insert_nohint@AEAU?$pair@$$CB_KPEAUtagKeyContex@@@std@@PEAU?$_Tree_node@U?$pair@$$CB_KPEAUtagKeyContex@@@std@@PEAX@2@@?$_Tree@V?$_Tmap_traits@_KPEAUtagKeyContex@@U?$less@_K@std@@V?$allocator@U?$pair@$$CB_KPEAUtagKeyContex@@@std@@@3@$0A@@std@@@std@@IEAA?AU?$pair@V?$_Tree_iterator@V?$_Tree_val@U?$_Tree_simple_types@U?$pair@$$CB_KPEAUtagKeyContex@@@std@@@std@@@std@@@std@@_N@1@_NAEAU?$pair@$$CB_KPEAUtagKeyContex@@@1@PEAU?$_Tree_node@U?$pair@$$CB_KPEAUtagKeyContex@@@std@@PEAX@1@@Z@4HA 000000018001f6a0 f   ProtocolComm.obj
 0001:0001e6a0       ?catch$0@?0???$_Insert_nohint@AEAU?$pair@$$CB_KPEAX@std@@PEAU?$_Tree_node@U?$pair@$$CB_KPEAX@std@@PEAX@2@@?$_Tree@V?$_Tmap_traits@_KPEAXU?$less@_K@std@@V?$allocator@U?$pair@$$CB_KPEAX@std@@@2@$0A@@std@@@std@@IEAA?AU?$pair@V?$_Tree_iterator@V?$_Tree_val@U?$_Tree_simple_types@U?$pair@$$CB_KPEAX@std@@@std@@@std@@@std@@_N@1@_NAEAU?$pair@$$CB_KPEAX@1@PEAU?$_Tree_node@U?$pair@$$CB_KPEAX@std@@PEAX@1@@Z@4HA 000000018001f6a0 f   Selector.obj
 0001:0001e6ad       __catch$??$_Insert_nohint@AEAU?$pair@$$CB_KPEAUtagKeyContex@@@std@@PEAU?$_Tree_node@U?$pair@$$CB_KPEAUtagKeyContex@@@std@@PEAX@2@@?$_Tree@V?$_Tmap_traits@_KPEAUtagKeyContex@@U?$less@_K@std@@V?$allocator@U?$pair@$$CB_KPEAUtagKeyContex@@@std@@@3@$0A@@std@@@std@@IEAA?AU?$pair@V?$_Tree_iterator@V?$_Tree_val@U?$_Tree_simple_types@U?$pair@$$CB_KPEAUtagKeyContex@@@std@@@std@@@std@@@std@@_N@1@_NAEAU?$pair@$$CB_KPEAUtagKeyContex@@@1@PEAU?$_Tree_node@U?$pair@$$CB_KPEAUtagKeyContex@@@std@@PEAX@1@@Z$0 000000018001f6ad f   ProtocolComm.obj
 0001:0001e6ad       __catch$??$_Insert_nohint@AEAU?$pair@$$CB_KPEAX@std@@PEAU?$_Tree_node@U?$pair@$$CB_KPEAX@std@@PEAX@2@@?$_Tree@V?$_Tmap_traits@_KPEAXU?$less@_K@std@@V?$allocator@U?$pair@$$CB_KPEAX@std@@@2@$0A@@std@@@std@@IEAA?AU?$pair@V?$_Tree_iterator@V?$_Tree_val@U?$_Tree_simple_types@U?$pair@$$CB_KPEAX@std@@@std@@@std@@@std@@_N@1@_NAEAU?$pair@$$CB_KPEAX@1@PEAU?$_Tree_node@U?$pair@$$CB_KPEAX@std@@PEAX@1@@Z$0 000000018001f6ad f   Selector.obj
 0001:0001e6d0       ?dtor$0@?0???0CAppProcess@@QEAA@AEBV0@@Z@4HA 000000018001f6d0 f   ProtocolProcess.obj
 0001:0001e6d0       ?dtor$0@?0???0CAppProcess@@QEAA@XZ@4HA 000000018001f6d0 f   ProtocolProcess.obj
 0001:0001e6e0       ?dtor$1@?0???0CAppProcess@@QEAA@XZ@4HA 000000018001f6e0 f   ProtocolProcess.obj
 0001:0001e6e0       ?dtor$1@?0???0CAppProcess@@QEAA@AEBV0@@Z@4HA 000000018001f6e0 f   ProtocolProcess.obj
 0001:0001e6f0       ?dtor$2@?0???0CAppProcess@@QEAA@XZ@4HA 000000018001f6f0 f   ProtocolProcess.obj
 0001:0001e6f0       ?dtor$2@?0???0CAppProcess@@QEAA@AEBV0@@Z@4HA 000000018001f6f0 f   ProtocolProcess.obj
 0001:0001e700       ?dtor$3@?0???0CAppProcess@@QEAA@AEBV0@@Z@4HA 000000018001f700 f   ProtocolProcess.obj
 0001:0001e700       ?dtor$3@?0???0CAppProcess@@QEAA@XZ@4HA 000000018001f700 f   ProtocolProcess.obj
 0001:0001e720       ?dtor$0@?0???1CAppProcess@@UEAA@XZ@4HA 000000018001f720 f   ProtocolProcess.obj
 0001:0001e737       ?dtor$1@?0???1CAppProcess@@UEAA@XZ@4HA 000000018001f737 f   ProtocolProcess.obj
 0001:0001e74e       ?dtor$2@?0???1CAppProcess@@UEAA@XZ@4HA 000000018001f74e f   ProtocolProcess.obj
 0001:0001e765       ?dtor$3@?0???1CAppProcess@@UEAA@XZ@4HA 000000018001f765 f   ProtocolProcess.obj
 0001:0001e790       ?dtor$0@?0??DestroyTimer@CAppProcess@@IEAAXXZ@4HA 000000018001f790 f   ProtocolProcess.obj
 0001:0001e790       ?dtor$0@?0??CreateTimer@CAppProcess@@IEAAHAEAK@Z@4HA 000000018001f790 f   ProtocolProcess.obj
 0001:0001e7a0       ?dtor$0@?0??OnLogin@CAppProcessServer@@MEAAHH@Z@4HA 000000018001f7a0 f   ProtocolProcess.obj
 0001:0001e7a0       ?dtor$0@?0??OnLogin@CAppProcessClient@@MEAAHH@Z@4HA 000000018001f7a0 f   ProtocolProcess.obj
 0001:0001e7ac       ?dtor$1@?0??OnLogin@CAppProcessClient@@MEAAHH@Z@4HA 000000018001f7ac f   ProtocolProcess.obj
 0001:0001e7ac       ?dtor$1@?0??OnLogin@CAppProcessServer@@MEAAHH@Z@4HA 000000018001f7ac f   ProtocolProcess.obj
 0001:0001e7c0       ?dtor$3@?0???0CAppProcessServer@@QEAA@XZ@4HA 000000018001f7c0 f   ProtocolProcess.obj
 0001:0001e7cc       ?dtor$2@?0???0CAppProcessServer@@QEAA@XZ@4HA 000000018001f7cc f   ProtocolProcess.obj
 0001:0001e7d8       ?dtor$1@?0???0CAppProcessServer@@QEAA@XZ@4HA 000000018001f7d8 f   ProtocolProcess.obj
 0001:0001e7f0       ?dtor$0@?0???1CAppProcessServer@@UEAA@XZ@4HA 000000018001f7f0 f   ProtocolProcess.obj
 0001:0001e804       ?dtor$1@?0???1CAppProcessServer@@UEAA@XZ@4HA 000000018001f804 f   ProtocolProcess.obj
 0001:0001e810       ?dtor$2@?0???1CAppProcessServer@@UEAA@XZ@4HA 000000018001f810 f   ProtocolProcess.obj
 0001:0001e820       ?dtor$0@?0??RemoveKey@CAppProcessServer@@QEAAXV?$basic_string@DU?$char_traits@D@std@@V?$allocator@D@2@@std@@@Z@4HA 000000018001f820 f   ProtocolProcess.obj
 0001:0001e830       ?dtor$0@?0??OnRecvPacket@CAppProcessServer@@IEAAHV?$basic_string@DU?$char_traits@D@std@@V?$allocator@D@2@@std@@AEAVCPacket@@@Z@4HA 000000018001f830 f   ProtocolProcess.obj
 0001:0001e840       ?dtor$0@?0???0CAppProcessServer@@QEAA@AEBV0@@Z@4HA 000000018001f840 f   ProtocolProcess.obj
 0001:0001e850       ?dtor$0@?0???0CTcpHandlerLong@@QEAA@AEBV0@@Z@4HA 000000018001f850 f   ProtocolProcess.obj
 0001:0001e850       ?dtor$0@?0???0CTcpHandlerLong@@QEAA@XZ@4HA 000000018001f850 f   ProtocolProcess.obj
 0001:0001e870       ?dtor$0@?0???_ECTcpHandlerLong@@UEAAPEAXI@Z@4HA 000000018001f870 f   ProtocolProcess.obj
 0001:0001e890       ?dtor$4@?0??SendPacket@CTcpShortProcess@@UEAAHAEAVCPacket@@0I@Z@4HA 000000018001f890 f   ProtocolProcess.obj
 0001:0001e89c       ?dtor$3@?0??SendPacket@CTcpShortProcess@@UEAAHAEAVCPacket@@0I@Z@4HA 000000018001f89c f   ProtocolProcess.obj
 0001:0001e8a8       ?dtor$0@?0??SendPacket@CTcpShortProcess@@UEAAHAEAVCPacket@@0I@Z@4HA 000000018001f8a8 f   ProtocolProcess.obj
 0001:0001e8b4       ?dtor$1@?0??SendPacket@CTcpShortProcess@@UEAAHAEAVCPacket@@0I@Z@4HA 000000018001f8b4 f   ProtocolProcess.obj
 0001:0001e8d4       ?dtor$2@?0??SendPacket@CTcpShortProcess@@UEAAHAEAVCPacket@@0I@Z@4HA 000000018001f8d4 f   ProtocolProcess.obj
 0001:0001e8f4       ?dtor$5@?0??SendPacket@CTcpShortProcess@@UEAAHAEAVCPacket@@0I@Z@4HA 000000018001f8f4 f   ProtocolProcess.obj
 0001:0001e900       ?dtor$6@?0??SendPacket@CTcpShortProcess@@UEAAHAEAVCPacket@@0I@Z@4HA 000000018001f900 f   ProtocolProcess.obj
 0001:0001e910       ?dtor$0@?0???1CTcpHandlerLong@@UEAA@XZ@4HA 000000018001f910 f   ProtocolProcess.obj
 0001:0001e930       ?catch$0@?0??OnRecvTcp@CTcpHandlerLong@@QEAAHPEADH@Z@4HA 000000018001f930 f   ProtocolProcess.obj
 0001:0001e93d       __catch$?OnRecvTcp@CTcpHandlerLong@@QEAAHPEADH@Z$0 000000018001f93d f   ProtocolProcess.obj
 0001:0001e9ad       ?dtor$0@?0??OnRecvTcp@CTcpHandlerLong@@QEAAHPEADH@Z@4HA 000000018001f9ad f   ProtocolProcess.obj
 0001:0001e9b9       ?catch$1@?0??OnRecvTcp@CTcpHandlerLong@@QEAAHPEADH@Z@4HA 000000018001f9b9 f   ProtocolProcess.obj
 0001:0001e9c6       __catch$?OnRecvTcp@CTcpHandlerLong@@QEAAHPEADH@Z$1 000000018001f9c6 f   ProtocolProcess.obj
 0001:0001ea20       ?catch$0@?0??OnRecvTcp@CTcpHandlerLong@@QEAAHXZ@4HA 000000018001fa20 f   ProtocolProcess.obj
 0001:0001ea2d       __catch$?OnRecvTcp@CTcpHandlerLong@@QEAAHXZ$0 000000018001fa2d f   ProtocolProcess.obj
 0001:0001ea9d       ?dtor$0@?0??OnRecvTcp@CTcpHandlerLong@@QEAAHXZ@4HA 000000018001fa9d f   ProtocolProcess.obj
 0001:0001eaa9       ?catch$1@?0??OnRecvTcp@CTcpHandlerLong@@QEAAHXZ@4HA 000000018001faa9 f   ProtocolProcess.obj
 0001:0001eab6       __catch$?OnRecvTcp@CTcpHandlerLong@@QEAAHXZ$1 000000018001fab6 f   ProtocolProcess.obj
 0001:0001eb10       ?dtor$0@?0???1?$list@V?$basic_string@DU?$char_traits@D@std@@V?$allocator@D@2@@std@@V?$allocator@V?$basic_string@DU?$char_traits@D@std@@V?$allocator@D@2@@std@@@2@@std@@QEAA@XZ@4HA 000000018001fb10 f   ProtocolProcess.obj
 0001:0001eb10       ?dtor$0@?0???1?$list@PEAUtagBuf@@V?$allocator@PEAUtagBuf@@@std@@@std@@QEAA@XZ@4HA 000000018001fb10 f   ProtocolProcess.obj
 0001:0001eb1c       ?dtor$1@?0???1?$list@V?$basic_string@DU?$char_traits@D@std@@V?$allocator@D@2@@std@@V?$allocator@V?$basic_string@DU?$char_traits@D@std@@V?$allocator@D@2@@std@@@2@@std@@QEAA@XZ@4HA 000000018001fb1c f   ProtocolProcess.obj
 0001:0001eb1c       ?dtor$1@?0???1?$list@PEAUtagBuf@@V?$allocator@PEAUtagBuf@@@std@@@std@@QEAA@XZ@4HA 000000018001fb1c f   ProtocolProcess.obj
 0001:0001eb30       ?dtor$1@?0???0?$list@V?$basic_string@DU?$char_traits@D@std@@V?$allocator@D@2@@std@@V?$allocator@V?$basic_string@DU?$char_traits@D@std@@V?$allocator@D@2@@std@@@2@@std@@QEAA@AEBV01@@Z@4HA 000000018001fb30 f   ProtocolProcess.obj
 0001:0001eb3c       ?dtor$0@?0???0?$list@V?$basic_string@DU?$char_traits@D@std@@V?$allocator@D@2@@std@@V?$allocator@V?$basic_string@DU?$char_traits@D@std@@V?$allocator@D@2@@std@@@2@@std@@QEAA@AEBV01@@Z@4HA 000000018001fb3c f   ProtocolProcess.obj
 0001:0001eb48       ?catch$0@?0???0?$list@V?$basic_string@DU?$char_traits@D@std@@V?$allocator@D@2@@std@@V?$allocator@V?$basic_string@DU?$char_traits@D@std@@V?$allocator@D@2@@std@@@2@@std@@QEAA@AEBV01@@Z@4HA 000000018001fb48 f   ProtocolProcess.obj
 0001:0001eb55       __catch$??0?$list@V?$basic_string@DU?$char_traits@D@std@@V?$allocator@D@2@@std@@V?$allocator@V?$basic_string@DU?$char_traits@D@std@@V?$allocator@D@2@@std@@@2@@std@@QEAA@AEBV01@@Z$0 000000018001fb55 f   ProtocolProcess.obj
 0001:0001eb70       ?catch$0@?0??_Buynode0@?$_List_alloc@U?$_List_base_types@PEAUtagBuf@@V?$allocator@PEAUtagBuf@@@std@@@std@@@std@@QEAAPEAU?$_List_node@PEAUtagBuf@@PEAX@2@PEAU32@0@Z@4HA 000000018001fb70 f   ProtocolProcess.obj
 0001:0001eb7d       __catch$?_Buynode0@?$_List_alloc@U?$_List_base_types@PEAUtagBuf@@V?$allocator@PEAUtagBuf@@@std@@@std@@@std@@QEAAPEAU?$_List_node@PEAUtagBuf@@PEAX@2@PEAU32@0@Z$0 000000018001fb7d f   ProtocolProcess.obj
 0001:0001eb90       ?catch$0@?0??_Buynode0@?$_List_alloc@U?$_List_base_types@V?$basic_string@DU?$char_traits@D@std@@V?$allocator@D@2@@std@@V?$allocator@V?$basic_string@DU?$char_traits@D@std@@V?$allocator@D@2@@std@@@2@@std@@@std@@QEAAPEAU?$_List_node@V?$basic_string@DU?$char_traits@D@std@@V?$allocator@D@2@@std@@PEAX@2@PEAU32@0@Z@4HA 000000018001fb90 f   ProtocolProcess.obj
 0001:0001eb9d       __catch$?_Buynode0@?$_List_alloc@U?$_List_base_types@V?$basic_string@DU?$char_traits@D@std@@V?$allocator@D@2@@std@@V?$allocator@V?$basic_string@DU?$char_traits@D@std@@V?$allocator@D@2@@std@@@2@@std@@@std@@QEAAPEAU?$_List_node@V?$basic_string@DU?$char_traits@D@std@@V?$allocator@D@2@@std@@PEAX@2@PEAU32@0@Z$0 000000018001fb9d f   ProtocolProcess.obj
 0001:0001ebb0       ?catch$0@?0???$assign@V?$_List_const_iterator@V?$_List_val@U?$_List_simple_types@V?$basic_string@DU?$char_traits@D@std@@V?$allocator@D@2@@std@@@std@@@std@@@std@@@?$list@V?$basic_string@DU?$char_traits@D@std@@V?$allocator@D@2@@std@@V?$allocator@V?$basic_string@DU?$char_traits@D@std@@V?$allocator@D@2@@std@@@2@@std@@QEAAXV?$_List_const_iterator@V?$_List_val@U?$_List_simple_types@V?$basic_string@DU?$char_traits@D@std@@V?$allocator@D@2@@std@@@std@@@std@@@1@0@Z@4HA 000000018001fbb0 f   ProtocolProcess.obj
 0001:0001ebbd       __catch$??$assign@V?$_List_const_iterator@V?$_List_val@U?$_List_simple_types@V?$basic_string@DU?$char_traits@D@std@@V?$allocator@D@2@@std@@@std@@@std@@@std@@@?$list@V?$basic_string@DU?$char_traits@D@std@@V?$allocator@D@2@@std@@V?$allocator@V?$basic_string@DU?$char_traits@D@std@@V?$allocator@D@2@@std@@@2@@std@@QEAAXV?$_List_const_iterator@V?$_List_val@U?$_List_simple_types@V?$basic_string@DU?$char_traits@D@std@@V?$allocator@D@2@@std@@@std@@@std@@@1@0@Z$0 000000018001fbbd f   ProtocolProcess.obj
 0001:0001ebd0       ?catch$0@?0???$_Buynode@AEBQEAUtagBuf@@@?$_List_buy@PEAUtagBuf@@V?$allocator@PEAUtagBuf@@@std@@@std@@QEAAPEAU?$_List_node@PEAUtagBuf@@PEAX@1@PEAU21@0AEBQEAUtagBuf@@@Z@4HA 000000018001fbd0 f   ProtocolProcess.obj
 0001:0001ebdd       __catch$??$_Buynode@AEBQEAUtagBuf@@@?$_List_buy@PEAUtagBuf@@V?$allocator@PEAUtagBuf@@@std@@@std@@QEAAPEAU?$_List_node@PEAUtagBuf@@PEAX@1@PEAU21@0AEBQEAUtagBuf@@@Z$0 000000018001fbdd f   ProtocolProcess.obj
 0001:0001ebf0       ?dtor$0@?0???$_Buynode@AEBV?$basic_string@DU?$char_traits@D@std@@V?$allocator@D@2@@std@@@?$_List_buy@V?$basic_string@DU?$char_traits@D@std@@V?$allocator@D@2@@std@@V?$allocator@V?$basic_string@DU?$char_traits@D@std@@V?$allocator@D@2@@std@@@2@@std@@QEAAPEAU?$_List_node@V?$basic_string@DU?$char_traits@D@std@@V?$allocator@D@2@@std@@PEAX@1@PEAU21@0AEBV?$basic_string@DU?$char_traits@D@std@@V?$allocator@D@2@@1@@Z@4HA 000000018001fbf0 f   ProtocolProcess.obj
 0001:0001ec0c       ?catch$0@?0???$_Buynode@AEBV?$basic_string@DU?$char_traits@D@std@@V?$allocator@D@2@@std@@@?$_List_buy@V?$basic_string@DU?$char_traits@D@std@@V?$allocator@D@2@@std@@V?$allocator@V?$basic_string@DU?$char_traits@D@std@@V?$allocator@D@2@@std@@@2@@std@@QEAAPEAU?$_List_node@V?$basic_string@DU?$char_traits@D@std@@V?$allocator@D@2@@std@@PEAX@1@PEAU21@0AEBV?$basic_string@DU?$char_traits@D@std@@V?$allocator@D@2@@1@@Z@4HA 000000018001fc0c f   ProtocolProcess.obj
 0001:0001ec19       __catch$??$_Buynode@AEBV?$basic_string@DU?$char_traits@D@std@@V?$allocator@D@2@@std@@@?$_List_buy@V?$basic_string@DU?$char_traits@D@std@@V?$allocator@D@2@@std@@V?$allocator@V?$basic_string@DU?$char_traits@D@std@@V?$allocator@D@2@@std@@@2@@std@@QEAAPEAU?$_List_node@V?$basic_string@DU?$char_traits@D@std@@V?$allocator@D@2@@std@@PEAX@1@PEAU21@0AEBV?$basic_string@DU?$char_traits@D@std@@V?$allocator@D@2@@1@@Z$0 000000018001fc19 f   ProtocolProcess.obj
 0001:0001ec30       ?dtor$0@?0???$_Reusenode@AEBV?$basic_string@DU?$char_traits@D@std@@V?$allocator@D@2@@std@@@?$list@V?$basic_string@DU?$char_traits@D@std@@V?$allocator@D@2@@std@@V?$allocator@V?$basic_string@DU?$char_traits@D@std@@V?$allocator@D@2@@std@@@2@@std@@QEAAXV?$_List_iterator@V?$_List_val@U?$_List_simple_types@V?$basic_string@DU?$char_traits@D@std@@V?$allocator@D@2@@std@@@std@@@std@@@1@AEBV?$basic_string@DU?$char_traits@D@std@@V?$allocator@D@2@@1@@Z@4HA 000000018001fc30 f   ProtocolProcess.obj
 0001:0001ec4c       ?catch$0@?0???$_Reusenode@AEBV?$basic_string@DU?$char_traits@D@std@@V?$allocator@D@2@@std@@@?$list@V?$basic_string@DU?$char_traits@D@std@@V?$allocator@D@2@@std@@V?$allocator@V?$basic_string@DU?$char_traits@D@std@@V?$allocator@D@2@@std@@@2@@std@@QEAAXV?$_List_iterator@V?$_List_val@U?$_List_simple_types@V?$basic_string@DU?$char_traits@D@std@@V?$allocator@D@2@@std@@@std@@@std@@@1@AEBV?$basic_string@DU?$char_traits@D@std@@V?$allocator@D@2@@1@@Z@4HA 000000018001fc4c f   ProtocolProcess.obj
 0001:0001ec59       __catch$??$_Reusenode@AEBV?$basic_string@DU?$char_traits@D@std@@V?$allocator@D@2@@std@@@?$list@V?$basic_string@DU?$char_traits@D@std@@V?$allocator@D@2@@std@@V?$allocator@V?$basic_string@DU?$char_traits@D@std@@V?$allocator@D@2@@std@@@2@@std@@QEAAXV?$_List_iterator@V?$_List_val@U?$_List_simple_types@V?$basic_string@DU?$char_traits@D@std@@V?$allocator@D@2@@std@@@std@@@std@@@1@AEBV?$basic_string@DU?$char_traits@D@std@@V?$allocator@D@2@@1@@Z$0 000000018001fc59 f   ProtocolProcess.obj
 0001:0001ec90       ?catch$0@?0???$_Insert_range@V?$_List_const_iterator@V?$_List_val@U?$_List_simple_types@V?$basic_string@DU?$char_traits@D@std@@V?$allocator@D@2@@std@@@std@@@std@@@std@@@?$list@V?$basic_string@DU?$char_traits@D@std@@V?$allocator@D@2@@std@@V?$allocator@V?$basic_string@DU?$char_traits@D@std@@V?$allocator@D@2@@std@@@2@@std@@QEAAXV?$_List_unchecked_const_iterator@V?$_List_val@U?$_List_simple_types@V?$basic_string@DU?$char_traits@D@std@@V?$allocator@D@2@@std@@@std@@@std@@U_Iterator_base0@2@@1@V?$_List_const_iterator@V?$_List_val@U?$_List_simple_types@V?$basic_string@DU?$char_traits@D@std@@V?$allocator@D@2@@std@@@std@@@std@@@1@1Uforward_iterator_tag@1@@Z@4HA 000000018001fc90 f   ProtocolProcess.obj
 0001:0001eca0       __catch$??$_Insert_range@V?$_List_const_iterator@V?$_List_val@U?$_List_simple_types@V?$basic_string@DU?$char_traits@D@std@@V?$allocator@D@2@@std@@@std@@@std@@@std@@@?$list@V?$basic_string@DU?$char_traits@D@std@@V?$allocator@D@2@@std@@V?$allocator@V?$basic_string@DU?$char_traits@D@std@@V?$allocator@D@2@@std@@@2@@std@@QEAAXV?$_List_unchecked_const_iterator@V?$_List_val@U?$_List_simple_types@V?$basic_string@DU?$char_traits@D@std@@V?$allocator@D@2@@std@@@std@@@std@@U_Iterator_base0@2@@1@V?$_List_const_iterator@V?$_List_val@U?$_List_simple_types@V?$basic_string@DU?$char_traits@D@std@@V?$allocator@D@2@@std@@@std@@@std@@@1@1Uforward_iterator_tag@1@@Z$0 000000018001fca0 f   ProtocolProcess.obj
 0001:0001ed00       ?catch$0@?0??ThreadEntry@CSelectorWorker@@EEAAHXZ@4HA 000000018001fd00 f   Selector.obj
 0001:0001ed0d       __catch$?ThreadEntry@CSelectorWorker@@EEAAHXZ$0 000000018001fd0d f   Selector.obj
 0001:0001ed94       ?dtor$0@?0??ThreadEntry@CSelectorWorker@@EEAAHXZ@4HA 000000018001fd94 f   Selector.obj
 0001:0001eda0       ?catch$1@?0??ThreadEntry@CSelectorWorker@@EEAAHXZ@4HA 000000018001fda0 f   Selector.obj
 0001:0001edad       __catch$?ThreadEntry@CSelectorWorker@@EEAAHXZ$1 000000018001fdad f   Selector.obj
 0001:0001ee07       ?catch$2@?0??ThreadEntry@CSelectorWorker@@EEAAHXZ@4HA 000000018001fe07 f   Selector.obj
 0001:0001ee15       __catch$?ThreadEntry@CSelectorWorker@@EEAAHXZ$3 000000018001fe15 f   Selector.obj
 0001:0001ee80       ?dtor$0@?0??IsNetManaged@CSelectorWorker@@EEAA_NAEAV?$basic_string@DU?$char_traits@D@std@@V?$allocator@D@2@@std@@@Z@4HA 000000018001fe80 f   Selector.obj
 0001:0001ee90       ?dtor$0@?0???_GCSelectorWorker@@UEAAPEAXI@Z@4HA 000000018001fe90 f   Selector.obj
 0001:0001ee9c       ?dtor$1@?0???_GCSelectorWorker@@UEAAPEAXI@Z@4HA 000000018001fe9c f   Selector.obj
 0001:0001eeb1       ?dtor$2@?0???_GCSelectorWorker@@UEAAPEAXI@Z@4HA 000000018001feb1 f   Selector.obj
 0001:0001eebf       ?dtor$3@?0???_GCSelectorWorker@@UEAAPEAXI@Z@4HA 000000018001febf f   Selector.obj
 0001:0001eecf       ?dtor$4@?0???_GCSelectorWorker@@UEAAPEAXI@Z@4HA 000000018001fecf f   Selector.obj
 0001:0001eedf       ?dtor$5@?0???_GCSelectorWorker@@UEAAPEAXI@Z@4HA 000000018001fedf f   Selector.obj
 0001:0001eef0       ?dtor$0@?0???0CSelector@@IEAA@XZ@4HA 000000018001fef0 f   Selector.obj
 0001:0001eefc       ?dtor$1@?0???0CSelector@@IEAA@XZ@4HA 000000018001fefc f   Selector.obj
 0001:0001ef0f       ?dtor$2@?0???0CSelector@@IEAA@XZ@4HA 000000018001ff0f f   Selector.obj
 0001:0001ef22       ?dtor$3@?0???0CSelector@@IEAA@XZ@4HA 000000018001ff22 f   Selector.obj
 0001:0001ef35       ?dtor$4@?0???0CSelector@@IEAA@XZ@4HA 000000018001ff35 f   Selector.obj
 0001:0001ef48       ?dtor$9@?0???0CSelector@@IEAA@XZ@4HA 000000018001ff48 f   Selector.obj
 0001:0001ef54       ?dtor$8@?0???0CSelector@@IEAA@XZ@4HA 000000018001ff54 f   Selector.obj
 0001:0001ef60       ?dtor$5@?0???0CSelector@@IEAA@XZ@4HA 000000018001ff60 f   Selector.obj
 0001:0001ef73       ?dtor$6@?0???0CSelector@@IEAA@XZ@4HA 000000018001ff73 f   Selector.obj
 0001:0001ef88       ?dtor$7@?0???0CSelector@@IEAA@XZ@4HA 000000018001ff88 f   Selector.obj
 0001:0001efa0       ?dtor$0@?0???1CSelector@@MEAA@XZ@4HA 000000018001ffa0 f   Selector.obj
 0001:0001efac       ?dtor$1@?0???1CSelector@@MEAA@XZ@4HA 000000018001ffac f   Selector.obj
 0001:0001efbf       ?dtor$2@?0???1CSelector@@MEAA@XZ@4HA 000000018001ffbf f   Selector.obj
 0001:0001efd2       ?dtor$3@?0???1CSelector@@MEAA@XZ@4HA 000000018001ffd2 f   Selector.obj
 0001:0001efe5       ?dtor$4@?0???1CSelector@@MEAA@XZ@4HA 000000018001ffe5 f   Selector.obj
 0001:0001eff8       ?dtor$5@?0???1CSelector@@MEAA@XZ@4HA 000000018001fff8 f   Selector.obj
 0001:0001f00b       ?dtor$6@?0???1CSelector@@MEAA@XZ@4HA 000000018002000b f   Selector.obj
 0001:0001f020       ?dtor$7@?0???1CSelector@@MEAA@XZ@4HA 0000000180020020 f   Selector.obj
 0001:0001f035       ?dtor$8@?0???1CSelector@@MEAA@XZ@4HA 0000000180020035 f   Selector.obj
 0001:0001f041       ?dtor$9@?0???1CSelector@@MEAA@XZ@4HA 0000000180020041 f   Selector.obj
 0001:0001f04d       ?dtor$10@?0???1CSelector@@MEAA@XZ@4HA 000000018002004d f   Selector.obj
 0001:0001f05b       ?dtor$11@?0???1CSelector@@MEAA@XZ@4HA 000000018002005b f   Selector.obj
 0001:0001f06b       ?dtor$12@?0???1CSelector@@MEAA@XZ@4HA 000000018002006b f   Selector.obj
 0001:0001f07b       ?dtor$13@?0???1CSelector@@MEAA@XZ@4HA 000000018002007b f   Selector.obj
 0001:0001f090       ?dtor$0@?0??Init@CSelector@@UEAAHPEAVCConfig@@@Z@4HA 0000000180020090 f   Selector.obj
 0001:0001f09c       ?dtor$1@?0??Init@CSelector@@UEAAHPEAVCConfig@@@Z@4HA 000000018002009c f   Selector.obj
 0001:0001f0a8       ?dtor$2@?0??Init@CSelector@@UEAAHPEAVCConfig@@@Z@4HA 00000001800200a8 f   Selector.obj
 0001:0001f0b4       ?dtor$3@?0??Init@CSelector@@UEAAHPEAVCConfig@@@Z@4HA 00000001800200b4 f   Selector.obj
 0001:0001f0d4       ?dtor$6@?0??Init@CSelector@@UEAAHPEAVCConfig@@@Z@4HA 00000001800200d4 f   Selector.obj
 0001:0001f0e0       ?dtor$7@?0??Init@CSelector@@UEAAHPEAVCConfig@@@Z@4HA 00000001800200e0 f   Selector.obj
 0001:0001f0f5       ?dtor$4@?0??Init@CSelector@@UEAAHPEAVCConfig@@@Z@4HA 00000001800200f5 f   Selector.obj
 0001:0001f115       ?dtor$9@?0??Init@CSelector@@UEAAHPEAVCConfig@@@Z@4HA 0000000180020115 f   Selector.obj
 0001:0001f121       ?dtor$10@?0??Init@CSelector@@UEAAHPEAVCConfig@@@Z@4HA 0000000180020121 f   Selector.obj
 0001:0001f12d       ?dtor$5@?0??Init@CSelector@@UEAAHPEAVCConfig@@@Z@4HA 000000018002012d f   Selector.obj
 0001:0001f139       ?dtor$11@?0??Init@CSelector@@UEAAHPEAVCConfig@@@Z@4HA 0000000180020139 f   Selector.obj
 0001:0001f158       ?dtor$12@?0??Init@CSelector@@UEAAHPEAVCConfig@@@Z@4HA 0000000180020158 f   Selector.obj
 0001:0001f177       ?dtor$13@?0??Init@CSelector@@UEAAHPEAVCConfig@@@Z@4HA 0000000180020177 f   Selector.obj
 0001:0001f190       ?dtor$0@?0??Finish@CSelector@@UEAAXXZ@4HA 0000000180020190 f   Selector.obj
 0001:0001f1a0       ?catch$0@?0??Signal@CSelector@@AEAAXXZ@4HA 00000001800201a0 f   Selector.obj
 0001:0001f1ad       __catch$?Signal@CSelector@@AEAAXXZ$0 00000001800201ad f   Selector.obj
 0001:0001f210       ?catch$0@?0??ThreadEntry@CSelector@@MEAAHXZ@4HA 0000000180020210 f   Selector.obj
 0001:0001f21d       __catch$?ThreadEntry@CSelector@@MEAAHXZ$0 000000018002021d f   Selector.obj
 0001:0001f290       ?dtor$0@?0??ThreadEntry@CSelector@@MEAAHXZ@4HA 0000000180020290 f   Selector.obj
 0001:0001f29c       ?catch$1@?0??ThreadEntry@CSelector@@MEAAHXZ@4HA 000000018002029c f   Selector.obj
 0001:0001f2a9       __catch$?ThreadEntry@CSelector@@MEAAHXZ$1 00000001800202a9 f   Selector.obj
 0001:0001f300       ?dtor$0@?0??ToString@CSelector@@QEAA?AV?$basic_string@DU?$char_traits@D@std@@V?$allocator@D@2@@std@@XZ@4HA 0000000180020300 f   Selector.obj
 0001:0001f329       ?dtor$1@?0??ToString@CSelector@@QEAA?AV?$basic_string@DU?$char_traits@D@std@@V?$allocator@D@2@@std@@XZ@4HA 0000000180020329 f   Selector.obj
 0001:0001f335       ?dtor$2@?0??ToString@CSelector@@QEAA?AV?$basic_string@DU?$char_traits@D@std@@V?$allocator@D@2@@std@@XZ@4HA 0000000180020335 f   Selector.obj
 0001:0001f341       ?dtor$3@?0??ToString@CSelector@@QEAA?AV?$basic_string@DU?$char_traits@D@std@@V?$allocator@D@2@@std@@XZ@4HA 0000000180020341 f   Selector.obj
 0001:0001f34d       ?dtor$4@?0??ToString@CSelector@@QEAA?AV?$basic_string@DU?$char_traits@D@std@@V?$allocator@D@2@@std@@XZ@4HA 000000018002034d f   Selector.obj
 0001:0001f359       ?dtor$5@?0??ToString@CSelector@@QEAA?AV?$basic_string@DU?$char_traits@D@std@@V?$allocator@D@2@@std@@XZ@4HA 0000000180020359 f   Selector.obj
 0001:0001f365       ?dtor$6@?0??ToString@CSelector@@QEAA?AV?$basic_string@DU?$char_traits@D@std@@V?$allocator@D@2@@std@@XZ@4HA 0000000180020365 f   Selector.obj
 0001:0001f380       ?dtor$0@?0??Handle@CSelectorListen@@MEAAHH@Z@4HA 0000000180020380 f   Selector.obj
 0001:0001f38c       ?dtor$1@?0??Handle@CSelectorListen@@MEAAHH@Z@4HA 000000018002038c f   Selector.obj
 0001:0001f398       ?catch$0@?0??Handle@CSelectorListen@@MEAAHH@Z@4HA 0000000180020398 f   Selector.obj
 0001:0001f3a5       __catch$?Handle@CSelectorListen@@MEAAHH@Z$0 00000001800203a5 f   Selector.obj
 0001:0001f42b       ?dtor$2@?0??Handle@CSelectorListen@@MEAAHH@Z@4HA 000000018002042b f   Selector.obj
 0001:0001f437       ?catch$1@?0??Handle@CSelectorListen@@MEAAHH@Z@4HA 0000000180020437 f   Selector.obj
 0001:0001f444       __catch$?Handle@CSelectorListen@@MEAAHH@Z$1 0000000180020444 f   Selector.obj
 0001:0001f4a0       ?dtor$0@?0??UdpSocket@CSelectorListen@@MEAAHAEA_KAEAH@Z@4HA 00000001800204a0 f   Selector.obj
 0001:0001f4ac       ?dtor$1@?0??UdpSocket@CSelectorListen@@MEAAHAEA_KAEAH@Z@4HA 00000001800204ac f   Selector.obj
 0001:0001f4b8       ?dtor$2@?0??UdpSocket@CSelectorListen@@MEAAHAEA_KAEAH@Z@4HA 00000001800204b8 f   Selector.obj
 0001:0001f4d0       ?dtor$0@?0??Handle@CSelectorIo@@MEAAHH@Z@4HA 00000001800204d0 f   Selector.obj
 0001:0001f4dc       ?catch$0@?0??Handle@CSelectorIo@@MEAAHH@Z@4HA 00000001800204dc f   Selector.obj
 0001:0001f4e9       __catch$?Handle@CSelectorIo@@MEAAHH@Z$0 00000001800204e9 f   Selector.obj
 0001:0001f566       ?dtor$1@?0??Handle@CSelectorIo@@MEAAHH@Z@4HA 0000000180020566 f   Selector.obj
 0001:0001f572       ?catch$1@?0??Handle@CSelectorIo@@MEAAHH@Z@4HA 0000000180020572 f   Selector.obj
 0001:0001f57f       __catch$?Handle@CSelectorIo@@MEAAHH@Z$1 000000018002057f f   Selector.obj
 0001:0001f5d0       ?dtor$0@?0??UdpSocket@CSelectorIo@@MEAAHAEA_KAEAH@Z@4HA 00000001800205d0 f   Selector.obj
 0001:0001f5dc       ?dtor$1@?0??UdpSocket@CSelectorIo@@MEAAHAEA_KAEAH@Z@4HA 00000001800205dc f   Selector.obj
 0001:0001f5e8       ?dtor$2@?0??UdpSocket@CSelectorIo@@MEAAHAEA_KAEAH@Z@4HA 00000001800205e8 f   Selector.obj
 0001:0001f600       ?catch$0@?0??_Reallocate@?$vector@U?$pair@_KPEAX@std@@V?$allocator@U?$pair@_KPEAX@std@@@2@@std@@IEAAX_K@Z@4HA 0000000180020600 f   Selector.obj
 0001:0001f60d       __catch$?_Reallocate@?$vector@U?$pair@_KPEAX@std@@V?$allocator@U?$pair@_KPEAX@std@@@2@@std@@IEAAX_K@Z$0 000000018002060d f   Selector.obj
 0001:0001f630       ?catch$0@?0??_Reallocate@?$vector@PEAVCGessMutex@@V?$allocator@PEAVCGessMutex@@@std@@@std@@IEAAX_K@Z@4HA 0000000180020630 f   Selector.obj
 0001:0001f630       ?catch$0@?0??_Reallocate@?$vector@PEAVCSelectorWorker@@V?$allocator@PEAVCSelectorWorker@@@std@@@std@@IEAAX_K@Z@4HA 0000000180020630 f   Selector.obj
 0001:0001f63d       __catch$?_Reallocate@?$vector@PEAVCGessMutex@@V?$allocator@PEAVCGessMutex@@@std@@@std@@IEAAX_K@Z$0 000000018002063d f   Selector.obj
 0001:0001f63d       __catch$?_Reallocate@?$vector@PEAVCSelectorWorker@@V?$allocator@PEAVCSelectorWorker@@@std@@@std@@IEAAX_K@Z$0 000000018002063d f   Selector.obj
 0001:0001f660       ?catch$0@?0??_Reallocate@?$vector@V?$deque@U?$pair@_KPEAX@std@@V?$allocator@U?$pair@_KPEAX@std@@@2@@std@@V?$allocator@V?$deque@U?$pair@_KPEAX@std@@V?$allocator@U?$pair@_KPEAX@std@@@2@@std@@@2@@std@@IEAAX_K@Z@4HA 0000000180020660 f   Selector.obj
 0001:0001f66d       __catch$?_Reallocate@?$vector@V?$deque@U?$pair@_KPEAX@std@@V?$allocator@U?$pair@_KPEAX@std@@@2@@std@@V?$allocator@V?$deque@U?$pair@_KPEAX@std@@V?$allocator@U?$pair@_KPEAX@std@@@2@@std@@@2@@std@@IEAAX_K@Z$0 000000018002066d f   Selector.obj
 0001:0001f687       ?dtor$0@?0??_Reallocate@?$vector@V?$deque@U?$pair@_KPEAX@std@@V?$allocator@U?$pair@_KPEAX@std@@@2@@std@@V?$allocator@V?$deque@U?$pair@_KPEAX@std@@V?$allocator@U?$pair@_KPEAX@std@@@2@@std@@@2@@std@@IEAAX_K@Z@4HA 0000000180020687 f   Selector.obj
 0001:0001f6a0       ?catch$0@?0???$_Uninitialized_move_al_unchecked1@PEAU?$pair@_KPEAX@std@@PEAU12@V?$allocator@U?$pair@_KPEAX@std@@@2@@std@@YAPEAU?$pair@_KPEAX@0@PEAU10@00AEAU?$_Wrap_alloc@V?$allocator@U?$pair@_KPEAX@std@@@std@@@0@U_General_ptr_iterator_tag@0@@Z@4HA 00000001800206a0 f   Selector.obj
 0001:0001f6ad       __catch$??$_Uninitialized_move_al_unchecked1@PEAU?$pair@_KPEAX@std@@PEAU12@V?$allocator@U?$pair@_KPEAX@std@@@2@@std@@YAPEAU?$pair@_KPEAX@0@PEAU10@00AEAU?$_Wrap_alloc@V?$allocator@U?$pair@_KPEAX@std@@@std@@@0@U_General_ptr_iterator_tag@0@@Z$0 00000001800206ad f   Selector.obj
 0001:0001f6c0       ?dtor$0@?0???$_Uninitialized_move_al_unchecked1@PEAV?$deque@U?$pair@_KPEAX@std@@V?$allocator@U?$pair@_KPEAX@std@@@2@@std@@PEAV12@V?$allocator@V?$deque@U?$pair@_KPEAX@std@@V?$allocator@U?$pair@_KPEAX@std@@@2@@std@@@2@@std@@YAPEAV?$deque@U?$pair@_KPEAX@std@@V?$allocator@U?$pair@_KPEAX@std@@@2@@0@PEAV10@00AEAU?$_Wrap_alloc@V?$allocator@V?$deque@U?$pair@_KPEAX@std@@V?$allocator@U?$pair@_KPEAX@std@@@2@@std@@@std@@@0@U_General_ptr_iterator_tag@0@@Z@4HA 00000001800206c0 f   Selector.obj
 0001:0001f6dc       ?dtor$1@?0???$_Uninitialized_move_al_unchecked1@PEAV?$deque@U?$pair@_KPEAX@std@@V?$allocator@U?$pair@_KPEAX@std@@@2@@std@@PEAV12@V?$allocator@V?$deque@U?$pair@_KPEAX@std@@V?$allocator@U?$pair@_KPEAX@std@@@2@@std@@@2@@std@@YAPEAV?$deque@U?$pair@_KPEAX@std@@V?$allocator@U?$pair@_KPEAX@std@@@2@@0@PEAV10@00AEAU?$_Wrap_alloc@V?$allocator@V?$deque@U?$pair@_KPEAX@std@@V?$allocator@U?$pair@_KPEAX@std@@@2@@std@@@std@@@0@U_General_ptr_iterator_tag@0@@Z@4HA 00000001800206dc f   Selector.obj
 0001:0001f6e8       ?catch$0@?0???$_Uninitialized_move_al_unchecked1@PEAV?$deque@U?$pair@_KPEAX@std@@V?$allocator@U?$pair@_KPEAX@std@@@2@@std@@PEAV12@V?$allocator@V?$deque@U?$pair@_KPEAX@std@@V?$allocator@U?$pair@_KPEAX@std@@@2@@std@@@2@@std@@YAPEAV?$deque@U?$pair@_KPEAX@std@@V?$allocator@U?$pair@_KPEAX@std@@@2@@0@PEAV10@00AEAU?$_Wrap_alloc@V?$allocator@V?$deque@U?$pair@_KPEAX@std@@V?$allocator@U?$pair@_KPEAX@std@@@2@@std@@@std@@@0@U_General_ptr_iterator_tag@0@@Z@4HA 00000001800206e8 f   Selector.obj
 0001:0001f6f7       __catch$??$_Uninitialized_move_al_unchecked1@PEAV?$deque@U?$pair@_KPEAX@std@@V?$allocator@U?$pair@_KPEAX@std@@@2@@std@@PEAV12@V?$allocator@V?$deque@U?$pair@_KPEAX@std@@V?$allocator@U?$pair@_KPEAX@std@@@2@@std@@@2@@std@@YAPEAV?$deque@U?$pair@_KPEAX@std@@V?$allocator@U?$pair@_KPEAX@std@@@2@@0@PEAV10@00AEAU?$_Wrap_alloc@V?$allocator@V?$deque@U?$pair@_KPEAX@std@@V?$allocator@U?$pair@_KPEAX@std@@@2@@std@@@std@@@0@U_General_ptr_iterator_tag@0@@Z$0 00000001800206f7 f   Selector.obj
 0001:0001f733       ?dtor$2@?0???$_Uninitialized_move_al_unchecked1@PEAV?$deque@U?$pair@_KPEAX@std@@V?$allocator@U?$pair@_KPEAX@std@@@2@@std@@PEAV12@V?$allocator@V?$deque@U?$pair@_KPEAX@std@@V?$allocator@U?$pair@_KPEAX@std@@@2@@std@@@2@@std@@YAPEAV?$deque@U?$pair@_KPEAX@std@@V?$allocator@U?$pair@_KPEAX@std@@@2@@0@PEAV10@00AEAU?$_Wrap_alloc@V?$allocator@V?$deque@U?$pair@_KPEAX@std@@V?$allocator@U?$pair@_KPEAX@std@@@2@@std@@@std@@@0@U_General_ptr_iterator_tag@0@@Z@4HA 0000000180020733 f   Selector.obj
 0001:0001f740       ?dtor$0@?0??BeginThread@CWorkThreadNm@@UEAAHXZ@4HA 0000000180020740 f   WorkThreadNm.obj
 0001:0001f74c       ?dtor$1@?0??BeginThread@CWorkThreadNm@@UEAAHXZ@4HA 000000018002074c f   WorkThreadNm.obj
 0001:0001f758       ?dtor$2@?0??BeginThread@CWorkThreadNm@@UEAAHXZ@4HA 0000000180020758 f   WorkThreadNm.obj
 0001:0001f764       ?dtor$3@?0??BeginThread@CWorkThreadNm@@UEAAHXZ@4HA 0000000180020764 f   WorkThreadNm.obj
 0001:0001f770       ?dtor$4@?0??BeginThread@CWorkThreadNm@@UEAAHXZ@4HA 0000000180020770 f   WorkThreadNm.obj
 0001:0001f780       ?dtor$0@?0??OnStart@CWorkThreadNm@@MEAAXXZ@4HA 0000000180020780 f   WorkThreadNm.obj
 0001:0001f78e       ?dtor$1@?0??OnStart@CWorkThreadNm@@MEAAXXZ@4HA 000000018002078e f   WorkThreadNm.obj
 0001:0001f79a       ?dtor$2@?0??OnStart@CWorkThreadNm@@MEAAXXZ@4HA 000000018002079a f   WorkThreadNm.obj
 0001:0001f7a6       ?dtor$3@?0??OnStart@CWorkThreadNm@@MEAAXXZ@4HA 00000001800207a6 f   WorkThreadNm.obj
 0001:0001f7b2       ?dtor$4@?0??OnStart@CWorkThreadNm@@MEAAXXZ@4HA 00000001800207b2 f   WorkThreadNm.obj
 0001:0001f7be       ?dtor$5@?0??OnStart@CWorkThreadNm@@MEAAXXZ@4HA 00000001800207be f   WorkThreadNm.obj
 0001:0001f7ca       ?dtor$6@?0??OnStart@CWorkThreadNm@@MEAAXXZ@4HA 00000001800207ca f   WorkThreadNm.obj
 0001:0001f7d6       ?dtor$7@?0??OnStart@CWorkThreadNm@@MEAAXXZ@4HA 00000001800207d6 f   WorkThreadNm.obj
 0001:0001f7f0       ?dtor$0@?0??OnStop@CWorkThreadNm@@MEAAXXZ@4HA 00000001800207f0 f   WorkThreadNm.obj
 0001:0001f7fe       ?dtor$1@?0??OnStop@CWorkThreadNm@@MEAAXXZ@4HA 00000001800207fe f   WorkThreadNm.obj
 0001:0001f80a       ?dtor$2@?0??OnStop@CWorkThreadNm@@MEAAXXZ@4HA 000000018002080a f   WorkThreadNm.obj
 0001:0001f816       ?dtor$3@?0??OnStop@CWorkThreadNm@@MEAAXXZ@4HA 0000000180020816 f   WorkThreadNm.obj
 0001:0001f822       ?dtor$4@?0??OnStop@CWorkThreadNm@@MEAAXXZ@4HA 0000000180020822 f   WorkThreadNm.obj
 0001:0001f82e       ?dtor$5@?0??OnStop@CWorkThreadNm@@MEAAXXZ@4HA 000000018002082e f   WorkThreadNm.obj
 0001:0001f83a       ?dtor$6@?0??OnStop@CWorkThreadNm@@MEAAXXZ@4HA 000000018002083a f   WorkThreadNm.obj
 0001:0001f846       ?dtor$7@?0??OnStop@CWorkThreadNm@@MEAAXXZ@4HA 0000000180020846 f   WorkThreadNm.obj
 0001:0001f860       ?dtor$0@?0??ThreadQuery@CWorkThreadNm@@MEBAHAEAVCNMO@@@Z@4HA 0000000180020860 f   WorkThreadNm.obj
 0001:0001f86c       ?dtor$1@?0??ThreadQuery@CWorkThreadNm@@MEBAHAEAVCNMO@@@Z@4HA 000000018002086c f   WorkThreadNm.obj
 0001:0001f878       ?dtor$2@?0??ThreadQuery@CWorkThreadNm@@MEBAHAEAVCNMO@@@Z@4HA 0000000180020878 f   WorkThreadNm.obj
 0001:0001f884       ?dtor$3@?0??ThreadQuery@CWorkThreadNm@@MEBAHAEAVCNMO@@@Z@4HA 0000000180020884 f   WorkThreadNm.obj
 0001:0001f890       ?dtor$4@?0??ThreadQuery@CWorkThreadNm@@MEBAHAEAVCNMO@@@Z@4HA 0000000180020890 f   WorkThreadNm.obj
 0001:0001f89c       ?dtor$5@?0??ThreadQuery@CWorkThreadNm@@MEBAHAEAVCNMO@@@Z@4HA 000000018002089c f   WorkThreadNm.obj
 0001:0001f8a8       ?dtor$6@?0??ThreadQuery@CWorkThreadNm@@MEBAHAEAVCNMO@@@Z@4HA 00000001800208a8 f   WorkThreadNm.obj
 0001:0001f8b4       ?fin$0@?0???_M@YAXPEAX_K1P6AX0@Z@Z@4HA 00000001800208b4 f   MSVCRT:ehvecdtr.obj
 0001:0001f8e0       ?filt$0@?0??__ArrayUnwind@@YAXPEAX_K1P6AX0@Z@Z@4HA 00000001800208e0 f   MSVCRT:ehvecdtr.obj
 0001:0001f921       __scrt_is_nonwritable_in_current_image$filt$0 0000000180020921 f   MSVCRT:utility.obj
 0001:0001f939       ?fin$0@?0??dllmain_crt_process_attach@@YAHQEAUHINSTANCE__@@QEAX@Z@4HA 0000000180020939 f   MSVCRT:dll_dllmain.obj
 0001:0001f950       ?fin$0@?0??dllmain_crt_process_detach@@YAH_N@Z@4HA 0000000180020950 f   MSVCRT:dll_dllmain.obj
 0001:0001f96c       ?filt$0@?0??dllmain_dispatch@@YAHQEAUHINSTANCE__@@KQEAX@Z@4HA 000000018002096c f   MSVCRT:dll_dllmain.obj
 0001:0001f9b0       ??__Fgc_nItemTypeDigital@NmConst@@YAXXZ 00000001800209b0 f   Connector.obj
 0001:0001fa50       ??__Fgc_nItemTypeAnalog@NmConst@@YAXXZ 0000000180020a50 f   Connector.obj
 0001:0001faf0       ??__Fgc_nItemTypeConfig@NmConst@@YAXXZ 0000000180020af0 f   Connector.obj
 0001:0001fb90       ??__Fgc_CtrQuit@NmConst@@YAXXZ 0000000180020b90 f   Connector.obj
 0001:0001fc30       ??__Fgc_CtrRestar@NmConst@@YAXXZ 0000000180020c30 f   Connector.obj
 0001:0001fcd0       ??__Fgc_CtrStar@NmConst@@YAXXZ 0000000180020cd0 f   Connector.obj
 0001:0001fd70       ??__Fgc_CtrDetach@NmConst@@YAXXZ 0000000180020d70 f   Connector.obj
 0001:0001fe10       ??__Fgc_CtrAttach@NmConst@@YAXXZ 0000000180020e10 f   Connector.obj
 0001:0001feb0       ??__FmibCpuRadio@NmConst@@YAXXZ 0000000180020eb0 f   Connector.obj
 0001:0001ff50       ??__FmibEmsTotal@NmConst@@YAXXZ 0000000180020f50 f   Connector.obj
 0001:0001fff0       ??__FmibEmsUse@NmConst@@YAXXZ 0000000180020ff0 f   Connector.obj
 0001:00020090       ??__FmibEmsRadio@NmConst@@YAXXZ 0000000180021090 f   Connector.obj
 0001:00020130       ??__FmibDiskNum@NmConst@@YAXXZ 0000000180021130 f   Connector.obj
 0001:000201d0       ??__FmibPartIndex@NmConst@@YAXXZ 00000001800211d0 f   Connector.obj
 0001:00020270       ??__FmibDiskPhyTotal@NmConst@@YAXXZ 0000000180021270 f   Connector.obj
 0001:00020310       ??__FmibDisk_Used@NmConst@@YAXXZ 0000000180021310 f   Connector.obj
 0001:000203b0       ??__FmibDisk_Used_Ratio@NmConst@@YAXXZ 00000001800213b0 f   Connector.obj
 0001:00020450       ??__Fgc_sThreadNum@NmConst@@YAXXZ 0000000180021450 f   Connector.obj
 0001:000204f0       ??__Fgc_sThreadIdx@NmConst@@YAXXZ 00000001800214f0 f   Connector.obj
 0001:00020590       ??__Fgc_sThreadState@NmConst@@YAXXZ 0000000180021590 f   Connector.obj
 0001:00020630       ??__Fgc_sTcpLocalIp@NmConst@@YAXXZ 0000000180021630 f   Connector.obj
 0001:000206d0       ??__Fgc_sTcpLocalPort@NmConst@@YAXXZ 00000001800216d0 f   Connector.obj
 0001:00020770       ??__Fgc_sTcpRemoteIp@NmConst@@YAXXZ 0000000180021770 f   Connector.obj
 0001:00020810       ??__Fgc_sTcpRemotePort@NmConst@@YAXXZ 0000000180021810 f   Connector.obj
 0001:000208b0       ??__Fgc_sTcpState@NmConst@@YAXXZ 00000001800218b0 f   Connector.obj
 0001:00020950       ??__Fgc_sTcpInBytesAve@NmConst@@YAXXZ 0000000180021950 f   Connector.obj
 0001:000209f0       ??__Fgc_sTcpOutBytesAve@NmConst@@YAXXZ 00000001800219f0 f   Connector.obj
 0001:00020a90       ??__Fmib_NodeId@NmConst@@YAXXZ 0000000180021a90 f   Connector.obj
 0001:00020b30       ??__Fmib_NodeSta@NmConst@@YAXXZ 0000000180021b30 f   Connector.obj
 0001:00020bd0       ??__Fmib_NodeCtr@NmConst@@YAXXZ 0000000180021bd0 f   Connector.obj
 0001:00020c70       ??__FmibQueNum@NmConst@@YAXXZ 0000000180021c70 f   Connector.obj
 0001:00020d10       ??__F?m_mutexSID@CConnector@@0VCGessMutex@@A@@YAXXZ 0000000180021d10 f   Connector.obj
 0001:00020d20       ??__Fgc_nItemTypeDigital@NmConst@@YAXXZ 0000000180021d20 f   Listener.obj
 0001:00020dc0       ??__Fgc_nItemTypeAnalog@NmConst@@YAXXZ 0000000180021dc0 f   Listener.obj
 0001:00020e60       ??__Fgc_nItemTypeConfig@NmConst@@YAXXZ 0000000180021e60 f   Listener.obj
 0001:00020f00       ??__Fgc_CtrQuit@NmConst@@YAXXZ 0000000180021f00 f   Listener.obj
 0001:00020fa0       ??__Fgc_CtrRestar@NmConst@@YAXXZ 0000000180021fa0 f   Listener.obj
 0001:00021040       ??__Fgc_CtrStar@NmConst@@YAXXZ 0000000180022040 f   Listener.obj
 0001:000210e0       ??__Fgc_CtrDetach@NmConst@@YAXXZ 00000001800220e0 f   Listener.obj
 0001:00021180       ??__Fgc_CtrAttach@NmConst@@YAXXZ 0000000180022180 f   Listener.obj
 0001:00021220       ??__FmibCpuRadio@NmConst@@YAXXZ 0000000180022220 f   Listener.obj
 0001:000212c0       ??__FmibEmsTotal@NmConst@@YAXXZ 00000001800222c0 f   Listener.obj
 0001:00021360       ??__FmibEmsUse@NmConst@@YAXXZ 0000000180022360 f   Listener.obj
 0001:00021400       ??__FmibEmsRadio@NmConst@@YAXXZ 0000000180022400 f   Listener.obj
 0001:000214a0       ??__FmibDiskNum@NmConst@@YAXXZ 00000001800224a0 f   Listener.obj
 0001:00021540       ??__FmibPartIndex@NmConst@@YAXXZ 0000000180022540 f   Listener.obj
 0001:000215e0       ??__FmibDiskPhyTotal@NmConst@@YAXXZ 00000001800225e0 f   Listener.obj
 0001:00021680       ??__FmibDisk_Used@NmConst@@YAXXZ 0000000180022680 f   Listener.obj
 0001:00021720       ??__FmibDisk_Used_Ratio@NmConst@@YAXXZ 0000000180022720 f   Listener.obj
 0001:000217c0       ??__Fgc_sThreadNum@NmConst@@YAXXZ 00000001800227c0 f   Listener.obj
 0001:00021860       ??__Fgc_sThreadIdx@NmConst@@YAXXZ 0000000180022860 f   Listener.obj
 0001:00021900       ??__Fgc_sThreadState@NmConst@@YAXXZ 0000000180022900 f   Listener.obj
 0001:000219a0       ??__Fgc_sTcpLocalIp@NmConst@@YAXXZ 00000001800229a0 f   Listener.obj
 0001:00021a40       ??__Fgc_sTcpLocalPort@NmConst@@YAXXZ 0000000180022a40 f   Listener.obj
 0001:00021ae0       ??__Fgc_sTcpRemoteIp@NmConst@@YAXXZ 0000000180022ae0 f   Listener.obj
 0001:00021b80       ??__Fgc_sTcpRemotePort@NmConst@@YAXXZ 0000000180022b80 f   Listener.obj
 0001:00021c20       ??__Fgc_sTcpState@NmConst@@YAXXZ 0000000180022c20 f   Listener.obj
 0001:00021cc0       ??__Fgc_sTcpInBytesAve@NmConst@@YAXXZ 0000000180022cc0 f   Listener.obj
 0001:00021d60       ??__Fgc_sTcpOutBytesAve@NmConst@@YAXXZ 0000000180022d60 f   Listener.obj
 0001:00021e00       ??__Fmib_NodeId@NmConst@@YAXXZ 0000000180022e00 f   Listener.obj
 0001:00021ea0       ??__Fmib_NodeSta@NmConst@@YAXXZ 0000000180022ea0 f   Listener.obj
 0001:00021f40       ??__Fmib_NodeCtr@NmConst@@YAXXZ 0000000180022f40 f   Listener.obj
 0001:00021fe0       ??__FmibQueNum@NmConst@@YAXXZ 0000000180022fe0 f   Listener.obj
 0001:00022080       ??__Fgc_nItemTypeDigital@NmConst@@YAXXZ 0000000180023080 f   ProtocolComm.obj
 0001:00022120       ??__Fgc_nItemTypeAnalog@NmConst@@YAXXZ 0000000180023120 f   ProtocolComm.obj
 0001:000221c0       ??__Fgc_nItemTypeConfig@NmConst@@YAXXZ 00000001800231c0 f   ProtocolComm.obj
 0001:00022260       ??__Fgc_CtrQuit@NmConst@@YAXXZ 0000000180023260 f   ProtocolComm.obj
 0001:00022300       ??__Fgc_CtrRestar@NmConst@@YAXXZ 0000000180023300 f   ProtocolComm.obj
 0001:000223a0       ??__Fgc_CtrStar@NmConst@@YAXXZ 00000001800233a0 f   ProtocolComm.obj
 0001:00022440       ??__Fgc_CtrDetach@NmConst@@YAXXZ 0000000180023440 f   ProtocolComm.obj
 0001:000224e0       ??__Fgc_CtrAttach@NmConst@@YAXXZ 00000001800234e0 f   ProtocolComm.obj
 0001:00022580       ??__FmibCpuRadio@NmConst@@YAXXZ 0000000180023580 f   ProtocolComm.obj
 0001:00022620       ??__FmibEmsTotal@NmConst@@YAXXZ 0000000180023620 f   ProtocolComm.obj
 0001:000226c0       ??__FmibEmsUse@NmConst@@YAXXZ 00000001800236c0 f   ProtocolComm.obj
 0001:00022760       ??__FmibEmsRadio@NmConst@@YAXXZ 0000000180023760 f   ProtocolComm.obj
 0001:00022800       ??__FmibDiskNum@NmConst@@YAXXZ 0000000180023800 f   ProtocolComm.obj
 0001:000228a0       ??__FmibPartIndex@NmConst@@YAXXZ 00000001800238a0 f   ProtocolComm.obj
 0001:00022940       ??__FmibDiskPhyTotal@NmConst@@YAXXZ 0000000180023940 f   ProtocolComm.obj
 0001:000229e0       ??__FmibDisk_Used@NmConst@@YAXXZ 00000001800239e0 f   ProtocolComm.obj
 0001:00022a80       ??__FmibDisk_Used_Ratio@NmConst@@YAXXZ 0000000180023a80 f   ProtocolComm.obj
 0001:00022b20       ??__Fgc_sThreadNum@NmConst@@YAXXZ 0000000180023b20 f   ProtocolComm.obj
 0001:00022bc0       ??__Fgc_sThreadIdx@NmConst@@YAXXZ 0000000180023bc0 f   ProtocolComm.obj
 0001:00022c60       ??__Fgc_sThreadState@NmConst@@YAXXZ 0000000180023c60 f   ProtocolComm.obj
 0001:00022d00       ??__Fgc_sTcpLocalIp@NmConst@@YAXXZ 0000000180023d00 f   ProtocolComm.obj
 0001:00022da0       ??__Fgc_sTcpLocalPort@NmConst@@YAXXZ 0000000180023da0 f   ProtocolComm.obj
 0001:00022e40       ??__Fgc_sTcpRemoteIp@NmConst@@YAXXZ 0000000180023e40 f   ProtocolComm.obj
 0001:00022ee0       ??__Fgc_sTcpRemotePort@NmConst@@YAXXZ 0000000180023ee0 f   ProtocolComm.obj
 0001:00022f80       ??__Fgc_sTcpState@NmConst@@YAXXZ 0000000180023f80 f   ProtocolComm.obj
 0001:00023020       ??__Fgc_sTcpInBytesAve@NmConst@@YAXXZ 0000000180024020 f   ProtocolComm.obj
 0001:000230c0       ??__Fgc_sTcpOutBytesAve@NmConst@@YAXXZ 00000001800240c0 f   ProtocolComm.obj
 0001:00023160       ??__Fmib_NodeId@NmConst@@YAXXZ 0000000180024160 f   ProtocolComm.obj
 0001:00023200       ??__Fmib_NodeSta@NmConst@@YAXXZ 0000000180024200 f   ProtocolComm.obj
 0001:000232a0       ??__Fmib_NodeCtr@NmConst@@YAXXZ 00000001800242a0 f   ProtocolComm.obj
 0001:00023340       ??__FmibQueNum@NmConst@@YAXXZ 0000000180024340 f   ProtocolComm.obj
 0001:000233e0       ??__F?m_mutexSingleton@?$CSingleton@VCSelectorIo@@@@0VCGessMutex@@A@@YAXXZ 00000001800243e0 f   ProtocolComm.obj
 0001:000233f0       ??__F?m_mutexSingleton@?$CSingleton@VCSelectorListen@@@@0VCGessMutex@@A@@YAXXZ 00000001800243f0 f   ProtocolComm.obj
 0001:00023400       ??__Fgc_nItemTypeDigital@NmConst@@YAXXZ 0000000180024400 f   ProtocolProcess.obj
 0001:000234a0       ??__Fgc_nItemTypeAnalog@NmConst@@YAXXZ 00000001800244a0 f   ProtocolProcess.obj
 0001:00023540       ??__Fgc_nItemTypeConfig@NmConst@@YAXXZ 0000000180024540 f   ProtocolProcess.obj
 0001:000235e0       ??__Fgc_CtrQuit@NmConst@@YAXXZ 00000001800245e0 f   ProtocolProcess.obj
 0001:00023680       ??__Fgc_CtrRestar@NmConst@@YAXXZ 0000000180024680 f   ProtocolProcess.obj
 0001:00023720       ??__Fgc_CtrStar@NmConst@@YAXXZ 0000000180024720 f   ProtocolProcess.obj
 0001:000237c0       ??__Fgc_CtrDetach@NmConst@@YAXXZ 00000001800247c0 f   ProtocolProcess.obj
 0001:00023860       ??__Fgc_CtrAttach@NmConst@@YAXXZ 0000000180024860 f   ProtocolProcess.obj
 0001:00023900       ??__FmibCpuRadio@NmConst@@YAXXZ 0000000180024900 f   ProtocolProcess.obj
 0001:000239a0       ??__FmibEmsTotal@NmConst@@YAXXZ 00000001800249a0 f   ProtocolProcess.obj
 0001:00023a40       ??__FmibEmsUse@NmConst@@YAXXZ 0000000180024a40 f   ProtocolProcess.obj
 0001:00023ae0       ??__FmibEmsRadio@NmConst@@YAXXZ 0000000180024ae0 f   ProtocolProcess.obj
 0001:00023b80       ??__FmibDiskNum@NmConst@@YAXXZ 0000000180024b80 f   ProtocolProcess.obj
 0001:00023c20       ??__FmibPartIndex@NmConst@@YAXXZ 0000000180024c20 f   ProtocolProcess.obj
 0001:00023cc0       ??__FmibDiskPhyTotal@NmConst@@YAXXZ 0000000180024cc0 f   ProtocolProcess.obj
 0001:00023d60       ??__FmibDisk_Used@NmConst@@YAXXZ 0000000180024d60 f   ProtocolProcess.obj
 0001:00023e00       ??__FmibDisk_Used_Ratio@NmConst@@YAXXZ 0000000180024e00 f   ProtocolProcess.obj
 0001:00023ea0       ??__Fgc_sThreadNum@NmConst@@YAXXZ 0000000180024ea0 f   ProtocolProcess.obj
 0001:00023f40       ??__Fgc_sThreadIdx@NmConst@@YAXXZ 0000000180024f40 f   ProtocolProcess.obj
 0001:00023fe0       ??__Fgc_sThreadState@NmConst@@YAXXZ 0000000180024fe0 f   ProtocolProcess.obj
 0001:00024080       ??__Fgc_sTcpLocalIp@NmConst@@YAXXZ 0000000180025080 f   ProtocolProcess.obj
 0001:00024120       ??__Fgc_sTcpLocalPort@NmConst@@YAXXZ 0000000180025120 f   ProtocolProcess.obj
 0001:000241c0       ??__Fgc_sTcpRemoteIp@NmConst@@YAXXZ 00000001800251c0 f   ProtocolProcess.obj
 0001:00024260       ??__Fgc_sTcpRemotePort@NmConst@@YAXXZ 0000000180025260 f   ProtocolProcess.obj
 0001:00024300       ??__Fgc_sTcpState@NmConst@@YAXXZ 0000000180025300 f   ProtocolProcess.obj
 0001:000243a0       ??__Fgc_sTcpInBytesAve@NmConst@@YAXXZ 00000001800253a0 f   ProtocolProcess.obj
 0001:00024440       ??__Fgc_sTcpOutBytesAve@NmConst@@YAXXZ 0000000180025440 f   ProtocolProcess.obj
 0001:000244e0       ??__Fmib_NodeId@NmConst@@YAXXZ 00000001800254e0 f   ProtocolProcess.obj
 0001:00024580       ??__Fmib_NodeSta@NmConst@@YAXXZ 0000000180025580 f   ProtocolProcess.obj
 0001:00024620       ??__Fmib_NodeCtr@NmConst@@YAXXZ 0000000180025620 f   ProtocolProcess.obj
 0001:000246c0       ??__FmibQueNum@NmConst@@YAXXZ 00000001800256c0 f   ProtocolProcess.obj
 0001:00024760       ??__Fgc_nItemTypeDigital@NmConst@@YAXXZ 0000000180025760 f   Selector.obj
 0001:00024800       ??__Fgc_nItemTypeAnalog@NmConst@@YAXXZ 0000000180025800 f   Selector.obj
 0001:000248a0       ??__Fgc_nItemTypeConfig@NmConst@@YAXXZ 00000001800258a0 f   Selector.obj
 0001:00024940       ??__Fgc_CtrQuit@NmConst@@YAXXZ 0000000180025940 f   Selector.obj
 0001:000249e0       ??__Fgc_CtrRestar@NmConst@@YAXXZ 00000001800259e0 f   Selector.obj
 0001:00024a80       ??__Fgc_CtrStar@NmConst@@YAXXZ 0000000180025a80 f   Selector.obj
 0001:00024b20       ??__Fgc_CtrDetach@NmConst@@YAXXZ 0000000180025b20 f   Selector.obj
 0001:00024bc0       ??__Fgc_CtrAttach@NmConst@@YAXXZ 0000000180025bc0 f   Selector.obj
 0001:00024c60       ??__FmibCpuRadio@NmConst@@YAXXZ 0000000180025c60 f   Selector.obj
 0001:00024d00       ??__FmibEmsTotal@NmConst@@YAXXZ 0000000180025d00 f   Selector.obj
 0001:00024da0       ??__FmibEmsUse@NmConst@@YAXXZ 0000000180025da0 f   Selector.obj
 0001:00024e40       ??__FmibEmsRadio@NmConst@@YAXXZ 0000000180025e40 f   Selector.obj
 0001:00024ee0       ??__FmibDiskNum@NmConst@@YAXXZ 0000000180025ee0 f   Selector.obj
 0001:00024f80       ??__FmibPartIndex@NmConst@@YAXXZ 0000000180025f80 f   Selector.obj
 0001:00025020       ??__FmibDiskPhyTotal@NmConst@@YAXXZ 0000000180026020 f   Selector.obj
 0001:000250c0       ??__FmibDisk_Used@NmConst@@YAXXZ 00000001800260c0 f   Selector.obj
 0001:00025160       ??__FmibDisk_Used_Ratio@NmConst@@YAXXZ 0000000180026160 f   Selector.obj
 0001:00025200       ??__Fgc_sThreadNum@NmConst@@YAXXZ 0000000180026200 f   Selector.obj
 0001:000252a0       ??__Fgc_sThreadIdx@NmConst@@YAXXZ 00000001800262a0 f   Selector.obj
 0001:00025340       ??__Fgc_sThreadState@NmConst@@YAXXZ 0000000180026340 f   Selector.obj
 0001:000253e0       ??__Fgc_sTcpLocalIp@NmConst@@YAXXZ 00000001800263e0 f   Selector.obj
 0001:00025480       ??__Fgc_sTcpLocalPort@NmConst@@YAXXZ 0000000180026480 f   Selector.obj
 0001:00025520       ??__Fgc_sTcpRemoteIp@NmConst@@YAXXZ 0000000180026520 f   Selector.obj
 0001:000255c0       ??__Fgc_sTcpRemotePort@NmConst@@YAXXZ 00000001800265c0 f   Selector.obj
 0001:00025660       ??__Fgc_sTcpState@NmConst@@YAXXZ 0000000180026660 f   Selector.obj
 0001:00025700       ??__Fgc_sTcpInBytesAve@NmConst@@YAXXZ 0000000180026700 f   Selector.obj
 0001:000257a0       ??__Fgc_sTcpOutBytesAve@NmConst@@YAXXZ 00000001800267a0 f   Selector.obj
 0001:00025840       ??__Fmib_NodeId@NmConst@@YAXXZ 0000000180026840 f   Selector.obj
 0001:000258e0       ??__Fmib_NodeSta@NmConst@@YAXXZ 00000001800268e0 f   Selector.obj
 0001:00025980       ??__Fmib_NodeCtr@NmConst@@YAXXZ 0000000180026980 f   Selector.obj
 0001:00025a20       ??__FmibQueNum@NmConst@@YAXXZ 0000000180026a20 f   Selector.obj
 0001:00025ac0       ??__Fgc_nItemTypeDigital@NmConst@@YAXXZ 0000000180026ac0 f   WorkThreadNm.obj
 0001:00025b60       ??__Fgc_nItemTypeAnalog@NmConst@@YAXXZ 0000000180026b60 f   WorkThreadNm.obj
 0001:00025c00       ??__Fgc_nItemTypeConfig@NmConst@@YAXXZ 0000000180026c00 f   WorkThreadNm.obj
 0001:00025ca0       ??__Fgc_CtrQuit@NmConst@@YAXXZ 0000000180026ca0 f   WorkThreadNm.obj
 0001:00025d40       ??__Fgc_CtrRestar@NmConst@@YAXXZ 0000000180026d40 f   WorkThreadNm.obj
 0001:00025de0       ??__Fgc_CtrStar@NmConst@@YAXXZ 0000000180026de0 f   WorkThreadNm.obj
 0001:00025e80       ??__Fgc_CtrDetach@NmConst@@YAXXZ 0000000180026e80 f   WorkThreadNm.obj
 0001:00025f20       ??__Fgc_CtrAttach@NmConst@@YAXXZ 0000000180026f20 f   WorkThreadNm.obj
 0001:00025fc0       ??__FmibCpuRadio@NmConst@@YAXXZ 0000000180026fc0 f   WorkThreadNm.obj
 0001:00026060       ??__FmibEmsTotal@NmConst@@YAXXZ 0000000180027060 f   WorkThreadNm.obj
 0001:00026100       ??__FmibEmsUse@NmConst@@YAXXZ 0000000180027100 f   WorkThreadNm.obj
 0001:000261a0       ??__FmibEmsRadio@NmConst@@YAXXZ 00000001800271a0 f   WorkThreadNm.obj
 0001:00026240       ??__FmibDiskNum@NmConst@@YAXXZ 0000000180027240 f   WorkThreadNm.obj
 0001:000262e0       ??__FmibPartIndex@NmConst@@YAXXZ 00000001800272e0 f   WorkThreadNm.obj
 0001:00026380       ??__FmibDiskPhyTotal@NmConst@@YAXXZ 0000000180027380 f   WorkThreadNm.obj
 0001:00026420       ??__FmibDisk_Used@NmConst@@YAXXZ 0000000180027420 f   WorkThreadNm.obj
 0001:000264c0       ??__FmibDisk_Used_Ratio@NmConst@@YAXXZ 00000001800274c0 f   WorkThreadNm.obj
 0001:00026560       ??__Fgc_sThreadNum@NmConst@@YAXXZ 0000000180027560 f   WorkThreadNm.obj
 0001:00026600       ??__Fgc_sThreadIdx@NmConst@@YAXXZ 0000000180027600 f   WorkThreadNm.obj
 0001:000266a0       ??__Fgc_sThreadState@NmConst@@YAXXZ 00000001800276a0 f   WorkThreadNm.obj
 0001:00026740       ??__Fgc_sTcpLocalIp@NmConst@@YAXXZ 0000000180027740 f   WorkThreadNm.obj
 0001:000267e0       ??__Fgc_sTcpLocalPort@NmConst@@YAXXZ 00000001800277e0 f   WorkThreadNm.obj
 0001:00026880       ??__Fgc_sTcpRemoteIp@NmConst@@YAXXZ 0000000180027880 f   WorkThreadNm.obj
 0001:00026920       ??__Fgc_sTcpRemotePort@NmConst@@YAXXZ 0000000180027920 f   WorkThreadNm.obj
 0001:000269c0       ??__Fgc_sTcpState@NmConst@@YAXXZ 00000001800279c0 f   WorkThreadNm.obj
 0001:00026a60       ??__Fgc_sTcpInBytesAve@NmConst@@YAXXZ 0000000180027a60 f   WorkThreadNm.obj
 0001:00026b00       ??__Fgc_sTcpOutBytesAve@NmConst@@YAXXZ 0000000180027b00 f   WorkThreadNm.obj
 0001:00026ba0       ??__Fmib_NodeId@NmConst@@YAXXZ 0000000180027ba0 f   WorkThreadNm.obj
 0001:00026c40       ??__Fmib_NodeSta@NmConst@@YAXXZ 0000000180027c40 f   WorkThreadNm.obj
 0001:00026ce0       ??__Fmib_NodeCtr@NmConst@@YAXXZ 0000000180027ce0 f   WorkThreadNm.obj
 0001:00026d80       ??__FmibQueNum@NmConst@@YAXXZ 0000000180027d80 f   WorkThreadNm.obj
 0001:00026e20       ??__F?m_mutexSID@CWorkThreadNm@@0VCGessMutex@@A@@YAXXZ 0000000180027e20 f   WorkThreadNm.obj
 0002:000004a0       ?gc_nItemTypeDigital$initializer$@NmConst@@3P6AXXZEA 00000001800284a0     Connector.obj
 0002:000004a8       ?gc_nItemTypeAnalog$initializer$@NmConst@@3P6AXXZEA 00000001800284a8     Connector.obj
 0002:000004b0       ?gc_nItemTypeConfig$initializer$@NmConst@@3P6AXXZEA 00000001800284b0     Connector.obj
 0002:000004b8       ?gc_CtrQuit$initializer$@NmConst@@3P6AXXZEA 00000001800284b8     Connector.obj
 0002:000004c0       ?gc_CtrRestar$initializer$@NmConst@@3P6AXXZEA 00000001800284c0     Connector.obj
 0002:000004c8       ?gc_CtrStar$initializer$@NmConst@@3P6AXXZEA 00000001800284c8     Connector.obj
 0002:000004d0       ?gc_CtrDetach$initializer$@NmConst@@3P6AXXZEA 00000001800284d0     Connector.obj
 0002:000004d8       ?gc_CtrAttach$initializer$@NmConst@@3P6AXXZEA 00000001800284d8     Connector.obj
 0002:000004e0       ?mibCpuRadio$initializer$@NmConst@@3P6AXXZEA 00000001800284e0     Connector.obj
 0002:000004e8       ?mibEmsTotal$initializer$@NmConst@@3P6AXXZEA 00000001800284e8     Connector.obj
 0002:000004f0       ?mibEmsUse$initializer$@NmConst@@3P6AXXZEA 00000001800284f0     Connector.obj
 0002:000004f8       ?mibEmsRadio$initializer$@NmConst@@3P6AXXZEA 00000001800284f8     Connector.obj
 0002:00000500       ?mibDiskNum$initializer$@NmConst@@3P6AXXZEA 0000000180028500     Connector.obj
 0002:00000508       ?mibPartIndex$initializer$@NmConst@@3P6AXXZEA 0000000180028508     Connector.obj
 0002:00000510       ?mibDiskPhyTotal$initializer$@NmConst@@3P6AXXZEA 0000000180028510     Connector.obj
 0002:00000518       ?mibDisk_Used$initializer$@NmConst@@3P6AXXZEA 0000000180028518     Connector.obj
 0002:00000520       ?mibDisk_Used_Ratio$initializer$@NmConst@@3P6AXXZEA 0000000180028520     Connector.obj
 0002:00000528       ?gc_sThreadNum$initializer$@NmConst@@3P6AXXZEA 0000000180028528     Connector.obj
 0002:00000530       ?gc_sThreadIdx$initializer$@NmConst@@3P6AXXZEA 0000000180028530     Connector.obj
 0002:00000538       ?gc_sThreadState$initializer$@NmConst@@3P6AXXZEA 0000000180028538     Connector.obj
 0002:00000540       ?gc_sTcpLocalIp$initializer$@NmConst@@3P6AXXZEA 0000000180028540     Connector.obj
 0002:00000548       ?gc_sTcpLocalPort$initializer$@NmConst@@3P6AXXZEA 0000000180028548     Connector.obj
 0002:00000550       ?gc_sTcpRemoteIp$initializer$@NmConst@@3P6AXXZEA 0000000180028550     Connector.obj
 0002:00000558       ?gc_sTcpRemotePort$initializer$@NmConst@@3P6AXXZEA 0000000180028558     Connector.obj
 0002:00000560       ?gc_sTcpState$initializer$@NmConst@@3P6AXXZEA 0000000180028560     Connector.obj
 0002:00000568       ?gc_sTcpInBytesAve$initializer$@NmConst@@3P6AXXZEA 0000000180028568     Connector.obj
 0002:00000570       ?gc_sTcpOutBytesAve$initializer$@NmConst@@3P6AXXZEA 0000000180028570     Connector.obj
 0002:00000578       ?mib_NodeId$initializer$@NmConst@@3P6AXXZEA 0000000180028578     Connector.obj
 0002:00000580       ?mib_NodeSta$initializer$@NmConst@@3P6AXXZEA 0000000180028580     Connector.obj
 0002:00000588       ?mib_NodeCtr$initializer$@NmConst@@3P6AXXZEA 0000000180028588     Connector.obj
 0002:00000590       ?mibQueNum$initializer$@NmConst@@3P6AXXZEA 0000000180028590     Connector.obj
 0002:00000598       ??m_mutexSID$initializer$@CConnector@@0P6AXXZEA@@3P6AXXZEA 0000000180028598     Connector.obj
 0002:000005a0       ?gc_nItemTypeDigital$initializer$@NmConst@@3P6AXXZEA 00000001800285a0     Listener.obj
 0002:000005a8       ?gc_nItemTypeAnalog$initializer$@NmConst@@3P6AXXZEA 00000001800285a8     Listener.obj
 0002:000005b0       ?gc_nItemTypeConfig$initializer$@NmConst@@3P6AXXZEA 00000001800285b0     Listener.obj
 0002:000005b8       ?gc_CtrQuit$initializer$@NmConst@@3P6AXXZEA 00000001800285b8     Listener.obj
 0002:000005c0       ?gc_CtrRestar$initializer$@NmConst@@3P6AXXZEA 00000001800285c0     Listener.obj
 0002:000005c8       ?gc_CtrStar$initializer$@NmConst@@3P6AXXZEA 00000001800285c8     Listener.obj
 0002:000005d0       ?gc_CtrDetach$initializer$@NmConst@@3P6AXXZEA 00000001800285d0     Listener.obj
 0002:000005d8       ?gc_CtrAttach$initializer$@NmConst@@3P6AXXZEA 00000001800285d8     Listener.obj
 0002:000005e0       ?mibCpuRadio$initializer$@NmConst@@3P6AXXZEA 00000001800285e0     Listener.obj
 0002:000005e8       ?mibEmsTotal$initializer$@NmConst@@3P6AXXZEA 00000001800285e8     Listener.obj
 0002:000005f0       ?mibEmsUse$initializer$@NmConst@@3P6AXXZEA 00000001800285f0     Listener.obj
 0002:000005f8       ?mibEmsRadio$initializer$@NmConst@@3P6AXXZEA 00000001800285f8     Listener.obj
 0002:00000600       ?mibDiskNum$initializer$@NmConst@@3P6AXXZEA 0000000180028600     Listener.obj
 0002:00000608       ?mibPartIndex$initializer$@NmConst@@3P6AXXZEA 0000000180028608     Listener.obj
 0002:00000610       ?mibDiskPhyTotal$initializer$@NmConst@@3P6AXXZEA 0000000180028610     Listener.obj
 0002:00000618       ?mibDisk_Used$initializer$@NmConst@@3P6AXXZEA 0000000180028618     Listener.obj
 0002:00000620       ?mibDisk_Used_Ratio$initializer$@NmConst@@3P6AXXZEA 0000000180028620     Listener.obj
 0002:00000628       ?gc_sThreadNum$initializer$@NmConst@@3P6AXXZEA 0000000180028628     Listener.obj
 0002:00000630       ?gc_sThreadIdx$initializer$@NmConst@@3P6AXXZEA 0000000180028630     Listener.obj
 0002:00000638       ?gc_sThreadState$initializer$@NmConst@@3P6AXXZEA 0000000180028638     Listener.obj
 0002:00000640       ?gc_sTcpLocalIp$initializer$@NmConst@@3P6AXXZEA 0000000180028640     Listener.obj
 0002:00000648       ?gc_sTcpLocalPort$initializer$@NmConst@@3P6AXXZEA 0000000180028648     Listener.obj
 0002:00000650       ?gc_sTcpRemoteIp$initializer$@NmConst@@3P6AXXZEA 0000000180028650     Listener.obj
 0002:00000658       ?gc_sTcpRemotePort$initializer$@NmConst@@3P6AXXZEA 0000000180028658     Listener.obj
 0002:00000660       ?gc_sTcpState$initializer$@NmConst@@3P6AXXZEA 0000000180028660     Listener.obj
 0002:00000668       ?gc_sTcpInBytesAve$initializer$@NmConst@@3P6AXXZEA 0000000180028668     Listener.obj
 0002:00000670       ?gc_sTcpOutBytesAve$initializer$@NmConst@@3P6AXXZEA 0000000180028670     Listener.obj
 0002:00000678       ?mib_NodeId$initializer$@NmConst@@3P6AXXZEA 0000000180028678     Listener.obj
 0002:00000680       ?mib_NodeSta$initializer$@NmConst@@3P6AXXZEA 0000000180028680     Listener.obj
 0002:00000688       ?mib_NodeCtr$initializer$@NmConst@@3P6AXXZEA 0000000180028688     Listener.obj
 0002:00000690       ?mibQueNum$initializer$@NmConst@@3P6AXXZEA 0000000180028690     Listener.obj
 0002:00000698       ?gc_nItemTypeDigital$initializer$@NmConst@@3P6AXXZEA 0000000180028698     ProtocolComm.obj
 0002:000006a0       ?gc_nItemTypeAnalog$initializer$@NmConst@@3P6AXXZEA 00000001800286a0     ProtocolComm.obj
 0002:000006a8       ?gc_nItemTypeConfig$initializer$@NmConst@@3P6AXXZEA 00000001800286a8     ProtocolComm.obj
 0002:000006b0       ?gc_CtrQuit$initializer$@NmConst@@3P6AXXZEA 00000001800286b0     ProtocolComm.obj
 0002:000006b8       ?gc_CtrRestar$initializer$@NmConst@@3P6AXXZEA 00000001800286b8     ProtocolComm.obj
 0002:000006c0       ?gc_CtrStar$initializer$@NmConst@@3P6AXXZEA 00000001800286c0     ProtocolComm.obj
 0002:000006c8       ?gc_CtrDetach$initializer$@NmConst@@3P6AXXZEA 00000001800286c8     ProtocolComm.obj
 0002:000006d0       ?gc_CtrAttach$initializer$@NmConst@@3P6AXXZEA 00000001800286d0     ProtocolComm.obj
 0002:000006d8       ?mibCpuRadio$initializer$@NmConst@@3P6AXXZEA 00000001800286d8     ProtocolComm.obj
 0002:000006e0       ?mibEmsTotal$initializer$@NmConst@@3P6AXXZEA 00000001800286e0     ProtocolComm.obj
 0002:000006e8       ?mibEmsUse$initializer$@NmConst@@3P6AXXZEA 00000001800286e8     ProtocolComm.obj
 0002:000006f0       ?mibEmsRadio$initializer$@NmConst@@3P6AXXZEA 00000001800286f0     ProtocolComm.obj
 0002:000006f8       ?mibDiskNum$initializer$@NmConst@@3P6AXXZEA 00000001800286f8     ProtocolComm.obj
 0002:00000700       ?mibPartIndex$initializer$@NmConst@@3P6AXXZEA 0000000180028700     ProtocolComm.obj
 0002:00000708       ?mibDiskPhyTotal$initializer$@NmConst@@3P6AXXZEA 0000000180028708     ProtocolComm.obj
 0002:00000710       ?mibDisk_Used$initializer$@NmConst@@3P6AXXZEA 0000000180028710     ProtocolComm.obj
 0002:00000718       ?mibDisk_Used_Ratio$initializer$@NmConst@@3P6AXXZEA 0000000180028718     ProtocolComm.obj
 0002:00000720       ?gc_sThreadNum$initializer$@NmConst@@3P6AXXZEA 0000000180028720     ProtocolComm.obj
 0002:00000728       ?gc_sThreadIdx$initializer$@NmConst@@3P6AXXZEA 0000000180028728     ProtocolComm.obj
 0002:00000730       ?gc_sThreadState$initializer$@NmConst@@3P6AXXZEA 0000000180028730     ProtocolComm.obj
 0002:00000738       ?gc_sTcpLocalIp$initializer$@NmConst@@3P6AXXZEA 0000000180028738     ProtocolComm.obj
 0002:00000740       ?gc_sTcpLocalPort$initializer$@NmConst@@3P6AXXZEA 0000000180028740     ProtocolComm.obj
 0002:00000748       ?gc_sTcpRemoteIp$initializer$@NmConst@@3P6AXXZEA 0000000180028748     ProtocolComm.obj
 0002:00000750       ?gc_sTcpRemotePort$initializer$@NmConst@@3P6AXXZEA 0000000180028750     ProtocolComm.obj
 0002:00000758       ?gc_sTcpState$initializer$@NmConst@@3P6AXXZEA 0000000180028758     ProtocolComm.obj
 0002:00000760       ?gc_sTcpInBytesAve$initializer$@NmConst@@3P6AXXZEA 0000000180028760     ProtocolComm.obj
 0002:00000768       ?gc_sTcpOutBytesAve$initializer$@NmConst@@3P6AXXZEA 0000000180028768     ProtocolComm.obj
 0002:00000770       ?mib_NodeId$initializer$@NmConst@@3P6AXXZEA 0000000180028770     ProtocolComm.obj
 0002:00000778       ?mib_NodeSta$initializer$@NmConst@@3P6AXXZEA 0000000180028778     ProtocolComm.obj
 0002:00000780       ?mib_NodeCtr$initializer$@NmConst@@3P6AXXZEA 0000000180028780     ProtocolComm.obj
 0002:00000788       ?mibQueNum$initializer$@NmConst@@3P6AXXZEA 0000000180028788     ProtocolComm.obj
 0002:00000790       ??m_mutexSingleton$initializer$@?$CSingleton@VCSelectorListen@@@@0P6AXXZEA@@3P6AXXZEA 0000000180028790     ProtocolComm.obj
 0002:00000798       ??m_mutexSingleton$initializer$@?$CSingleton@VCSelectorIo@@@@0P6AXXZEA@@3P6AXXZEA 0000000180028798     ProtocolComm.obj
 0002:000007a0       ?gc_nItemTypeDigital$initializer$@NmConst@@3P6AXXZEA 00000001800287a0     ProtocolProcess.obj
 0002:000007a8       ?gc_nItemTypeAnalog$initializer$@NmConst@@3P6AXXZEA 00000001800287a8     ProtocolProcess.obj
 0002:000007b0       ?gc_nItemTypeConfig$initializer$@NmConst@@3P6AXXZEA 00000001800287b0     ProtocolProcess.obj
 0002:000007b8       ?gc_CtrQuit$initializer$@NmConst@@3P6AXXZEA 00000001800287b8     ProtocolProcess.obj
 0002:000007c0       ?gc_CtrRestar$initializer$@NmConst@@3P6AXXZEA 00000001800287c0     ProtocolProcess.obj
 0002:000007c8       ?gc_CtrStar$initializer$@NmConst@@3P6AXXZEA 00000001800287c8     ProtocolProcess.obj
 0002:000007d0       ?gc_CtrDetach$initializer$@NmConst@@3P6AXXZEA 00000001800287d0     ProtocolProcess.obj
 0002:000007d8       ?gc_CtrAttach$initializer$@NmConst@@3P6AXXZEA 00000001800287d8     ProtocolProcess.obj
 0002:000007e0       ?mibCpuRadio$initializer$@NmConst@@3P6AXXZEA 00000001800287e0     ProtocolProcess.obj
 0002:000007e8       ?mibEmsTotal$initializer$@NmConst@@3P6AXXZEA 00000001800287e8     ProtocolProcess.obj
 0002:000007f0       ?mibEmsUse$initializer$@NmConst@@3P6AXXZEA 00000001800287f0     ProtocolProcess.obj
 0002:000007f8       ?mibEmsRadio$initializer$@NmConst@@3P6AXXZEA 00000001800287f8     ProtocolProcess.obj
 0002:00000800       ?mibDiskNum$initializer$@NmConst@@3P6AXXZEA 0000000180028800     ProtocolProcess.obj
 0002:00000808       ?mibPartIndex$initializer$@NmConst@@3P6AXXZEA 0000000180028808     ProtocolProcess.obj
 0002:00000810       ?mibDiskPhyTotal$initializer$@NmConst@@3P6AXXZEA 0000000180028810     ProtocolProcess.obj
 0002:00000818       ?mibDisk_Used$initializer$@NmConst@@3P6AXXZEA 0000000180028818     ProtocolProcess.obj
 0002:00000820       ?mibDisk_Used_Ratio$initializer$@NmConst@@3P6AXXZEA 0000000180028820     ProtocolProcess.obj
 0002:00000828       ?gc_sThreadNum$initializer$@NmConst@@3P6AXXZEA 0000000180028828     ProtocolProcess.obj
 0002:00000830       ?gc_sThreadIdx$initializer$@NmConst@@3P6AXXZEA 0000000180028830     ProtocolProcess.obj
 0002:00000838       ?gc_sThreadState$initializer$@NmConst@@3P6AXXZEA 0000000180028838     ProtocolProcess.obj
 0002:00000840       ?gc_sTcpLocalIp$initializer$@NmConst@@3P6AXXZEA 0000000180028840     ProtocolProcess.obj
 0002:00000848       ?gc_sTcpLocalPort$initializer$@NmConst@@3P6AXXZEA 0000000180028848     ProtocolProcess.obj
 0002:00000850       ?gc_sTcpRemoteIp$initializer$@NmConst@@3P6AXXZEA 0000000180028850     ProtocolProcess.obj
 0002:00000858       ?gc_sTcpRemotePort$initializer$@NmConst@@3P6AXXZEA 0000000180028858     ProtocolProcess.obj
 0002:00000860       ?gc_sTcpState$initializer$@NmConst@@3P6AXXZEA 0000000180028860     ProtocolProcess.obj
 0002:00000868       ?gc_sTcpInBytesAve$initializer$@NmConst@@3P6AXXZEA 0000000180028868     ProtocolProcess.obj
 0002:00000870       ?gc_sTcpOutBytesAve$initializer$@NmConst@@3P6AXXZEA 0000000180028870     ProtocolProcess.obj
 0002:00000878       ?mib_NodeId$initializer$@NmConst@@3P6AXXZEA 0000000180028878     ProtocolProcess.obj
 0002:00000880       ?mib_NodeSta$initializer$@NmConst@@3P6AXXZEA 0000000180028880     ProtocolProcess.obj
 0002:00000888       ?mib_NodeCtr$initializer$@NmConst@@3P6AXXZEA 0000000180028888     ProtocolProcess.obj
 0002:00000890       ?mibQueNum$initializer$@NmConst@@3P6AXXZEA 0000000180028890     ProtocolProcess.obj
 0002:00000898       ?gc_nItemTypeDigital$initializer$@NmConst@@3P6AXXZEA 0000000180028898     Selector.obj
 0002:000008a0       ?gc_nItemTypeAnalog$initializer$@NmConst@@3P6AXXZEA 00000001800288a0     Selector.obj
 0002:000008a8       ?gc_nItemTypeConfig$initializer$@NmConst@@3P6AXXZEA 00000001800288a8     Selector.obj
 0002:000008b0       ?gc_CtrQuit$initializer$@NmConst@@3P6AXXZEA 00000001800288b0     Selector.obj
 0002:000008b8       ?gc_CtrRestar$initializer$@NmConst@@3P6AXXZEA 00000001800288b8     Selector.obj
 0002:000008c0       ?gc_CtrStar$initializer$@NmConst@@3P6AXXZEA 00000001800288c0     Selector.obj
 0002:000008c8       ?gc_CtrDetach$initializer$@NmConst@@3P6AXXZEA 00000001800288c8     Selector.obj
 0002:000008d0       ?gc_CtrAttach$initializer$@NmConst@@3P6AXXZEA 00000001800288d0     Selector.obj
 0002:000008d8       ?mibCpuRadio$initializer$@NmConst@@3P6AXXZEA 00000001800288d8     Selector.obj
 0002:000008e0       ?mibEmsTotal$initializer$@NmConst@@3P6AXXZEA 00000001800288e0     Selector.obj
 0002:000008e8       ?mibEmsUse$initializer$@NmConst@@3P6AXXZEA 00000001800288e8     Selector.obj
 0002:000008f0       ?mibEmsRadio$initializer$@NmConst@@3P6AXXZEA 00000001800288f0     Selector.obj
 0002:000008f8       ?mibDiskNum$initializer$@NmConst@@3P6AXXZEA 00000001800288f8     Selector.obj
 0002:00000900       ?mibPartIndex$initializer$@NmConst@@3P6AXXZEA 0000000180028900     Selector.obj
 0002:00000908       ?mibDiskPhyTotal$initializer$@NmConst@@3P6AXXZEA 0000000180028908     Selector.obj
 0002:00000910       ?mibDisk_Used$initializer$@NmConst@@3P6AXXZEA 0000000180028910     Selector.obj
 0002:00000918       ?mibDisk_Used_Ratio$initializer$@NmConst@@3P6AXXZEA 0000000180028918     Selector.obj
 0002:00000920       ?gc_sThreadNum$initializer$@NmConst@@3P6AXXZEA 0000000180028920     Selector.obj
 0002:00000928       ?gc_sThreadIdx$initializer$@NmConst@@3P6AXXZEA 0000000180028928     Selector.obj
 0002:00000930       ?gc_sThreadState$initializer$@NmConst@@3P6AXXZEA 0000000180028930     Selector.obj
 0002:00000938       ?gc_sTcpLocalIp$initializer$@NmConst@@3P6AXXZEA 0000000180028938     Selector.obj
 0002:00000940       ?gc_sTcpLocalPort$initializer$@NmConst@@3P6AXXZEA 0000000180028940     Selector.obj
 0002:00000948       ?gc_sTcpRemoteIp$initializer$@NmConst@@3P6AXXZEA 0000000180028948     Selector.obj
 0002:00000950       ?gc_sTcpRemotePort$initializer$@NmConst@@3P6AXXZEA 0000000180028950     Selector.obj
 0002:00000958       ?gc_sTcpState$initializer$@NmConst@@3P6AXXZEA 0000000180028958     Selector.obj
 0002:00000960       ?gc_sTcpInBytesAve$initializer$@NmConst@@3P6AXXZEA 0000000180028960     Selector.obj
 0002:00000968       ?gc_sTcpOutBytesAve$initializer$@NmConst@@3P6AXXZEA 0000000180028968     Selector.obj
 0002:00000970       ?mib_NodeId$initializer$@NmConst@@3P6AXXZEA 0000000180028970     Selector.obj
 0002:00000978       ?mib_NodeSta$initializer$@NmConst@@3P6AXXZEA 0000000180028978     Selector.obj
 0002:00000980       ?mib_NodeCtr$initializer$@NmConst@@3P6AXXZEA 0000000180028980     Selector.obj
 0002:00000988       ?mibQueNum$initializer$@NmConst@@3P6AXXZEA 0000000180028988     Selector.obj
 0002:00000990       ?gc_nItemTypeDigital$initializer$@NmConst@@3P6AXXZEA 0000000180028990     WorkThreadNm.obj
 0002:00000998       ?gc_nItemTypeAnalog$initializer$@NmConst@@3P6AXXZEA 0000000180028998     WorkThreadNm.obj
 0002:000009a0       ?gc_nItemTypeConfig$initializer$@NmConst@@3P6AXXZEA 00000001800289a0     WorkThreadNm.obj
 0002:000009a8       ?gc_CtrQuit$initializer$@NmConst@@3P6AXXZEA 00000001800289a8     WorkThreadNm.obj
 0002:000009b0       ?gc_CtrRestar$initializer$@NmConst@@3P6AXXZEA 00000001800289b0     WorkThreadNm.obj
 0002:000009b8       ?gc_CtrStar$initializer$@NmConst@@3P6AXXZEA 00000001800289b8     WorkThreadNm.obj
 0002:000009c0       ?gc_CtrDetach$initializer$@NmConst@@3P6AXXZEA 00000001800289c0     WorkThreadNm.obj
 0002:000009c8       ?gc_CtrAttach$initializer$@NmConst@@3P6AXXZEA 00000001800289c8     WorkThreadNm.obj
 0002:000009d0       ?mibCpuRadio$initializer$@NmConst@@3P6AXXZEA 00000001800289d0     WorkThreadNm.obj
 0002:000009d8       ?mibEmsTotal$initializer$@NmConst@@3P6AXXZEA 00000001800289d8     WorkThreadNm.obj
 0002:000009e0       ?mibEmsUse$initializer$@NmConst@@3P6AXXZEA 00000001800289e0     WorkThreadNm.obj
 0002:000009e8       ?mibEmsRadio$initializer$@NmConst@@3P6AXXZEA 00000001800289e8     WorkThreadNm.obj
 0002:000009f0       ?mibDiskNum$initializer$@NmConst@@3P6AXXZEA 00000001800289f0     WorkThreadNm.obj
 0002:000009f8       ?mibPartIndex$initializer$@NmConst@@3P6AXXZEA 00000001800289f8     WorkThreadNm.obj
 0002:00000a00       ?mibDiskPhyTotal$initializer$@NmConst@@3P6AXXZEA 0000000180028a00     WorkThreadNm.obj
 0002:00000a08       ?mibDisk_Used$initializer$@NmConst@@3P6AXXZEA 0000000180028a08     WorkThreadNm.obj
 0002:00000a10       ?mibDisk_Used_Ratio$initializer$@NmConst@@3P6AXXZEA 0000000180028a10     WorkThreadNm.obj
 0002:00000a18       ?gc_sThreadNum$initializer$@NmConst@@3P6AXXZEA 0000000180028a18     WorkThreadNm.obj
 0002:00000a20       ?gc_sThreadIdx$initializer$@NmConst@@3P6AXXZEA 0000000180028a20     WorkThreadNm.obj
 0002:00000a28       ?gc_sThreadState$initializer$@NmConst@@3P6AXXZEA 0000000180028a28     WorkThreadNm.obj
 0002:00000a30       ?gc_sTcpLocalIp$initializer$@NmConst@@3P6AXXZEA 0000000180028a30     WorkThreadNm.obj
 0002:00000a38       ?gc_sTcpLocalPort$initializer$@NmConst@@3P6AXXZEA 0000000180028a38     WorkThreadNm.obj
 0002:00000a40       ?gc_sTcpRemoteIp$initializer$@NmConst@@3P6AXXZEA 0000000180028a40     WorkThreadNm.obj
 0002:00000a48       ?gc_sTcpRemotePort$initializer$@NmConst@@3P6AXXZEA 0000000180028a48     WorkThreadNm.obj
 0002:00000a50       ?gc_sTcpState$initializer$@NmConst@@3P6AXXZEA 0000000180028a50     WorkThreadNm.obj
 0002:00000a58       ?gc_sTcpInBytesAve$initializer$@NmConst@@3P6AXXZEA 0000000180028a58     WorkThreadNm.obj
 0002:00000a60       ?gc_sTcpOutBytesAve$initializer$@NmConst@@3P6AXXZEA 0000000180028a60     WorkThreadNm.obj
 0002:00000a68       ?mib_NodeId$initializer$@NmConst@@3P6AXXZEA 0000000180028a68     WorkThreadNm.obj
 0002:00000a70       ?mib_NodeSta$initializer$@NmConst@@3P6AXXZEA 0000000180028a70     WorkThreadNm.obj
 0002:00000a78       ?mib_NodeCtr$initializer$@NmConst@@3P6AXXZEA 0000000180028a78     WorkThreadNm.obj
 0002:00000a80       ?mibQueNum$initializer$@NmConst@@3P6AXXZEA 0000000180028a80     WorkThreadNm.obj
 0002:00000a88       ??m_mutexSID$initializer$@CWorkThreadNm@@0P6AXXZEA@@3P6AXXZEA 0000000180028a88     WorkThreadNm.obj
 0002:00001978       ?piecewise_construct@std@@3Upiecewise_construct_t@1@B 0000000180029978     ProtocolComm.obj
 0002:00001979       ?piecewise_construct@std@@3Upiecewise_construct_t@1@B 0000000180029979     Selector.obj
 0002:00002710       $cppxdata$?_Buynode0@?$_Tree_comp_alloc@V?$_Tmap_traits@_KPEAXU?$less@_K@std@@V?$allocator@U?$pair@$$CB_KPEAX@std@@@2@$0A@@std@@@std@@QEAAPEAU?$_Tree_node@U?$pair@$$CB_KPEAX@std@@PEAX@2@XZ 000000018002a710     ProtocolComm.obj
 0002:00002710       $cppxdata$?_Buynode0@?$_Tree_comp_alloc@V?$_Tmap_traits@_KPEAUtagKeyContex@@U?$less@_K@std@@V?$allocator@U?$pair@$$CB_KPEAUtagKeyContex@@@std@@@3@$0A@@std@@@std@@QEAAPEAU?$_Tree_node@U?$pair@$$CB_KPEAUtagKeyContex@@@std@@PEAX@2@XZ 000000018002a710     Connector.obj
 0002:00002738       $cppxdata$??$_Uninitialized_move_al_unchecked1@PEAV?$basic_string@DU?$char_traits@D@std@@V?$allocator@D@2@@std@@PEAV12@V?$allocator@V?$basic_string@DU?$char_traits@D@std@@V?$allocator@D@2@@std@@@2@@std@@YAPEAV?$basic_string@DU?$char_traits@D@std@@V?$allocator@D@2@@0@PEAV10@00AEAU?$_Wrap_alloc@V?$allocator@V?$basic_string@DU?$char_traits@D@std@@V?$allocator@D@2@@std@@@std@@@0@U_General_ptr_iterator_tag@0@@Z 000000018002a738     Connector.obj
 0002:00002760       $cppxdata$??$_Uninitialized_move_al_unchecked1@PEAU?$pair@V?$basic_string@DU?$char_traits@D@std@@V?$allocator@D@2@@std@@H@std@@PEAU12@V?$allocator@U?$pair@V?$basic_string@DU?$char_traits@D@std@@V?$allocator@D@2@@std@@H@std@@@2@@std@@YAPEAU?$pair@V?$basic_string@DU?$char_traits@D@std@@V?$allocator@D@2@@std@@H@0@PEAU10@00AEAU?$_Wrap_alloc@V?$allocator@U?$pair@V?$basic_string@DU?$char_traits@D@std@@V?$allocator@D@2@@std@@H@std@@@std@@@0@U_General_ptr_iterator_tag@0@@Z 000000018002a760     Connector.obj
 0002:00002788       $cppxdata$??$_Buynode@AEAU?$pair@$$CB_KPEAUtagKeyContex@@@std@@@?$_Tree_comp_alloc@V?$_Tmap_traits@_KPEAUtagKeyContex@@U?$less@_K@std@@V?$allocator@U?$pair@$$CB_KPEAUtagKeyContex@@@std@@@3@$0A@@std@@@std@@QEAAPEAU?$_Tree_node@U?$pair@$$CB_KPEAUtagKeyContex@@@std@@PEAX@1@AEAU?$pair@$$CB_KPEAUtagKeyContex@@@1@@Z 000000018002a788     Connector.obj
 0002:00002788       $cppxdata$??$_Buynode@AEAU?$pair@$$CB_KPEAX@std@@@?$_Tree_comp_alloc@V?$_Tmap_traits@_KPEAXU?$less@_K@std@@V?$allocator@U?$pair@$$CB_KPEAX@std@@@2@$0A@@std@@@std@@QEAAPEAU?$_Tree_node@U?$pair@$$CB_KPEAX@std@@PEAX@1@AEAU?$pair@$$CB_KPEAX@1@@Z 000000018002a788     ProtocolComm.obj
 0002:000027b0       $cppxdata$??$_Uninitialized_copy_al_unchecked1@PEBU?$pair@V?$basic_string@DU?$char_traits@D@std@@V?$allocator@D@2@@std@@H@std@@PEAU12@V?$allocator@U?$pair@V?$basic_string@DU?$char_traits@D@std@@V?$allocator@D@2@@std@@H@std@@@2@@std@@YAPEAU?$pair@V?$basic_string@DU?$char_traits@D@std@@V?$allocator@D@2@@std@@H@0@PEBU10@0PEAU10@AEAU?$_Wrap_alloc@V?$allocator@U?$pair@V?$basic_string@DU?$char_traits@D@std@@V?$allocator@D@2@@std@@H@std@@@std@@@0@U_General_ptr_iterator_tag@0@@Z 000000018002a7b0     Connector.obj
 0002:000027b0       $cppxdata$??$_Uninitialized_copy_al_unchecked1@PEAU?$pair@V?$basic_string@DU?$char_traits@D@std@@V?$allocator@D@2@@std@@H@std@@PEAU12@V?$allocator@U?$pair@V?$basic_string@DU?$char_traits@D@std@@V?$allocator@D@2@@std@@H@std@@@2@@std@@YAPEAU?$pair@V?$basic_string@DU?$char_traits@D@std@@V?$allocator@D@2@@std@@H@0@PEAU10@00AEAU?$_Wrap_alloc@V?$allocator@U?$pair@V?$basic_string@DU?$char_traits@D@std@@V?$allocator@D@2@@std@@H@std@@@std@@@0@U_General_ptr_iterator_tag@0@@Z 000000018002a7b0     Connector.obj
 0002:000027d8       $cppxdata$??$_Copy_nodes@U_Copy_tag@?$_Tree@V?$_Tmap_traits@_KPEAUtagKeyContex@@U?$less@_K@std@@V?$allocator@U?$pair@$$CB_KPEAUtagKeyContex@@@std@@@3@$0A@@std@@@std@@@?$_Tree@V?$_Tmap_traits@_KPEAUtagKeyContex@@U?$less@_K@std@@V?$allocator@U?$pair@$$CB_KPEAUtagKeyContex@@@std@@@3@$0A@@std@@@std@@IEAAPEAU?$_Tree_node@U?$pair@$$CB_KPEAUtagKeyContex@@@std@@PEAX@1@PEAU21@0U_Copy_tag@01@@Z 000000018002a7d8     Connector.obj
 0002:000027d8       $cppxdata$??$_Copy_nodes@U_Copy_tag@?$_Tree@V?$_Tmap_traits@_KPEAXU?$less@_K@std@@V?$allocator@U?$pair@$$CB_KPEAX@std@@@2@$0A@@std@@@std@@@?$_Tree@V?$_Tmap_traits@_KPEAXU?$less@_K@std@@V?$allocator@U?$pair@$$CB_KPEAX@std@@@2@$0A@@std@@@std@@IEAAPEAU?$_Tree_node@U?$pair@$$CB_KPEAX@std@@PEAX@1@PEAU21@0U_Copy_tag@01@@Z 000000018002a7d8     ProtocolComm.obj
 0002:00002800       $cppxdata$??$_Copy_no_deprecate@V?$_Deque_const_iterator@V?$_Deque_val@U?$_Deque_simple_types@PEAUtagKeyContex@@@std@@@std@@@std@@V?$_Deque_iterator@V?$_Deque_val@U?$_Deque_simple_types@PEAUtagKeyContex@@@std@@@std@@@2@@std@@YA?AV?$_Deque_iterator@V?$_Deque_val@U?$_Deque_simple_types@PEAUtagKeyContex@@@std@@@std@@@0@V?$_Deque_const_iterator@V?$_Deque_val@U?$_Deque_simple_types@PEAUtagKeyContex@@@std@@@std@@@0@0V10@@Z 000000018002a800     Connector.obj
 0002:00002800       $cppxdata$??$_Move_no_deprecate@V?$_Deque_iterator@V?$_Deque_val@U?$_Deque_simple_types@PEAUtagKeyContex@@@std@@@std@@@std@@V12@@std@@YA?AV?$_Deque_iterator@V?$_Deque_val@U?$_Deque_simple_types@PEAUtagKeyContex@@@std@@@std@@@0@V10@00@Z 000000018002a800     Connector.obj
 0002:00002828       $cppxdata$??$_Copy_no_deprecate@V?$_Deque_const_iterator@V?$_Deque_val@U?$_Deque_simple_types@U?$pair@_KPEAX@std@@@std@@@std@@@std@@V?$_Deque_iterator@V?$_Deque_val@U?$_Deque_simple_types@U?$pair@_KPEAX@std@@@std@@@std@@@2@@std@@YA?AV?$_Deque_iterator@V?$_Deque_val@U?$_Deque_simple_types@U?$pair@_KPEAX@std@@@std@@@std@@@0@V?$_Deque_const_iterator@V?$_Deque_val@U?$_Deque_simple_types@U?$pair@_KPEAX@std@@@std@@@std@@@0@0V10@@Z 000000018002a828     ProtocolComm.obj
 0002:00002828       $cppxdata$??$_Move_no_deprecate@V?$_Deque_iterator@V?$_Deque_val@U?$_Deque_simple_types@U?$pair@_JPEAUtagKeyContex@@@std@@@std@@@std@@@std@@V12@@std@@YA?AV?$_Deque_iterator@V?$_Deque_val@U?$_Deque_simple_types@U?$pair@_JPEAUtagKeyContex@@@std@@@std@@@std@@@0@V10@00@Z 000000018002a828     Connector.obj
 0002:00002828       $cppxdata$??$_Move_no_deprecate@V?$_Deque_iterator@V?$_Deque_val@U?$_Deque_simple_types@U?$pair@_KPEAX@std@@@std@@@std@@@std@@V12@@std@@YA?AV?$_Deque_iterator@V?$_Deque_val@U?$_Deque_simple_types@U?$pair@_KPEAX@std@@@std@@@std@@@0@V10@00@Z 000000018002a828     ProtocolComm.obj
 0002:00002828       $cppxdata$??$_Copy_no_deprecate@V?$_Deque_const_iterator@V?$_Deque_val@U?$_Deque_simple_types@U?$pair@_JPEAUtagKeyContex@@@std@@@std@@@std@@@std@@V?$_Deque_iterator@V?$_Deque_val@U?$_Deque_simple_types@U?$pair@_JPEAUtagKeyContex@@@std@@@std@@@std@@@2@@std@@YA?AV?$_Deque_iterator@V?$_Deque_val@U?$_Deque_simple_types@U?$pair@_JPEAUtagKeyContex@@@std@@@std@@@std@@@0@V?$_Deque_const_iterator@V?$_Deque_val@U?$_Deque_simple_types@U?$pair@_JPEAUtagKeyContex@@@std@@@std@@@std@@@0@0V10@@Z 000000018002a828     Connector.obj
 0002:00002850       $cppxdata$?_Buyheadnode@?$_Tree_comp_alloc@V?$_Tmap_traits@_KPEAXU?$less@_K@std@@V?$allocator@U?$pair@$$CB_KPEAX@std@@@2@$0A@@std@@@std@@QEAAPEAU?$_Tree_node@U?$pair@$$CB_KPEAX@std@@PEAX@2@XZ 000000018002a850     ProtocolComm.obj
 0002:00002850       $cppxdata$?_Buyheadnode@?$_Tree_comp_alloc@V?$_Tmap_traits@_KPEAUtagKeyContex@@U?$less@_K@std@@V?$allocator@U?$pair@$$CB_KPEAUtagKeyContex@@@std@@@3@$0A@@std@@@std@@QEAAPEAU?$_Tree_node@U?$pair@$$CB_KPEAUtagKeyContex@@@std@@PEAX@2@XZ 000000018002a850     Connector.obj
 0002:00002878       $cppxdata$??0?$basic_stringstream@DU?$char_traits@D@std@@V?$allocator@D@2@@std@@QEAA@AEBV?$basic_string@DU?$char_traits@D@std@@V?$allocator@D@2@@1@H@Z 000000018002a878     Connector.obj
 0002:000028a0       $cppxdata$??$move_backward@V?$_Deque_iterator@V?$_Deque_val@U?$_Deque_simple_types@PEAUtagKeyContex@@@std@@@std@@@std@@V12@@std@@YA?AV?$_Deque_iterator@V?$_Deque_val@U?$_Deque_simple_types@PEAUtagKeyContex@@@std@@@std@@@0@V10@00@Z 000000018002a8a0     Connector.obj
 0002:000028c8       $cppxdata$??$move_backward@V?$_Deque_iterator@V?$_Deque_val@U?$_Deque_simple_types@U?$pair@_JPEAUtagKeyContex@@@std@@@std@@@std@@@std@@V12@@std@@YA?AV?$_Deque_iterator@V?$_Deque_val@U?$_Deque_simple_types@U?$pair@_JPEAUtagKeyContex@@@std@@@std@@@std@@@0@V10@00@Z 000000018002a8c8     Connector.obj
 0002:000028c8       $cppxdata$??$move_backward@V?$_Deque_iterator@V?$_Deque_val@U?$_Deque_simple_types@U?$pair@_KPEAX@std@@@std@@@std@@@std@@V12@@std@@YA?AV?$_Deque_iterator@V?$_Deque_val@U?$_Deque_simple_types@U?$pair@_KPEAX@std@@@std@@@std@@@0@V10@00@Z 000000018002a8c8     ProtocolComm.obj
 0002:000028f0       $cppxdata$??$_Construct@V?$_Deque_const_iterator@V?$_Deque_val@U?$_Deque_simple_types@PEAUtagKeyContex@@@std@@@std@@@std@@@?$deque@PEAUtagKeyContex@@V?$allocator@PEAUtagKeyContex@@@std@@@std@@QEAAXV?$_Deque_const_iterator@V?$_Deque_val@U?$_Deque_simple_types@PEAUtagKeyContex@@@std@@@std@@@1@0@Z 000000018002a8f0     Connector.obj
 0002:00002918       $cppxdata$??$insert@V?$_Deque_const_iterator@V?$_Deque_val@U?$_Deque_simple_types@PEAUtagKeyContex@@@std@@@std@@@std@@@?$deque@PEAUtagKeyContex@@V?$allocator@PEAUtagKeyContex@@@std@@@std@@QEAA?AV?$_Deque_iterator@V?$_Deque_val@U?$_Deque_simple_types@PEAUtagKeyContex@@@std@@@std@@@1@V?$_Deque_const_iterator@V?$_Deque_val@U?$_Deque_simple_types@PEAUtagKeyContex@@@std@@@std@@@1@00@Z 000000018002a918     Connector.obj
 0002:00002940       $cppxdata$??$copy@V?$_Deque_const_iterator@V?$_Deque_val@U?$_Deque_simple_types@PEAUtagKeyContex@@@std@@@std@@@std@@V?$_Deque_iterator@V?$_Deque_val@U?$_Deque_simple_types@PEAUtagKeyContex@@@std@@@std@@@2@@std@@YA?AV?$_Deque_iterator@V?$_Deque_val@U?$_Deque_simple_types@PEAUtagKeyContex@@@std@@@std@@@0@V?$_Deque_const_iterator@V?$_Deque_val@U?$_Deque_simple_types@PEAUtagKeyContex@@@std@@@std@@@0@0V10@@Z 000000018002a940     Connector.obj
 0002:00002940       $cppxdata$??$move@V?$_Deque_iterator@V?$_Deque_val@U?$_Deque_simple_types@PEAUtagKeyContex@@@std@@@std@@@std@@V12@@std@@YA?AV?$_Deque_iterator@V?$_Deque_val@U?$_Deque_simple_types@PEAUtagKeyContex@@@std@@@std@@@0@V10@00@Z 000000018002a940     Connector.obj
 0002:00002968       $cppxdata$??$_Construct@V?$_Deque_const_iterator@V?$_Deque_val@U?$_Deque_simple_types@U?$pair@_JPEAUtagKeyContex@@@std@@@std@@@std@@@std@@@?$deque@U?$pair@_JPEAUtagKeyContex@@@std@@V?$allocator@U?$pair@_JPEAUtagKeyContex@@@std@@@2@@std@@QEAAXV?$_Deque_const_iterator@V?$_Deque_val@U?$_Deque_simple_types@U?$pair@_JPEAUtagKeyContex@@@std@@@std@@@std@@@1@0@Z 000000018002a968     Connector.obj
 0002:00002968       $cppxdata$??$_Construct@V?$_Deque_const_iterator@V?$_Deque_val@U?$_Deque_simple_types@U?$pair@_KPEAX@std@@@std@@@std@@@std@@@?$deque@U?$pair@_KPEAX@std@@V?$allocator@U?$pair@_KPEAX@std@@@2@@std@@QEAAXV?$_Deque_const_iterator@V?$_Deque_val@U?$_Deque_simple_types@U?$pair@_KPEAX@std@@@std@@@std@@@1@0@Z 000000018002a968     ProtocolComm.obj
 0002:00002990       $cppxdata$??$insert@V?$_Deque_const_iterator@V?$_Deque_val@U?$_Deque_simple_types@U?$pair@_JPEAUtagKeyContex@@@std@@@std@@@std@@@std@@@?$deque@U?$pair@_JPEAUtagKeyContex@@@std@@V?$allocator@U?$pair@_JPEAUtagKeyContex@@@std@@@2@@std@@QEAA?AV?$_Deque_iterator@V?$_Deque_val@U?$_Deque_simple_types@U?$pair@_JPEAUtagKeyContex@@@std@@@std@@@std@@@1@V?$_Deque_const_iterator@V?$_Deque_val@U?$_Deque_simple_types@U?$pair@_JPEAUtagKeyContex@@@std@@@std@@@std@@@1@00@Z 000000018002a990     Connector.obj
 0002:00002990       $cppxdata$??$insert@V?$_Deque_const_iterator@V?$_Deque_val@U?$_Deque_simple_types@U?$pair@_KPEAX@std@@@std@@@std@@@std@@@?$deque@U?$pair@_KPEAX@std@@V?$allocator@U?$pair@_KPEAX@std@@@2@@std@@QEAA?AV?$_Deque_iterator@V?$_Deque_val@U?$_Deque_simple_types@U?$pair@_KPEAX@std@@@std@@@std@@@1@V?$_Deque_const_iterator@V?$_Deque_val@U?$_Deque_simple_types@U?$pair@_KPEAX@std@@@std@@@std@@@1@00@Z 000000018002a990     ProtocolComm.obj
 0002:000029b8       $cppxdata$??$move@V?$_Deque_iterator@V?$_Deque_val@U?$_Deque_simple_types@U?$pair@_JPEAUtagKeyContex@@@std@@@std@@@std@@@std@@V12@@std@@YA?AV?$_Deque_iterator@V?$_Deque_val@U?$_Deque_simple_types@U?$pair@_JPEAUtagKeyContex@@@std@@@std@@@std@@@0@V10@00@Z 000000018002a9b8     Connector.obj
 0002:000029b8       $cppxdata$??$move@V?$_Deque_iterator@V?$_Deque_val@U?$_Deque_simple_types@U?$pair@_KPEAX@std@@@std@@@std@@@std@@V12@@std@@YA?AV?$_Deque_iterator@V?$_Deque_val@U?$_Deque_simple_types@U?$pair@_KPEAX@std@@@std@@@std@@@0@V10@00@Z 000000018002a9b8     ProtocolComm.obj
 0002:000029b8       $cppxdata$??$copy@V?$_Deque_const_iterator@V?$_Deque_val@U?$_Deque_simple_types@U?$pair@_KPEAX@std@@@std@@@std@@@std@@V?$_Deque_iterator@V?$_Deque_val@U?$_Deque_simple_types@U?$pair@_KPEAX@std@@@std@@@std@@@2@@std@@YA?AV?$_Deque_iterator@V?$_Deque_val@U?$_Deque_simple_types@U?$pair@_KPEAX@std@@@std@@@std@@@0@V?$_Deque_const_iterator@V?$_Deque_val@U?$_Deque_simple_types@U?$pair@_KPEAX@std@@@std@@@std@@@0@0V10@@Z 000000018002a9b8     ProtocolComm.obj
 0002:000029b8       $cppxdata$??$copy@V?$_Deque_const_iterator@V?$_Deque_val@U?$_Deque_simple_types@U?$pair@_JPEAUtagKeyContex@@@std@@@std@@@std@@@std@@V?$_Deque_iterator@V?$_Deque_val@U?$_Deque_simple_types@U?$pair@_JPEAUtagKeyContex@@@std@@@std@@@std@@@2@@std@@YA?AV?$_Deque_iterator@V?$_Deque_val@U?$_Deque_simple_types@U?$pair@_JPEAUtagKeyContex@@@std@@@std@@@std@@@0@V?$_Deque_const_iterator@V?$_Deque_val@U?$_Deque_simple_types@U?$pair@_JPEAUtagKeyContex@@@std@@@std@@@std@@@0@0V10@@Z 000000018002a9b8     Connector.obj
 0002:000029e0       $cppxdata$??$?HDU?$char_traits@D@std@@V?$allocator@D@1@@std@@YA?AV?$basic_string@DU?$char_traits@D@std@@V?$allocator@D@2@@0@$$QEAV10@0@Z 000000018002a9e0     Connector.obj
 0002:00002a08       $cppxdata$??$ToString@H@strutils@@YA?AV?$basic_string@DU?$char_traits@D@std@@V?$allocator@D@2@@std@@HGGDD@Z 000000018002aa08     Connector.obj
 0002:00002a30       $cppxdata$??$?HDU?$char_traits@D@std@@V?$allocator@D@1@@std@@YA?AV?$basic_string@DU?$char_traits@D@std@@V?$allocator@D@2@@0@$$QEAV10@PEBD@Z 000000018002aa30     Connector.obj
 0002:00002a58       $cppxdata$??$?HDU?$char_traits@D@std@@V?$allocator@D@1@@std@@YA?AV?$basic_string@DU?$char_traits@D@std@@V?$allocator@D@2@@0@PEBDAEBV10@@Z 000000018002aa58     Connector.obj
 0002:00002a80       $cppxdata$??$FromString@H@strutils@@YAHV?$basic_string@DU?$char_traits@D@std@@V?$allocator@D@2@@std@@I@Z 000000018002aa80     Connector.obj
 0002:00002aa8       $cppxdata$?_Copy@?$basic_string@DU?$char_traits@D@std@@V?$allocator@D@2@@std@@QEAAX_K0@Z 000000018002aaa8     Connector.obj
 0002:00002ad0       $cppxdata$?_Reallocate@?$vector@V?$basic_string@DU?$char_traits@D@std@@V?$allocator@D@2@@std@@V?$allocator@V?$basic_string@DU?$char_traits@D@std@@V?$allocator@D@2@@std@@@2@@std@@IEAAX_K@Z 000000018002aad0     Connector.obj
 0002:00002af8       $cppxdata$?_Reallocate@?$vector@U?$pair@V?$basic_string@DU?$char_traits@D@std@@V?$allocator@D@2@@std@@H@std@@V?$allocator@U?$pair@V?$basic_string@DU?$char_traits@D@std@@V?$allocator@D@2@@std@@H@std@@@2@@std@@IEAAX_K@Z 000000018002aaf8     Connector.obj
 0002:00002b20       $cppxdata$?clear@?$_Tree@V?$_Tmap_traits@_KPEAXU?$less@_K@std@@V?$allocator@U?$pair@$$CB_KPEAX@std@@@2@$0A@@std@@@std@@QEAAXXZ 000000018002ab20     ProtocolComm.obj
 0002:00002b20       $cppxdata$?clear@?$_Tree@V?$_Tmap_traits@_KPEAUtagKeyContex@@U?$less@_K@std@@V?$allocator@U?$pair@$$CB_KPEAUtagKeyContex@@@std@@@3@$0A@@std@@@std@@QEAAXXZ 000000018002ab20     Connector.obj
 0002:00002b48       $cppxdata$?_Reallocate@?$vector@HV?$allocator@H@std@@@std@@IEAAX_K@Z 000000018002ab48     Connector.obj
 0002:00002b70       $cppxdata$?str@?$basic_stringbuf@DU?$char_traits@D@std@@V?$allocator@D@2@@std@@QEBA?AV?$basic_string@DU?$char_traits@D@std@@V?$allocator@D@2@@2@XZ 000000018002ab70     Connector.obj
 0002:00002b98       $cppxdata$?erase@?$deque@PEAUtagKeyContex@@V?$allocator@PEAUtagKeyContex@@@std@@@std@@QEAA?AV?$_Deque_iterator@V?$_Deque_val@U?$_Deque_simple_types@PEAUtagKeyContex@@@std@@@std@@@2@V?$_Deque_const_iterator@V?$_Deque_val@U?$_Deque_simple_types@PEAUtagKeyContex@@@std@@@std@@@2@0@Z 000000018002ab98     Connector.obj
 0002:00002bc0       $cppxdata$?_Destroy@?$vector@U?$pair@V?$basic_string@DU?$char_traits@D@std@@V?$allocator@D@2@@std@@H@std@@V?$allocator@U?$pair@V?$basic_string@DU?$char_traits@D@std@@V?$allocator@D@2@@std@@H@std@@@2@@std@@IEAAXPEAU?$pair@V?$basic_string@DU?$char_traits@D@std@@V?$allocator@D@2@@std@@H@2@0@Z 000000018002abc0     Connector.obj
 0002:00002be8       $cppxdata$?_Tidy@?$vector@U?$pair@V?$basic_string@DU?$char_traits@D@std@@V?$allocator@D@2@@std@@H@std@@V?$allocator@U?$pair@V?$basic_string@DU?$char_traits@D@std@@V?$allocator@D@2@@std@@H@std@@@2@@std@@IEAAXXZ 000000018002abe8     Connector.obj
 0002:00002c10       $cppxdata$?erase@?$deque@U?$pair@_JPEAUtagKeyContex@@@std@@V?$allocator@U?$pair@_JPEAUtagKeyContex@@@std@@@2@@std@@QEAA?AV?$_Deque_iterator@V?$_Deque_val@U?$_Deque_simple_types@U?$pair@_JPEAUtagKeyContex@@@std@@@std@@@std@@@2@V?$_Deque_const_iterator@V?$_Deque_val@U?$_Deque_simple_types@U?$pair@_JPEAUtagKeyContex@@@std@@@std@@@std@@@2@0@Z 000000018002ac10     Connector.obj
 0002:00002c10       $cppxdata$?erase@?$deque@U?$pair@_KPEAX@std@@V?$allocator@U?$pair@_KPEAX@std@@@2@@std@@QEAA?AV?$_Deque_iterator@V?$_Deque_val@U?$_Deque_simple_types@U?$pair@_KPEAX@std@@@std@@@std@@@2@V?$_Deque_const_iterator@V?$_Deque_val@U?$_Deque_simple_types@U?$pair@_KPEAX@std@@@std@@@std@@@2@0@Z 000000018002ac10     ProtocolComm.obj
 0002:00002c38       $cppxdata$??1?$_Deque_alloc@U?$_Deque_base_types@U?$pair@_KPEAX@std@@V?$allocator@U?$pair@_KPEAX@std@@@2@@std@@@std@@QEAA@XZ 000000018002ac38     ProtocolComm.obj
 0002:00002c38       $cppxdata$??1?$_Deque_alloc@U?$_Deque_base_types@U?$pair@_JPEAUtagKeyContex@@@std@@V?$allocator@U?$pair@_JPEAUtagKeyContex@@@std@@@2@@std@@@std@@QEAA@XZ 000000018002ac38     Connector.obj
 0002:00002c38       $cppxdata$??1?$_Deque_alloc@U?$_Deque_base_types@PEAUtagKeyContex@@V?$allocator@PEAUtagKeyContex@@@std@@@std@@@std@@QEAA@XZ 000000018002ac38     Connector.obj
 0002:00002c60       $cppxdata$??0?$_Tree@V?$_Tmap_traits@_KPEAUtagKeyContex@@U?$less@_K@std@@V?$allocator@U?$pair@$$CB_KPEAUtagKeyContex@@@std@@@3@$0A@@std@@@std@@QEAA@AEBV01@AEBV?$allocator@U?$pair@$$CB_KPEAUtagKeyContex@@@std@@@1@@Z 000000018002ac60     Connector.obj
 0002:00002c60       $cppxdata$??0?$_Tree@V?$_Tmap_traits@_KPEAXU?$less@_K@std@@V?$allocator@U?$pair@$$CB_KPEAX@std@@@2@$0A@@std@@@std@@QEAA@AEBV01@AEBV?$allocator@U?$pair@$$CB_KPEAX@std@@@1@@Z 000000018002ac60     ProtocolComm.obj
 0002:00002c88       $cppxdata$??1?$_List_alloc@U?$_List_base_types@V?$basic_string@DU?$char_traits@D@std@@V?$allocator@D@2@@std@@V?$allocator@V?$basic_string@DU?$char_traits@D@std@@V?$allocator@D@2@@std@@@2@@std@@@std@@QEAA@XZ 000000018002ac88     ProtocolProcess.obj
 0002:00002c88       $cppxdata$??1?$_Tree_comp_alloc@V?$_Tmap_traits@_KPEAXU?$less@_K@std@@V?$allocator@U?$pair@$$CB_KPEAX@std@@@2@$0A@@std@@@std@@QEAA@XZ 000000018002ac88     ProtocolComm.obj
 0002:00002c88       $cppxdata$??1?$_List_alloc@U?$_List_base_types@PEAUtagBuf@@V?$allocator@PEAUtagBuf@@@std@@@std@@@std@@QEAA@XZ 000000018002ac88     ProtocolProcess.obj
 0002:00002c88       $cppxdata$??1?$_Tree_comp_alloc@V?$_Tmap_traits@_KPEAUtagKeyContex@@U?$less@_K@std@@V?$allocator@U?$pair@$$CB_KPEAUtagKeyContex@@@std@@@3@$0A@@std@@@std@@QEAA@XZ 000000018002ac88     Connector.obj
 0002:00002cb0       $cppxdata$??_G?$basic_stringbuf@DU?$char_traits@D@std@@V?$allocator@D@2@@std@@UEAAPEAXI@Z 000000018002acb0     Connector.obj
 0002:00002cd8       $cppxdata$??1?$basic_stringbuf@DU?$char_traits@D@std@@V?$allocator@D@2@@std@@UEAA@XZ 000000018002acd8     Connector.obj
 0002:00002d00       $cppxdata$??0?$basic_stringstream@DU?$char_traits@D@std@@V?$allocator@D@2@@std@@QEAA@H@Z 000000018002ad00     Connector.obj
 0002:00002d28       $cppxdata$??1?$basic_stringstream@DU?$char_traits@D@std@@V?$allocator@D@2@@std@@UEAA@XZ 000000018002ad28     Connector.obj
 0002:00002d50       $cppxdata$?str@?$basic_stringstream@DU?$char_traits@D@std@@V?$allocator@D@2@@std@@QEBA?AV?$basic_string@DU?$char_traits@D@std@@V?$allocator@D@2@@2@XZ 000000018002ad50     Connector.obj
 0002:00002d78       $cppxdata$??0?$basic_string@DU?$char_traits@D@std@@V?$allocator@D@2@@std@@QEAA@$$QEAV01@@Z 000000018002ad78     Connector.obj
 0002:00002da0       $cppxdata$??4?$basic_string@DU?$char_traits@D@std@@V?$allocator@D@2@@std@@QEAAAEAV01@$$QEAV01@@Z 000000018002ada0     Connector.obj
 0002:00002dc8       $cppxdata$??1?$basic_string@DU?$char_traits@D@std@@V?$allocator@D@2@@std@@QEAA@XZ 000000018002adc8     Connector.obj
 0002:00002df0       $cppxdata$??1?$vector@V?$basic_string@DU?$char_traits@D@std@@V?$allocator@D@2@@std@@V?$allocator@V?$basic_string@DU?$char_traits@D@std@@V?$allocator@D@2@@std@@@2@@std@@QEAA@XZ 000000018002adf0     Connector.obj
 0002:00002e18       $cppxdata$?push_back@?$vector@V?$basic_string@DU?$char_traits@D@std@@V?$allocator@D@2@@std@@V?$allocator@V?$basic_string@DU?$char_traits@D@std@@V?$allocator@D@2@@std@@@2@@std@@QEAAXAEBV?$basic_string@DU?$char_traits@D@std@@V?$allocator@D@2@@2@@Z 000000018002ae18     Connector.obj
 0002:00002e40       $cppxdata$??0?$deque@PEAUtagKeyContex@@V?$allocator@PEAUtagKeyContex@@@std@@@std@@QEAA@AEBV01@@Z 000000018002ae40     Connector.obj
 0002:00002e68       $cppxdata$??4?$deque@PEAUtagKeyContex@@V?$allocator@PEAUtagKeyContex@@@std@@@std@@QEAAAEAV01@AEBV01@@Z 000000018002ae68     Connector.obj
 0002:00002e90       $cppxdata$??0?$vector@U?$pair@V?$basic_string@DU?$char_traits@D@std@@V?$allocator@D@2@@std@@H@std@@V?$allocator@U?$pair@V?$basic_string@DU?$char_traits@D@std@@V?$allocator@D@2@@std@@H@std@@@2@@std@@QEAA@AEBV01@@Z 000000018002ae90     Connector.obj
 0002:00002eb8       $cppxdata$??1?$vector@U?$pair@V?$basic_string@DU?$char_traits@D@std@@V?$allocator@D@2@@std@@H@std@@V?$allocator@U?$pair@V?$basic_string@DU?$char_traits@D@std@@V?$allocator@D@2@@std@@H@std@@@2@@std@@QEAA@XZ 000000018002aeb8     Connector.obj
 0002:00002ee0       $cppxdata$??4?$vector@U?$pair@V?$basic_string@DU?$char_traits@D@std@@V?$allocator@D@2@@std@@H@std@@V?$allocator@U?$pair@V?$basic_string@DU?$char_traits@D@std@@V?$allocator@D@2@@std@@H@std@@@2@@std@@QEAAAEAV01@AEBV01@@Z 000000018002aee0     Connector.obj
 0002:00002f08       $cppxdata$?push_back@?$vector@U?$pair@V?$basic_string@DU?$char_traits@D@std@@V?$allocator@D@2@@std@@H@std@@V?$allocator@U?$pair@V?$basic_string@DU?$char_traits@D@std@@V?$allocator@D@2@@std@@H@std@@@2@@std@@QEAAXAEBU?$pair@V?$basic_string@DU?$char_traits@D@std@@V?$allocator@D@2@@std@@H@2@@Z 000000018002af08     Connector.obj
 0002:00002f30       $cppxdata$??0?$deque@U?$pair@_JPEAUtagKeyContex@@@std@@V?$allocator@U?$pair@_JPEAUtagKeyContex@@@std@@@2@@std@@QEAA@AEBV01@@Z 000000018002af30     Connector.obj
 0002:00002f30       $cppxdata$??0?$deque@U?$pair@_KPEAX@std@@V?$allocator@U?$pair@_KPEAX@std@@@2@@std@@QEAA@AEBV01@@Z 000000018002af30     ProtocolComm.obj
 0002:00002f58       $cppxdata$??1?$deque@U?$pair@_KPEAX@std@@V?$allocator@U?$pair@_KPEAX@std@@@2@@std@@QEAA@XZ 000000018002af58     ProtocolComm.obj
 0002:00002f58       $cppxdata$??1?$deque@U?$pair@_JPEAUtagKeyContex@@@std@@V?$allocator@U?$pair@_JPEAUtagKeyContex@@@std@@@2@@std@@QEAA@XZ 000000018002af58     Connector.obj
 0002:00002f58       $cppxdata$??1?$deque@PEAUtagKeyContex@@V?$allocator@PEAUtagKeyContex@@@std@@@std@@QEAA@XZ 000000018002af58     Connector.obj
 0002:00002f80       $cppxdata$??4?$deque@U?$pair@_JPEAUtagKeyContex@@@std@@V?$allocator@U?$pair@_JPEAUtagKeyContex@@@std@@@2@@std@@QEAAAEAV01@AEBV01@@Z 000000018002af80     Connector.obj
 0002:00002f80       $cppxdata$??4?$deque@U?$pair@_KPEAX@std@@V?$allocator@U?$pair@_KPEAX@std@@@2@@std@@QEAAAEAV01@AEBV01@@Z 000000018002af80     ProtocolComm.obj
 0002:00002fa8       $cppxdata$??1?$_Tree@V?$_Tmap_traits@_KPEAXU?$less@_K@std@@V?$allocator@U?$pair@$$CB_KPEAX@std@@@2@$0A@@std@@@std@@QEAA@XZ 000000018002afa8     ProtocolComm.obj
 0002:00002fa8       $cppxdata$??1?$_Tree@V?$_Tmap_traits@_KPEAUtagKeyContex@@U?$less@_K@std@@V?$allocator@U?$pair@$$CB_KPEAUtagKeyContex@@@std@@@3@$0A@@std@@@std@@QEAA@XZ 000000018002afa8     Connector.obj
 0002:00002fd0       $cppxdata$??1?$vector@HV?$allocator@H@std@@@std@@QEAA@XZ 000000018002afd0     Connector.obj
 0002:00002ff8       $cppxdata$?IsNetManaged@CConnector@@EEAA_NAEAV?$basic_string@DU?$char_traits@D@std@@V?$allocator@D@2@@std@@@Z 000000018002aff8     Connector.obj
 0002:00003020       $cppxdata$?ThreadEntry@CConnector@@EEAAHXZ 000000018002b020     Connector.obj
 0002:00003048       $cppxdata$??1?$pair@V?$basic_string@DU?$char_traits@D@std@@V?$allocator@D@2@@std@@H@std@@QEAA@XZ 000000018002b048     Connector.obj
 0002:00003070       $cppxdata$?Init@CConnector@@UEAAHPEAVCConfig@@@Z 000000018002b070     Connector.obj
 0002:00003098       $cppxdata$??1CConnector@@UEAA@XZ 000000018002b098     Connector.obj
 0002:000030c0       $cppxdata$??0CConnector@@QEAA@PEAVCProtocolCommClient@@@Z 000000018002b0c0     Connector.obj
 0002:000030e8       $cppxdata$??0tagProxyData@CTcpShortComm@@QEAA@AEBU01@@Z 000000018002b0e8     Connector.obj
 0002:00003110       $cppxdata$??1tagProxyData@CTcpShortComm@@QEAA@XZ 000000018002b110     Connector.obj
 0002:00003138       $cppxdata$??_ECTcpShortComm@@UEAAPEAXI@Z 000000018002b138     Connector.obj
 0002:00003160       $cppxdata$??0CTcpShortComm@@QEAA@AEBV0@@Z 000000018002b160     Connector.obj
 0002:00003188       $cppxdata$??1CTcpShortComm@@UEAA@XZ 000000018002b188     Connector.obj
 0002:000031b0       $cppxdata$??0CTcpShortComm@@QEAA@XZ 000000018002b1b0     Connector.obj
 0002:000031d8       $cppxdata$??_ECProtocolCommServer@@UEAAPEAXI@Z 000000018002b1d8     Connector.obj
 0002:00003200       $cppxdata$??0CProtocolCommServer@@QEAA@AEBV0@@Z 000000018002b200     Connector.obj
 0002:00003228       $cppxdata$??_ECProtocolCommClient@@UEAAPEAXI@Z 000000018002b228     Connector.obj
 0002:00003250       $cppxdata$??0CProtocolCommClient@@QEAA@AEBV0@@Z 000000018002b250     Connector.obj
 0002:00003278       $cppxdata$??1?$map@_KPEAXU?$less@_K@std@@V?$allocator@U?$pair@$$CB_KPEAX@std@@@2@@std@@QEAA@XZ 000000018002b278     ProtocolComm.obj
 0002:00003278       $cppxdata$??1?$map@_KPEAUtagKeyContex@@U?$less@_K@std@@V?$allocator@U?$pair@$$CB_KPEAUtagKeyContex@@@std@@@3@@std@@QEAA@XZ 000000018002b278     Connector.obj
 0002:000032a0       $cppxdata$??_ECProtocolCommImp@@UEAAPEAXI@Z 000000018002b2a0     Connector.obj
 0002:000032c8       $cppxdata$??0CProtocolCommImp@@QEAA@AEBV0@@Z 000000018002b2c8     Connector.obj
 0002:000032f0       $cppxdata$?ThreadEntry@CProtocolCommWorker@CProtocolCommImp@@EEAAHXZ 000000018002b2f0     Connector.obj
 0002:00003318       $cppxdata$??1CProtocolCommWorker@CProtocolCommImp@@UEAA@XZ 000000018002b318     Connector.obj
 0002:00003340       $cppxdata$??_ECListener@@UEAAPEAXI@Z 000000018002b340     Connector.obj
 0002:00003368       $cppxdata$??0CListener@@QEAA@AEBV0@@Z 000000018002b368     Connector.obj
 0002:00003390       $cppxdata$??_ECConnector@@UEAAPEAXI@Z 000000018002b390     Connector.obj
 0002:000033b8       $cppxdata$??0CConnector@@QEAA@AEBV0@@Z 000000018002b3b8     Connector.obj
 0002:000033e0       $cppxdata$??_ECWorkThreadNm@@UEAAPEAXI@Z 000000018002b3e0     Connector.obj
 0002:00003408       $cppxdata$??0CWorkThreadNm@@QEAA@AEBV0@@Z 000000018002b408     Connector.obj
 0002:00003430       $cppxdata$??_ECAio@@UEAAPEAXI@Z 000000018002b430     Connector.obj
 0002:00003458       $cppxdata$??0CAio@@QEAA@AEBV0@@Z 000000018002b458     Connector.obj
 0002:00003480       $cppxdata$??1CAio@@UEAA@XZ 000000018002b480     Connector.obj
 0002:000034a8       $cppxdata$??0CAio@@QEAA@XZ 000000018002b4a8     Connector.obj
 0002:000034d0       $cppxdata$??_ECProtocolComm@@UEAAPEAXI@Z 000000018002b4d0     Connector.obj
 0002:000034f8       $cppxdata$??0CProtocolComm@@QEAA@AEBV0@@Z 000000018002b4f8     Connector.obj
 0002:00003520       $cppxdata$??1CProtocolComm@@UEAA@XZ 000000018002b520     Connector.obj
 0002:00003548       $cppxdata$??0CProtocolComm@@QEAA@XZ 000000018002b548     Connector.obj
 0002:00003570       $cppxdata$??_ECProtocolProcess@@UEAAPEAXI@Z 000000018002b570     Connector.obj
 0002:00003598       $cppxdata$??_ECAction@@UEAAPEAXI@Z 000000018002b598     Connector.obj
 0002:000035c0       $cppxdata$??0CAction@@QEAA@AEBV0@@Z 000000018002b5c0     Connector.obj
 0002:000035e8       $cppxdata$??1CAction@@UEAA@XZ 000000018002b5e8     Connector.obj
 0002:00003610       $cppxdata$??0CAction@@QEAA@XZ 000000018002b610     Connector.obj
 0002:00003640       $cppxdata$??0CListener@@QEAA@PEAVCProtocolCommServer@@@Z 000000018002b640     Listener.obj
 0002:00003668       $cppxdata$?OnAccept@CListener@@UEAAH_KAEBV?$basic_string@DU?$char_traits@D@std@@V?$allocator@D@2@@std@@H@Z 000000018002b668     Listener.obj
 0002:00003690       $cppxdata$?OnAccept@CListener@@UEAAHXZ 000000018002b690     Listener.obj
 0002:000036b8       $cppxdata$?Init@CListener@@UEAAHPEAVCConfig@@@Z 000000018002b6b8     Listener.obj
 0002:000036e0       $cppxdata$??1CListener@@UEAA@XZ 000000018002b6e0     Listener.obj
 0002:00003708       $cppxdata$??$_Insert_nohint@AEAU?$pair@$$CB_KPEAX@std@@PEAU?$_Tree_node@U?$pair@$$CB_KPEAX@std@@PEAX@2@@?$_Tree@V?$_Tmap_traits@_KPEAXU?$less@_K@std@@V?$allocator@U?$pair@$$CB_KPEAX@std@@@2@$0A@@std@@@std@@IEAA?AU?$pair@V?$_Tree_iterator@V?$_Tree_val@U?$_Tree_simple_types@U?$pair@$$CB_KPEAX@std@@@std@@@std@@@std@@_N@1@_NAEAU?$pair@$$CB_KPEAX@1@PEAU?$_Tree_node@U?$pair@$$CB_KPEAX@std@@PEAX@1@@Z 000000018002b708     Selector.obj
 0002:00003708       $cppxdata$??$_Insert_nohint@AEAU?$pair@$$CB_KPEAUtagKeyContex@@@std@@PEAU?$_Tree_node@U?$pair@$$CB_KPEAUtagKeyContex@@@std@@PEAX@2@@?$_Tree@V?$_Tmap_traits@_KPEAUtagKeyContex@@U?$less@_K@std@@V?$allocator@U?$pair@$$CB_KPEAUtagKeyContex@@@std@@@3@$0A@@std@@@std@@IEAA?AU?$pair@V?$_Tree_iterator@V?$_Tree_val@U?$_Tree_simple_types@U?$pair@$$CB_KPEAUtagKeyContex@@@std@@@std@@@std@@@std@@_N@1@_NAEAU?$pair@$$CB_KPEAUtagKeyContex@@@1@PEAU?$_Tree_node@U?$pair@$$CB_KPEAUtagKeyContex@@@std@@PEAX@1@@Z 000000018002b708     ProtocolComm.obj
 0002:00003730       $cppxdata$??$_Insert_hint@AEAU?$pair@$$CB_KPEAX@std@@PEAU?$_Tree_node@U?$pair@$$CB_KPEAX@std@@PEAX@2@@?$_Tree@V?$_Tmap_traits@_KPEAXU?$less@_K@std@@V?$allocator@U?$pair@$$CB_KPEAX@std@@@2@$0A@@std@@@std@@IEAA?AV?$_Tree_iterator@V?$_Tree_val@U?$_Tree_simple_types@U?$pair@$$CB_KPEAX@std@@@std@@@std@@@1@V?$_Tree_const_iterator@V?$_Tree_val@U?$_Tree_simple_types@U?$pair@$$CB_KPEAX@std@@@std@@@std@@@1@AEAU?$pair@$$CB_KPEAX@1@PEAU?$_Tree_node@U?$pair@$$CB_KPEAX@std@@PEAX@1@@Z 000000018002b730     Selector.obj
 0002:00003730       $cppxdata$??$_Insert_hint@AEAU?$pair@$$CB_KPEAUtagKeyContex@@@std@@PEAU?$_Tree_node@U?$pair@$$CB_KPEAUtagKeyContex@@@std@@PEAX@2@@?$_Tree@V?$_Tmap_traits@_KPEAUtagKeyContex@@U?$less@_K@std@@V?$allocator@U?$pair@$$CB_KPEAUtagKeyContex@@@std@@@3@$0A@@std@@@std@@IEAA?AV?$_Tree_iterator@V?$_Tree_val@U?$_Tree_simple_types@U?$pair@$$CB_KPEAUtagKeyContex@@@std@@@std@@@std@@@1@V?$_Tree_const_iterator@V?$_Tree_val@U?$_Tree_simple_types@U?$pair@$$CB_KPEAUtagKeyContex@@@std@@@std@@@std@@@1@AEAU?$pair@$$CB_KPEAUtagKeyContex@@@1@PEAU?$_Tree_node@U?$pair@$$CB_KPEAUtagKeyContex@@@std@@PEAX@1@@Z 000000018002b730     ProtocolComm.obj
 0002:00003758       $cppxdata$??$_Buynode@AEBUpiecewise_construct_t@std@@V?$tuple@AEB_K@2@V?$tuple@$$V@2@@?$_Tree_comp_alloc@V?$_Tmap_traits@_KPEAXU?$less@_K@std@@V?$allocator@U?$pair@$$CB_KPEAX@std@@@2@$0A@@std@@@std@@QEAAPEAU?$_Tree_node@U?$pair@$$CB_KPEAX@std@@PEAX@1@AEBUpiecewise_construct_t@1@$$QEAV?$tuple@AEB_K@1@$$QEAV?$tuple@$$V@1@@Z 000000018002b758     Selector.obj
 0002:00003758       $cppxdata$??$_Buynode@AEBUpiecewise_construct_t@std@@V?$tuple@AEB_K@2@V?$tuple@$$V@2@@?$_Tree_comp_alloc@V?$_Tmap_traits@_KPEAUtagKeyContex@@U?$less@_K@std@@V?$allocator@U?$pair@$$CB_KPEAUtagKeyContex@@@std@@@3@$0A@@std@@@std@@QEAAPEAU?$_Tree_node@U?$pair@$$CB_KPEAUtagKeyContex@@@std@@PEAX@1@AEBUpiecewise_construct_t@1@$$QEAV?$tuple@AEB_K@1@$$QEAV?$tuple@$$V@1@@Z 000000018002b758     ProtocolComm.obj
 0002:00003780       $cppxdata$??$_Uninitialized_copy_al_unchecked1@PEAV?$deque@U?$pair@_KPEAX@std@@V?$allocator@U?$pair@_KPEAX@std@@@2@@std@@PEAV12@V?$allocator@V?$deque@U?$pair@_KPEAX@std@@V?$allocator@U?$pair@_KPEAX@std@@@2@@std@@@2@@std@@YAPEAV?$deque@U?$pair@_KPEAX@std@@V?$allocator@U?$pair@_KPEAX@std@@@2@@0@PEAV10@00AEAU?$_Wrap_alloc@V?$allocator@V?$deque@U?$pair@_KPEAX@std@@V?$allocator@U?$pair@_KPEAX@std@@@2@@std@@@std@@@0@U_General_ptr_iterator_tag@0@@Z 000000018002b780     ProtocolComm.obj
 0002:00003780       $cppxdata$??$_Uninitialized_copy_al_unchecked1@PEBV?$deque@U?$pair@_KPEAX@std@@V?$allocator@U?$pair@_KPEAX@std@@@2@@std@@PEAV12@V?$allocator@V?$deque@U?$pair@_KPEAX@std@@V?$allocator@U?$pair@_KPEAX@std@@@2@@std@@@2@@std@@YAPEAV?$deque@U?$pair@_KPEAX@std@@V?$allocator@U?$pair@_KPEAX@std@@@2@@0@PEBV10@0PEAV10@AEAU?$_Wrap_alloc@V?$allocator@V?$deque@U?$pair@_KPEAX@std@@V?$allocator@U?$pair@_KPEAX@std@@@2@@std@@@std@@@0@U_General_ptr_iterator_tag@0@@Z 000000018002b780     ProtocolComm.obj
 0002:000037a8       $cppxdata$??$?6DU?$char_traits@D@std@@V?$allocator@D@1@@std@@YAAEAV?$basic_ostream@DU?$char_traits@D@std@@@0@AEAV10@AEBV?$basic_string@DU?$char_traits@D@std@@V?$allocator@D@2@@0@@Z 000000018002b7a8     ProtocolComm.obj
 0002:000037d0       $cppxdata$??$?6U?$char_traits@D@std@@@std@@YAAEAV?$basic_ostream@DU?$char_traits@D@std@@@0@AEAV10@PEBD@Z 000000018002b7d0     ProtocolComm.obj
 0002:000037f8       $cppxdata$??1_Sentry_base@?$basic_ostream@DU?$char_traits@D@std@@@std@@QEAA@XZ 000000018002b7f8     ProtocolComm.obj
 0002:00003820       $cppxdata$??1sentry@?$basic_ostream@DU?$char_traits@D@std@@@std@@QEAA@XZ 000000018002b820     ProtocolComm.obj
 0002:00003848       $cppxdata$?clear@?$vector@V?$deque@U?$pair@_KPEAX@std@@V?$allocator@U?$pair@_KPEAX@std@@@2@@std@@V?$allocator@V?$deque@U?$pair@_KPEAX@std@@V?$allocator@U?$pair@_KPEAX@std@@@2@@std@@@2@@std@@QEAAXXZ 000000018002b848     ProtocolComm.obj
 0002:00003870       $cppxdata$?_Destroy@?$vector@V?$deque@U?$pair@_KPEAX@std@@V?$allocator@U?$pair@_KPEAX@std@@@2@@std@@V?$allocator@V?$deque@U?$pair@_KPEAX@std@@V?$allocator@U?$pair@_KPEAX@std@@@2@@std@@@2@@std@@IEAAXPEAV?$deque@U?$pair@_KPEAX@std@@V?$allocator@U?$pair@_KPEAX@std@@@2@@2@0@Z 000000018002b870     ProtocolComm.obj
 0002:00003898       $cppxdata$?_Tidy@?$vector@V?$deque@U?$pair@_KPEAX@std@@V?$allocator@U?$pair@_KPEAX@std@@@2@@std@@V?$allocator@V?$deque@U?$pair@_KPEAX@std@@V?$allocator@U?$pair@_KPEAX@std@@@2@@std@@@2@@std@@IEAAXXZ 000000018002b898     ProtocolComm.obj
 0002:000038c0       $cppxdata$?substr@?$basic_string@DU?$char_traits@D@std@@V?$allocator@D@2@@std@@QEBA?AV12@_K0@Z 000000018002b8c0     ProtocolComm.obj
 0002:000038e8       $cppxdata$??0?$vector@V?$deque@U?$pair@_KPEAX@std@@V?$allocator@U?$pair@_KPEAX@std@@@2@@std@@V?$allocator@V?$deque@U?$pair@_KPEAX@std@@V?$allocator@U?$pair@_KPEAX@std@@@2@@std@@@2@@std@@QEAA@AEBV01@@Z 000000018002b8e8     ProtocolComm.obj
 0002:00003910       $cppxdata$??1?$vector@V?$deque@U?$pair@_KPEAX@std@@V?$allocator@U?$pair@_KPEAX@std@@@2@@std@@V?$allocator@V?$deque@U?$pair@_KPEAX@std@@V?$allocator@U?$pair@_KPEAX@std@@@2@@std@@@2@@std@@QEAA@XZ 000000018002b910     ProtocolComm.obj
 0002:00003938       $cppxdata$??4?$vector@V?$deque@U?$pair@_KPEAX@std@@V?$allocator@U?$pair@_KPEAX@std@@@2@@std@@V?$allocator@V?$deque@U?$pair@_KPEAX@std@@V?$allocator@U?$pair@_KPEAX@std@@@2@@std@@@2@@std@@QEAAAEAV01@AEBV01@@Z 000000018002b938     ProtocolComm.obj
 0002:00003960       $cppxdata$??0?$vector@PEAVCGessMutex@@V?$allocator@PEAVCGessMutex@@@std@@@std@@QEAA@AEBV01@@Z 000000018002b960     ProtocolComm.obj
 0002:00003960       $cppxdata$??0?$vector@PEAVCSelectorWorker@@V?$allocator@PEAVCSelectorWorker@@@std@@@std@@QEAA@AEBV01@@Z 000000018002b960     ProtocolComm.obj
 0002:00003988       $cppxdata$??1?$vector@PEAVCGessMutex@@V?$allocator@PEAVCGessMutex@@@std@@@std@@QEAA@XZ 000000018002b988     ProtocolComm.obj
 0002:00003988       $cppxdata$??1?$vector@PEAVCSelectorWorker@@V?$allocator@PEAVCSelectorWorker@@@std@@@std@@QEAA@XZ 000000018002b988     ProtocolComm.obj
 0002:000039b0       $cppxdata$??4?$vector@PEAVCSelectorWorker@@V?$allocator@PEAVCSelectorWorker@@@std@@@std@@QEAAAEAV01@AEBV01@@Z 000000018002b9b0     ProtocolComm.obj
 0002:000039b0       $cppxdata$??4?$vector@PEAVCGessMutex@@V?$allocator@PEAVCGessMutex@@@std@@@std@@QEAAAEAV01@AEBV01@@Z 000000018002b9b0     ProtocolComm.obj
 0002:000039d8       $cppxdata$?Instance@?$CSingleton@VCSelectorListen@@@@SAPEAVCSelectorListen@@XZ 000000018002b9d8     ProtocolComm.obj
 0002:00003a00       $cppxdata$?Instance@?$CSingleton@VCSelectorIo@@@@SAPEAVCSelectorIo@@XZ 000000018002ba00     ProtocolComm.obj
 0002:00003a28       $cppxdata$?LoginProxy@CTcpShortComm@@AEAAHXZ 000000018002ba28     ProtocolComm.obj
 0002:00003a50       $cppxdata$?SetProxy@CTcpShortComm@@QEAAXHV?$basic_string@DU?$char_traits@D@std@@V?$allocator@D@2@@std@@H00@Z 000000018002ba50     ProtocolComm.obj
 0002:00003a78       $cppxdata$?Init@CTcpShortComm@@QEAAHPEAVCConfig@@@Z 000000018002ba78     ProtocolComm.obj
 0002:00003aa0       $cppxdata$??0CProtocolCommServer@@QEAA@XZ 000000018002baa0     ProtocolComm.obj
 0002:00003ac8       $cppxdata$??0CProtocolCommClient@@QEAA@XZ 000000018002bac8     ProtocolComm.obj
 0002:00003af0       $cppxdata$?RegisterAio@CProtocolCommImp@@IEAAHPEAVCProtocolProcess@@@Z 000000018002baf0     ProtocolComm.obj
 0002:00003b18       $cppxdata$??0CProtocolCommImp@@QEAA@XZ 000000018002bb18     ProtocolComm.obj
 0002:00003b40       $cppxdata$??_DCSelectorIo@@IEAAXXZ 000000018002bb40     ProtocolComm.obj
 0002:00003b68       $cppxdata$??_ECSelectorIo@@MEAAPEAXI@Z 000000018002bb68     ProtocolComm.obj
 0002:00003b90       $cppxdata$??1CSelectorIo@@MEAA@XZ 000000018002bb90     ProtocolComm.obj
 0002:00003bb8       $cppxdata$??0CSelectorIo@@IEAA@XZ 000000018002bbb8     ProtocolComm.obj
 0002:00003be0       $cppxdata$??_DCSelectorListen@@IEAAXXZ 000000018002bbe0     ProtocolComm.obj
 0002:00003c08       $cppxdata$??_ECSelectorListen@@MEAAPEAXI@Z 000000018002bc08     ProtocolComm.obj
 0002:00003c30       $cppxdata$??1CSelectorListen@@MEAA@XZ 000000018002bc30     ProtocolComm.obj
 0002:00003c58       $cppxdata$??0CSelectorListen@@IEAA@XZ 000000018002bc58     ProtocolComm.obj
 0002:00003c80       $cppxdata$??_ECSelector@@MEAAPEAXI@Z 000000018002bc80     ProtocolComm.obj
 0002:00003ca8       $cppxdata$??0CSelector@@QEAA@AEBV0@@Z 000000018002bca8     ProtocolComm.obj
 0002:00003cd0       $cppxdata$??0CProtocolCommWorker@CProtocolCommImp@@QEAA@XZ 000000018002bcd0     ProtocolComm.obj
 0002:00003cf8       $cppxdata$?Handle@CProtocolCommImp@@AEAAHPEAUtagKeyContex@@@Z 000000018002bcf8     ProtocolComm.obj
 0002:00003d20       $cppxdata$?SendData@CProtocolCommImp@@UEAAHPEAVCProtocolProcess@@PEBDH@Z 000000018002bd20     ProtocolComm.obj
 0002:00003d48       $cppxdata$??1CProtocolCommImp@@UEAA@XZ 000000018002bd48     ProtocolComm.obj
 0002:00003d70       $cppxdata$?OnAccept@CProtocolCommServer@@MEAAH_KV?$basic_string@DU?$char_traits@D@std@@V?$allocator@D@2@@std@@H1H@Z 000000018002bd70     ProtocolComm.obj
 0002:00003d98       $cppxdata$??1CProtocolCommServer@@UEAA@XZ 000000018002bd98     ProtocolComm.obj
 0002:00003dc0       $cppxdata$?OnConnect@CProtocolCommClient@@MEAAH_KV?$basic_string@DU?$char_traits@D@std@@V?$allocator@D@2@@std@@H1HH@Z 000000018002bdc0     ProtocolComm.obj
 0002:00003de8       $cppxdata$?Init@CProtocolCommClient@@UEAAHPEAVCConfig@@@Z 000000018002bde8     ProtocolComm.obj
 0002:00003e10       $cppxdata$??1CProtocolCommClient@@UEAA@XZ 000000018002be10     ProtocolComm.obj
 0002:00003e38       $cppxdata$??$_Insert_range@V?$_List_const_iterator@V?$_List_val@U?$_List_simple_types@V?$basic_string@DU?$char_traits@D@std@@V?$allocator@D@2@@std@@@std@@@std@@@std@@@?$list@V?$basic_string@DU?$char_traits@D@std@@V?$allocator@D@2@@std@@V?$allocator@V?$basic_string@DU?$char_traits@D@std@@V?$allocator@D@2@@std@@@2@@std@@QEAAXV?$_List_unchecked_const_iterator@V?$_List_val@U?$_List_simple_types@V?$basic_string@DU?$char_traits@D@std@@V?$allocator@D@2@@std@@@std@@@std@@U_Iterator_base0@2@@1@V?$_List_const_iterator@V?$_List_val@U?$_List_simple_types@V?$basic_string@DU?$char_traits@D@std@@V?$allocator@D@2@@std@@@std@@@std@@@1@1Uforward_iterator_tag@1@@Z 000000018002be38     ProtocolProcess.obj
 0002:00003e60       $cppxdata$??$_Reusenode@AEBV?$basic_string@DU?$char_traits@D@std@@V?$allocator@D@2@@std@@@?$list@V?$basic_string@DU?$char_traits@D@std@@V?$allocator@D@2@@std@@V?$allocator@V?$basic_string@DU?$char_traits@D@std@@V?$allocator@D@2@@std@@@2@@std@@QEAAXV?$_List_iterator@V?$_List_val@U?$_List_simple_types@V?$basic_string@DU?$char_traits@D@std@@V?$allocator@D@2@@std@@@std@@@std@@@1@AEBV?$basic_string@DU?$char_traits@D@std@@V?$allocator@D@2@@1@@Z 000000018002be60     ProtocolProcess.obj
 0002:00003e88       $cppxdata$??$_Buynode@AEBV?$basic_string@DU?$char_traits@D@std@@V?$allocator@D@2@@std@@@?$_List_buy@V?$basic_string@DU?$char_traits@D@std@@V?$allocator@D@2@@std@@V?$allocator@V?$basic_string@DU?$char_traits@D@std@@V?$allocator@D@2@@std@@@2@@std@@QEAAPEAU?$_List_node@V?$basic_string@DU?$char_traits@D@std@@V?$allocator@D@2@@std@@PEAX@1@PEAU21@0AEBV?$basic_string@DU?$char_traits@D@std@@V?$allocator@D@2@@1@@Z 000000018002be88     ProtocolProcess.obj
 0002:00003eb0       $cppxdata$??$_Buynode@AEBQEAUtagBuf@@@?$_List_buy@PEAUtagBuf@@V?$allocator@PEAUtagBuf@@@std@@@std@@QEAAPEAU?$_List_node@PEAUtagBuf@@PEAX@1@PEAU21@0AEBQEAUtagBuf@@@Z 000000018002beb0     ProtocolProcess.obj
 0002:00003ed8       $cppxdata$??$assign@V?$_List_const_iterator@V?$_List_val@U?$_List_simple_types@V?$basic_string@DU?$char_traits@D@std@@V?$allocator@D@2@@std@@@std@@@std@@@std@@@?$list@V?$basic_string@DU?$char_traits@D@std@@V?$allocator@D@2@@std@@V?$allocator@V?$basic_string@DU?$char_traits@D@std@@V?$allocator@D@2@@std@@@2@@std@@QEAAXV?$_List_const_iterator@V?$_List_val@U?$_List_simple_types@V?$basic_string@DU?$char_traits@D@std@@V?$allocator@D@2@@std@@@std@@@std@@@1@0@Z 000000018002bed8     ProtocolProcess.obj
 0002:00003f00       $cppxdata$?_Buynode0@?$_List_alloc@U?$_List_base_types@V?$basic_string@DU?$char_traits@D@std@@V?$allocator@D@2@@std@@V?$allocator@V?$basic_string@DU?$char_traits@D@std@@V?$allocator@D@2@@std@@@2@@std@@@std@@QEAAPEAU?$_List_node@V?$basic_string@DU?$char_traits@D@std@@V?$allocator@D@2@@std@@PEAX@2@PEAU32@0@Z 000000018002bf00     ProtocolProcess.obj
 0002:00003f28       $cppxdata$?_Buynode0@?$_List_alloc@U?$_List_base_types@PEAUtagBuf@@V?$allocator@PEAUtagBuf@@@std@@@std@@@std@@QEAAPEAU?$_List_node@PEAUtagBuf@@PEAX@2@PEAU32@0@Z 000000018002bf28     ProtocolProcess.obj
 0002:00003f50       $cppxdata$??1?$_List_buy@PEAUtagBuf@@V?$allocator@PEAUtagBuf@@@std@@@std@@QEAA@XZ 000000018002bf50     ProtocolProcess.obj
 0002:00003f50       $cppxdata$??1?$_List_buy@V?$basic_string@DU?$char_traits@D@std@@V?$allocator@D@2@@std@@V?$allocator@V?$basic_string@DU?$char_traits@D@std@@V?$allocator@D@2@@std@@@2@@std@@QEAA@XZ 000000018002bf50     ProtocolProcess.obj
 0002:00003f78       $cppxdata$??0?$list@V?$basic_string@DU?$char_traits@D@std@@V?$allocator@D@2@@std@@V?$allocator@V?$basic_string@DU?$char_traits@D@std@@V?$allocator@D@2@@std@@@2@@std@@QEAA@AEBV01@@Z 000000018002bf78     ProtocolProcess.obj
 0002:00003fa0       $cppxdata$??1?$list@V?$basic_string@DU?$char_traits@D@std@@V?$allocator@D@2@@std@@V?$allocator@V?$basic_string@DU?$char_traits@D@std@@V?$allocator@D@2@@std@@@2@@std@@QEAA@XZ 000000018002bfa0     ProtocolProcess.obj
 0002:00003fc8       $cppxdata$?clear@?$list@V?$basic_string@DU?$char_traits@D@std@@V?$allocator@D@2@@std@@V?$allocator@V?$basic_string@DU?$char_traits@D@std@@V?$allocator@D@2@@std@@@2@@std@@QEAAXXZ 000000018002bfc8     ProtocolProcess.obj
 0002:00003ff0       $cppxdata$??1?$list@PEAUtagBuf@@V?$allocator@PEAUtagBuf@@@std@@@std@@QEAA@XZ 000000018002bff0     ProtocolProcess.obj
 0002:00004018       $cppxdata$?OnRecvTcp@CTcpHandlerLong@@QEAAHXZ 000000018002c018     ProtocolProcess.obj
 0002:00004040       $cppxdata$?OnRecvTcp@CTcpHandlerLong@@QEAAHPEADH@Z 000000018002c040     ProtocolProcess.obj
 0002:00004068       $cppxdata$??1CTcpHandlerLong@@UEAA@XZ 000000018002c068     ProtocolProcess.obj
 0002:00004090       $cppxdata$??0CTcpHandlerLong@@QEAA@XZ 000000018002c090     ProtocolProcess.obj
 0002:000040b8       $cppxdata$??_ECTcpShortProcess@@UEAAPEAXI@Z 000000018002c0b8     ProtocolProcess.obj
 0002:000040e0       $cppxdata$?SendPacket@CTcpShortProcess@@UEAAHAEAVCPacket@@0I@Z 000000018002c0e0     ProtocolProcess.obj
 0002:00004108       $cppxdata$??_ECTcpAppProcessServer@@UEAAPEAXI@Z 000000018002c108     ProtocolProcess.obj
 0002:00004130       $cppxdata$??_ECTcpAppProcessClient@@UEAAPEAXI@Z 000000018002c130     ProtocolProcess.obj
 0002:00004158       $cppxdata$??_ECTcpHandlerLong@@UEAAPEAXI@Z 000000018002c158     ProtocolProcess.obj
 0002:00004180       $cppxdata$??0CTcpHandlerLong@@QEAA@AEBV0@@Z 000000018002c180     ProtocolProcess.obj
 0002:000041a8       $cppxdata$??_ECTcpHandler@@UEAAPEAXI@Z 000000018002c1a8     ProtocolProcess.obj
 0002:000041d0       $cppxdata$??_ECAppProcessServer@@UEAAPEAXI@Z 000000018002c1d0     ProtocolProcess.obj
 0002:000041f8       $cppxdata$??0CAppProcessServer@@QEAA@AEBV0@@Z 000000018002c1f8     ProtocolProcess.obj
 0002:00004220       $cppxdata$?OnLogin@CAppProcessServer@@MEAAHH@Z 000000018002c220     ProtocolProcess.obj
 0002:00004248       $cppxdata$?OnRecvPacket@CAppProcessServer@@IEAAHV?$basic_string@DU?$char_traits@D@std@@V?$allocator@D@2@@std@@AEAVCPacket@@@Z 000000018002c248     ProtocolProcess.obj
 0002:00004270       $cppxdata$?RemoveKey@CAppProcessServer@@QEAAXV?$basic_string@DU?$char_traits@D@std@@V?$allocator@D@2@@std@@@Z 000000018002c270     ProtocolProcess.obj
 0002:00004298       $cppxdata$??1CAppProcessServer@@UEAA@XZ 000000018002c298     ProtocolProcess.obj
 0002:000042c0       $cppxdata$??0CAppProcessServer@@QEAA@XZ 000000018002c2c0     ProtocolProcess.obj
 0002:000042e8       $cppxdata$??_ECAppProcessClient@@UEAAPEAXI@Z 000000018002c2e8     ProtocolProcess.obj
 0002:00004310       $cppxdata$?OnLogin@CAppProcessClient@@MEAAHH@Z 000000018002c310     ProtocolProcess.obj
 0002:00004338       $cppxdata$??_ECAppProcess@@UEAAPEAXI@Z 000000018002c338     ProtocolProcess.obj
 0002:00004360       $cppxdata$??0CAppProcess@@QEAA@AEBV0@@Z 000000018002c360     ProtocolProcess.obj
 0002:00004388       $cppxdata$?DestroyTimer@CAppProcess@@IEAAXXZ 000000018002c388     ProtocolProcess.obj
 0002:000043b0       $cppxdata$?CreateTimer@CAppProcess@@IEAAHAEAK@Z 000000018002c3b0     ProtocolProcess.obj
 0002:000043d8       $cppxdata$??1CAppProcess@@UEAA@XZ 000000018002c3d8     ProtocolProcess.obj
 0002:00004400       $cppxdata$??0CAppProcess@@QEAA@XZ 000000018002c400     ProtocolProcess.obj
 0002:00004428       $cppxdata$??$_Uninitialized_move_al_unchecked1@PEAV?$deque@U?$pair@_KPEAX@std@@V?$allocator@U?$pair@_KPEAX@std@@@2@@std@@PEAV12@V?$allocator@V?$deque@U?$pair@_KPEAX@std@@V?$allocator@U?$pair@_KPEAX@std@@@2@@std@@@2@@std@@YAPEAV?$deque@U?$pair@_KPEAX@std@@V?$allocator@U?$pair@_KPEAX@std@@@2@@0@PEAV10@00AEAU?$_Wrap_alloc@V?$allocator@V?$deque@U?$pair@_KPEAX@std@@V?$allocator@U?$pair@_KPEAX@std@@@2@@std@@@std@@@0@U_General_ptr_iterator_tag@0@@Z 000000018002c428     Selector.obj
 0002:00004450       $cppxdata$??$_Uninitialized_move_al_unchecked1@PEAU?$pair@_KPEAX@std@@PEAU12@V?$allocator@U?$pair@_KPEAX@std@@@2@@std@@YAPEAU?$pair@_KPEAX@0@PEAU10@00AEAU?$_Wrap_alloc@V?$allocator@U?$pair@_KPEAX@std@@@std@@@0@U_General_ptr_iterator_tag@0@@Z 000000018002c450     Selector.obj
 0002:00004478       $cppxdata$?_Reallocate@?$vector@V?$deque@U?$pair@_KPEAX@std@@V?$allocator@U?$pair@_KPEAX@std@@@2@@std@@V?$allocator@V?$deque@U?$pair@_KPEAX@std@@V?$allocator@U?$pair@_KPEAX@std@@@2@@std@@@2@@std@@IEAAX_K@Z 000000018002c478     Selector.obj
 0002:000044a0       $cppxdata$?_Reallocate@?$vector@PEAVCSelectorWorker@@V?$allocator@PEAVCSelectorWorker@@@std@@@std@@IEAAX_K@Z 000000018002c4a0     Selector.obj
 0002:000044a0       $cppxdata$?_Reallocate@?$vector@PEAVCGessMutex@@V?$allocator@PEAVCGessMutex@@@std@@@std@@IEAAX_K@Z 000000018002c4a0     Selector.obj
 0002:000044c8       $cppxdata$?_Reallocate@?$vector@U?$pair@_KPEAX@std@@V?$allocator@U?$pair@_KPEAX@std@@@2@@std@@IEAAX_K@Z 000000018002c4c8     Selector.obj
 0002:000044f0       $cppxdata$??1?$vector@U?$pair@_KPEAX@std@@V?$allocator@U?$pair@_KPEAX@std@@@2@@std@@QEAA@XZ 000000018002c4f0     Selector.obj
 0002:00004518       $cppxdata$?ToString@CSelector@@QEAA?AV?$basic_string@DU?$char_traits@D@std@@V?$allocator@D@2@@std@@XZ 000000018002c518     Selector.obj
 0002:00004540       $cppxdata$?Signal@CSelector@@AEAAXXZ 000000018002c540     Selector.obj
 0002:00004568       $cppxdata$??_GCSelectorWorker@@UEAAPEAXI@Z 000000018002c568     Selector.obj
 0002:00004590       $cppxdata$?IsNetManaged@CSelectorWorker@@EEAA_NAEAV?$basic_string@DU?$char_traits@D@std@@V?$allocator@D@2@@std@@@Z 000000018002c590     Selector.obj
 0002:000045b8       $cppxdata$?ThreadEntry@CSelectorWorker@@EEAAHXZ 000000018002c5b8     Selector.obj
 0002:000045e0       $cppxdata$?ThreadEntry@CSelector@@MEAAHXZ 000000018002c5e0     Selector.obj
 0002:00004608       $cppxdata$?Finish@CSelector@@UEAAXXZ 000000018002c608     Selector.obj
 0002:00004630       $cppxdata$?Init@CSelector@@UEAAHPEAVCConfig@@@Z 000000018002c630     Selector.obj
 0002:00004658       $cppxdata$??1CSelector@@MEAA@XZ 000000018002c658     Selector.obj
 0002:00004680       $cppxdata$??0CSelector@@IEAA@XZ 000000018002c680     Selector.obj
 0002:000046a8       $cppxdata$?UdpSocket@CSelectorIo@@MEAAHAEA_KAEAH@Z 000000018002c6a8     Selector.obj
 0002:000046d0       $cppxdata$?Handle@CSelectorIo@@MEAAHH@Z 000000018002c6d0     Selector.obj
 0002:000046f8       $cppxdata$?UdpSocket@CSelectorListen@@MEAAHAEA_KAEAH@Z 000000018002c6f8     Selector.obj
 0002:00004720       $cppxdata$?Handle@CSelectorListen@@MEAAHH@Z 000000018002c720     Selector.obj
 0002:00004748       $cppxdata$??$ToString@I@strutils@@YA?AV?$basic_string@DU?$char_traits@D@std@@V?$allocator@D@2@@std@@IGGDD@Z 000000018002c748     WorkThreadNm.obj
 0002:00004770       $cppxdata$??$?HDU?$char_traits@D@std@@V?$allocator@D@1@@std@@YA?AV?$basic_string@DU?$char_traits@D@std@@V?$allocator@D@2@@0@$$QEAV10@AEBV10@@Z 000000018002c770     WorkThreadNm.obj
 0002:00004798       $cppxdata$??$?HDU?$char_traits@D@std@@V?$allocator@D@1@@std@@YA?AV?$basic_string@DU?$char_traits@D@std@@V?$allocator@D@2@@0@AEBV10@PEBD@Z 000000018002c798     WorkThreadNm.obj
 0002:000047c0       $cppxdata$?OnStop@CWorkThreadNm@@MEAAXXZ 000000018002c7c0     WorkThreadNm.obj
 0002:000047e8       $cppxdata$?OnStart@CWorkThreadNm@@MEAAXXZ 000000018002c7e8     WorkThreadNm.obj
 0002:00004810       $cppxdata$?BeginThread@CWorkThreadNm@@UEAAHXZ 000000018002c810     WorkThreadNm.obj
 0002:00004838       $cppxdata$??1CWorkThreadNm@@UEAA@XZ 000000018002c838     WorkThreadNm.obj
 0002:00004860       $cppxdata$??0CWorkThreadNm@@QEAA@XZ 000000018002c860     WorkThreadNm.obj
 0002:00004888       $cppxdata$?ThreadQuery@CWorkThreadNm@@MEBAHAEAVCNMO@@@Z 000000018002c888     WorkThreadNm.obj
 0002:00006dd0       $unwind$?push_back@?$vector@HV?$allocator@H@std@@@std@@QEAAX$$QEAH@Z 000000018002edd0     Connector.obj
 0002:00006dd0       $unwind$?_Assign_rv@?$basic_string@DU?$char_traits@D@std@@V?$allocator@D@2@@std@@QEAAX$$QEAV12@@Z 000000018002edd0     Connector.obj
 0002:00006dd0       $unwind$?Finish@CSelectorIo@@UEAAXXZ 000000018002edd0     Selector.obj
 0002:00006dd0       $unwind$?push_back@?$vector@PEAVCGessMutex@@V?$allocator@PEAVCGessMutex@@@std@@@std@@QEAAXAEBQEAVCGessMutex@@@Z 000000018002edd0     Selector.obj
 0002:00006dd0       $unwind$?_Buy@?$vector@U?$pair@V?$basic_string@DU?$char_traits@D@std@@V?$allocator@D@2@@std@@H@std@@V?$allocator@U?$pair@V?$basic_string@DU?$char_traits@D@std@@V?$allocator@D@2@@std@@H@std@@@2@@std@@IEAA_N_K@Z 000000018002edd0     Connector.obj
 0002:00006dd0       $unwind$??4CProtocolCommClient@@QEAAAEAV0@AEBV0@@Z 000000018002edd0     Connector.obj
 0002:00006dd0       $unwind$??4CListener@@QEAAAEAV0@AEBV0@@Z 000000018002edd0     Connector.obj
 0002:00006dd0       $unwind$?SetIp@CTcpShortComm@@QEAAXAEBV?$basic_string@DU?$char_traits@D@std@@V?$allocator@D@2@@std@@H@Z 000000018002edd0     ProtocolComm.obj
 0002:00006dd0       $unwind$?push_back@?$vector@U?$pair@_KPEAX@std@@V?$allocator@U?$pair@_KPEAX@std@@@2@@std@@QEAAXAEBU?$pair@_KPEAX@2@@Z 000000018002edd0     Selector.obj
 0002:00006dd0       $unwind$??4CProtocolCommServer@@QEAAAEAV0@AEBV0@@Z 000000018002edd0     Connector.obj
 0002:00006dd0       $unwind$?push_back@?$vector@PEAVCSelectorWorker@@V?$allocator@PEAVCSelectorWorker@@@std@@@std@@QEAAXAEBQEAVCSelectorWorker@@@Z 000000018002edd0     Selector.obj
 0002:00006dd0       $unwind$?_Buy@?$vector@PEAVCGessMutex@@V?$allocator@PEAVCGessMutex@@@std@@@std@@IEAA_N_K@Z 000000018002edd0     ProtocolComm.obj
 0002:00006dd0       $unwind$??_Gbad_array_new_length@std@@UEAAPEAXI@Z 000000018002edd0     MSVCRT:throw_bad_alloc.obj
 0002:00006dd0       $unwind$?Finish@CSelectorListen@@UEAAXXZ 000000018002edd0     Selector.obj
 0002:00006dd0       $unwind$?GetFlowStatics@CTcpAppProcessServer@@QEAAXAEAI000@Z 000000018002edd0     ProtocolProcess.obj
 0002:00006dd0       $unwind$?GetFlowStatics@CTcpAppProcessClient@@QEAAXAEAI000@Z 000000018002edd0     ProtocolProcess.obj
 0002:00006dd0       $unwind$??4CConnector@@QEAAAEAV0@AEBV0@@Z 000000018002edd0     Connector.obj
 0002:00006dd0       $unwind$??_Gbad_alloc@std@@UEAAPEAXI@Z 000000018002edd0     MSVCRT:throw_bad_alloc.obj
 0002:00006dd0       $unwind$??4CAppProcessServer@@QEAAAEAV0@AEBV0@@Z 000000018002edd0     ProtocolProcess.obj
 0002:00006dd0       $unwind$??_GCProtocolCommWorker@CProtocolCommImp@@UEAAPEAXI@Z 000000018002edd0     Connector.obj
 0002:00006dd0       $unwind$??_Gexception@std@@UEAAPEAXI@Z 000000018002edd0     Connector.obj
 0002:00006dd0       $unwind$??4CTcpShortComm@@QEAAAEAV0@AEBV0@@Z 000000018002edd0     Connector.obj
 0002:00006dd0       $unwind$??4CAppProcess@@QEAAAEAV0@AEBV0@@Z 000000018002edd0     ProtocolProcess.obj
 0002:00006dd0       $unwind$?StateRollback@CAction@@MEAAXXZ 000000018002edd0     Connector.obj
 0002:00006dd0       $unwind$?GetStage@CAction@@IEAA?AW4eStage@1@XZ 000000018002edd0     Connector.obj
 0002:00006dd0       $unwind$??4CWorkThreadNm@@QEAAAEAV0@AEBV0@@Z 000000018002edd0     Connector.obj
 0002:00006dd0       $unwind$?_Buy@?$vector@PEAVCSelectorWorker@@V?$allocator@PEAVCSelectorWorker@@@std@@@std@@IEAA_N_K@Z 000000018002edd0     ProtocolComm.obj
 0002:00006dd0       $unwind$??4tagProxyData@CTcpShortComm@@QEAAAEAU01@AEBU01@@Z 000000018002edd0     Connector.obj
 0002:00006dd0       $unwind$?_Buy@?$vector@V?$deque@U?$pair@_KPEAX@std@@V?$allocator@U?$pair@_KPEAX@std@@@2@@std@@V?$allocator@V?$deque@U?$pair@_KPEAX@std@@V?$allocator@U?$pair@_KPEAX@std@@@2@@std@@@2@@std@@IEAA_N_K@Z 000000018002edd0     ProtocolComm.obj
 0002:00006dd0       $unwind$?erase@?$basic_string@DU?$char_traits@D@std@@V?$allocator@D@2@@std@@QEAAAEAV12@_K0@Z 000000018002edd0     Connector.obj
 0002:00006dd0       $unwind$??4CAio@@QEAAAEAV0@AEBV0@@Z 000000018002edd0     Connector.obj
 0002:00006ddc       $unwind$??__Fmib_NodeSta@NmConst@@YAXXZ 000000018002eddc     Selector.obj
 0002:00006ddc       $unwind$??__Fgc_CtrStar@NmConst@@YAXXZ 000000018002eddc     ProtocolProcess.obj
 0002:00006ddc       $unwind$??__Emib_NodeCtr@NmConst@@YAXXZ 000000018002eddc     Selector.obj
 0002:00006ddc       $unwind$??__FmibQueNum@NmConst@@YAXXZ 000000018002eddc     ProtocolComm.obj
 0002:00006ddc       $unwind$?IsNetManaged@CProtocolCommWorker@CProtocolCommImp@@EEAA_NAEAV?$basic_string@DU?$char_traits@D@std@@V?$allocator@D@2@@std@@@Z 000000018002eddc     Connector.obj
 0002:00006ddc       $unwind$??__FmibCpuRadio@NmConst@@YAXXZ 000000018002eddc     Listener.obj
 0002:00006ddc       $unwind$??__Egc_CtrDetach@NmConst@@YAXXZ 000000018002eddc     ProtocolProcess.obj
 0002:00006ddc       $unwind$??__EmibQueNum@NmConst@@YAXXZ 000000018002eddc     ProtocolComm.obj
 0002:00006ddc       $unwind$??__Fgc_CtrDetach@NmConst@@YAXXZ 000000018002eddc     ProtocolProcess.obj
 0002:00006ddc       $unwind$??__Egc_CtrStar@NmConst@@YAXXZ 000000018002eddc     ProtocolProcess.obj
 0002:00006ddc       $unwind$??__Fmib_NodeCtr@NmConst@@YAXXZ 000000018002eddc     ProtocolComm.obj
 0002:00006ddc       $unwind$??__Emib_NodeCtr@NmConst@@YAXXZ 000000018002eddc     ProtocolComm.obj
 0002:00006ddc       $unwind$??__Egc_CtrAttach@NmConst@@YAXXZ 000000018002eddc     ProtocolProcess.obj
 0002:00006ddc       $unwind$??__Fmib_NodeId@NmConst@@YAXXZ 000000018002eddc     Listener.obj
 0002:00006ddc       $unwind$??__Fgc_CtrAttach@NmConst@@YAXXZ 000000018002eddc     ProtocolProcess.obj
 0002:00006ddc       $unwind$??__Egc_nItemTypeDigital@NmConst@@YAXXZ 000000018002eddc     Connector.obj
 0002:00006ddc       $unwind$??__EmibCpuRadio@NmConst@@YAXXZ 000000018002eddc     ProtocolProcess.obj
 0002:00006ddc       $unwind$??__Fgc_nItemTypeDigital@NmConst@@YAXXZ 000000018002eddc     Connector.obj
 0002:00006ddc       $unwind$??__FmibCpuRadio@NmConst@@YAXXZ 000000018002eddc     ProtocolProcess.obj
 0002:00006ddc       $unwind$??__Egc_nItemTypeAnalog@NmConst@@YAXXZ 000000018002eddc     Connector.obj
 0002:00006ddc       $unwind$??__EmibEmsTotal@NmConst@@YAXXZ 000000018002eddc     ProtocolProcess.obj
 0002:00006ddc       $unwind$??__Fgc_nItemTypeAnalog@NmConst@@YAXXZ 000000018002eddc     Connector.obj
 0002:00006ddc       $unwind$??__Emib_NodeSta@NmConst@@YAXXZ 000000018002eddc     Selector.obj
 0002:00006ddc       $unwind$??__Egc_nItemTypeConfig@NmConst@@YAXXZ 000000018002eddc     Connector.obj
 0002:00006ddc       $unwind$??__FmibEmsTotal@NmConst@@YAXXZ 000000018002eddc     ProtocolProcess.obj
 0002:00006ddc       $unwind$??__Fgc_nItemTypeConfig@NmConst@@YAXXZ 000000018002eddc     Connector.obj
 0002:00006ddc       $unwind$??__EmibEmsUse@NmConst@@YAXXZ 000000018002eddc     ProtocolProcess.obj
 0002:00006ddc       $unwind$??__Egc_CtrQuit@NmConst@@YAXXZ 000000018002eddc     Connector.obj
 0002:00006ddc       $unwind$??__EmibEmsTotal@NmConst@@YAXXZ 000000018002eddc     Listener.obj
 0002:00006ddc       $unwind$??__Fgc_CtrQuit@NmConst@@YAXXZ 000000018002eddc     Connector.obj
 0002:00006ddc       $unwind$??__FmibEmsUse@NmConst@@YAXXZ 000000018002eddc     ProtocolProcess.obj
 0002:00006ddc       $unwind$??__Egc_CtrRestar@NmConst@@YAXXZ 000000018002eddc     Connector.obj
 0002:00006ddc       $unwind$??__EmibEmsRadio@NmConst@@YAXXZ 000000018002eddc     ProtocolProcess.obj
 0002:00006ddc       $unwind$??__Fgc_CtrRestar@NmConst@@YAXXZ 000000018002eddc     Connector.obj
 0002:00006ddc       $unwind$??__FmibEmsRadio@NmConst@@YAXXZ 000000018002eddc     ProtocolProcess.obj
 0002:00006ddc       $unwind$??__Egc_CtrStar@NmConst@@YAXXZ 000000018002eddc     Connector.obj
 0002:00006ddc       $unwind$??__EmibDiskNum@NmConst@@YAXXZ 000000018002eddc     ProtocolProcess.obj
 0002:00006ddc       $unwind$??__Fgc_CtrStar@NmConst@@YAXXZ 000000018002eddc     Connector.obj
 0002:00006ddc       $unwind$??__Fgc_CtrRestar@NmConst@@YAXXZ 000000018002eddc     ProtocolProcess.obj
 0002:00006ddc       $unwind$??__Egc_CtrDetach@NmConst@@YAXXZ 000000018002eddc     Connector.obj
 0002:00006ddc       $unwind$??__FmibDiskNum@NmConst@@YAXXZ 000000018002eddc     ProtocolProcess.obj
 0002:00006ddc       $unwind$??__Fgc_CtrDetach@NmConst@@YAXXZ 000000018002eddc     Connector.obj
 0002:00006ddc       $unwind$??__EmibPartIndex@NmConst@@YAXXZ 000000018002eddc     ProtocolProcess.obj
 0002:00006ddc       $unwind$??__Egc_CtrAttach@NmConst@@YAXXZ 000000018002eddc     Connector.obj
 0002:00006ddc       $unwind$??__FmibPartIndex@NmConst@@YAXXZ 000000018002eddc     ProtocolProcess.obj
 0002:00006ddc       $unwind$??__Fgc_CtrAttach@NmConst@@YAXXZ 000000018002eddc     Connector.obj
 0002:00006ddc       $unwind$??__EmibDiskPhyTotal@NmConst@@YAXXZ 000000018002eddc     ProtocolProcess.obj
 0002:00006ddc       $unwind$??__EmibCpuRadio@NmConst@@YAXXZ 000000018002eddc     Connector.obj
 0002:00006ddc       $unwind$??__FmibDiskPhyTotal@NmConst@@YAXXZ 000000018002eddc     ProtocolProcess.obj
 0002:00006ddc       $unwind$??__FmibCpuRadio@NmConst@@YAXXZ 000000018002eddc     Connector.obj
 0002:00006ddc       $unwind$??__Fgc_sTcpLocalIp@NmConst@@YAXXZ 000000018002eddc     Selector.obj
 0002:00006ddc       $unwind$??__EmibEmsTotal@NmConst@@YAXXZ 000000018002eddc     Connector.obj
 0002:00006ddc       $unwind$??__EmibDisk_Used@NmConst@@YAXXZ 000000018002eddc     ProtocolProcess.obj
 0002:00006ddc       $unwind$??__FmibEmsTotal@NmConst@@YAXXZ 000000018002eddc     Connector.obj
 0002:00006ddc       $unwind$??__FmibDisk_Used@NmConst@@YAXXZ 000000018002eddc     ProtocolProcess.obj
 0002:00006ddc       $unwind$??__EmibEmsUse@NmConst@@YAXXZ 000000018002eddc     Connector.obj
 0002:00006ddc       $unwind$??__EmibDisk_Used_Ratio@NmConst@@YAXXZ 000000018002eddc     ProtocolProcess.obj
 0002:00006ddc       $unwind$??__FmibEmsUse@NmConst@@YAXXZ 000000018002eddc     Connector.obj
 0002:00006ddc       $unwind$??__FmibDisk_Used_Ratio@NmConst@@YAXXZ 000000018002eddc     ProtocolProcess.obj
 0002:00006ddc       $unwind$??__EmibEmsRadio@NmConst@@YAXXZ 000000018002eddc     Connector.obj
 0002:00006ddc       $unwind$??__Egc_sThreadNum@NmConst@@YAXXZ 000000018002eddc     ProtocolProcess.obj
 0002:00006ddc       $unwind$??__FmibEmsRadio@NmConst@@YAXXZ 000000018002eddc     Connector.obj
 0002:00006ddc       $unwind$??__Egc_CtrRestar@NmConst@@YAXXZ 000000018002eddc     ProtocolProcess.obj
 0002:00006ddc       $unwind$??__EmibDiskNum@NmConst@@YAXXZ 000000018002eddc     Connector.obj
 0002:00006ddc       $unwind$??__Fgc_sThreadNum@NmConst@@YAXXZ 000000018002eddc     ProtocolProcess.obj
 0002:00006ddc       $unwind$??__FmibDiskNum@NmConst@@YAXXZ 000000018002eddc     Connector.obj
 0002:00006ddc       $unwind$??__Egc_sThreadIdx@NmConst@@YAXXZ 000000018002eddc     ProtocolProcess.obj
 0002:00006ddc       $unwind$??__EmibPartIndex@NmConst@@YAXXZ 000000018002eddc     Connector.obj
 0002:00006ddc       $unwind$??__Fgc_sThreadIdx@NmConst@@YAXXZ 000000018002eddc     ProtocolProcess.obj
 0002:00006ddc       $unwind$??__FmibPartIndex@NmConst@@YAXXZ 000000018002eddc     Connector.obj
 0002:00006ddc       $unwind$??__Egc_sThreadState@NmConst@@YAXXZ 000000018002eddc     ProtocolProcess.obj
 0002:00006ddc       $unwind$??__EmibDiskPhyTotal@NmConst@@YAXXZ 000000018002eddc     Connector.obj
 0002:00006ddc       $unwind$??__E?m_mutexSID@CWorkThreadNm@@0VCGessMutex@@A@@YAXXZ 000000018002eddc     WorkThreadNm.obj
 0002:00006ddc       $unwind$??__FmibDiskPhyTotal@NmConst@@YAXXZ 000000018002eddc     Connector.obj
 0002:00006ddc       $unwind$??__Fgc_sThreadState@NmConst@@YAXXZ 000000018002eddc     ProtocolProcess.obj
 0002:00006ddc       $unwind$??__EmibDisk_Used@NmConst@@YAXXZ 000000018002eddc     Connector.obj
 0002:00006ddc       $unwind$??__FmibQueNum@NmConst@@YAXXZ 000000018002eddc     WorkThreadNm.obj
 0002:00006ddc       $unwind$??__FmibDisk_Used@NmConst@@YAXXZ 000000018002eddc     Connector.obj
 0002:00006ddc       $unwind$??__Egc_sTcpLocalIp@NmConst@@YAXXZ 000000018002eddc     ProtocolProcess.obj
 0002:00006ddc       $unwind$??__EmibDisk_Used_Ratio@NmConst@@YAXXZ 000000018002eddc     Connector.obj
 0002:00006ddc       $unwind$??__EmibQueNum@NmConst@@YAXXZ 000000018002eddc     WorkThreadNm.obj
 0002:00006ddc       $unwind$??__FmibDisk_Used_Ratio@NmConst@@YAXXZ 000000018002eddc     Connector.obj
 0002:00006ddc       $unwind$??__Fgc_sTcpLocalIp@NmConst@@YAXXZ 000000018002eddc     ProtocolProcess.obj
 0002:00006ddc       $unwind$??__Egc_sThreadNum@NmConst@@YAXXZ 000000018002eddc     Connector.obj
 0002:00006ddc       $unwind$??__Fmib_NodeCtr@NmConst@@YAXXZ 000000018002eddc     WorkThreadNm.obj
 0002:00006ddc       $unwind$??__Fgc_sThreadNum@NmConst@@YAXXZ 000000018002eddc     Connector.obj
 0002:00006ddc       $unwind$??__Egc_sTcpLocalPort@NmConst@@YAXXZ 000000018002eddc     ProtocolProcess.obj
 0002:00006ddc       $unwind$??__Egc_sThreadIdx@NmConst@@YAXXZ 000000018002eddc     Connector.obj
 0002:00006ddc       $unwind$??__Emib_NodeCtr@NmConst@@YAXXZ 000000018002eddc     WorkThreadNm.obj
 0002:00006ddc       $unwind$??__Fgc_sThreadIdx@NmConst@@YAXXZ 000000018002eddc     Connector.obj
 0002:00006ddc       $unwind$??__Fgc_sTcpLocalPort@NmConst@@YAXXZ 000000018002eddc     ProtocolProcess.obj
 0002:00006ddc       $unwind$??__Egc_sThreadState@NmConst@@YAXXZ 000000018002eddc     Connector.obj
 0002:00006ddc       $unwind$??__Fmib_NodeSta@NmConst@@YAXXZ 000000018002eddc     WorkThreadNm.obj
 0002:00006ddc       $unwind$??__Fgc_sThreadState@NmConst@@YAXXZ 000000018002eddc     Connector.obj
 0002:00006ddc       $unwind$??__Egc_sTcpRemoteIp@NmConst@@YAXXZ 000000018002eddc     ProtocolProcess.obj
 0002:00006ddc       $unwind$??__Egc_sTcpLocalIp@NmConst@@YAXXZ 000000018002eddc     Connector.obj
 0002:00006ddc       $unwind$??__Emib_NodeSta@NmConst@@YAXXZ 000000018002eddc     WorkThreadNm.obj
 0002:00006ddc       $unwind$??__Fgc_sTcpLocalIp@NmConst@@YAXXZ 000000018002eddc     Connector.obj
 0002:00006ddc       $unwind$??__Fgc_sTcpRemoteIp@NmConst@@YAXXZ 000000018002eddc     ProtocolProcess.obj
 0002:00006ddc       $unwind$??__Egc_sTcpLocalPort@NmConst@@YAXXZ 000000018002eddc     Connector.obj
 0002:00006ddc       $unwind$??__Fmib_NodeId@NmConst@@YAXXZ 000000018002eddc     WorkThreadNm.obj
 0002:00006ddc       $unwind$??__Fgc_sTcpLocalPort@NmConst@@YAXXZ 000000018002eddc     Connector.obj
 0002:00006ddc       $unwind$??__Egc_sTcpRemotePort@NmConst@@YAXXZ 000000018002eddc     ProtocolProcess.obj
 0002:00006ddc       $unwind$??__Egc_sTcpRemoteIp@NmConst@@YAXXZ 000000018002eddc     Connector.obj
 0002:00006ddc       $unwind$??__Emib_NodeId@NmConst@@YAXXZ 000000018002eddc     WorkThreadNm.obj
 0002:00006ddc       $unwind$??__Fgc_sTcpRemoteIp@NmConst@@YAXXZ 000000018002eddc     Connector.obj
 0002:00006ddc       $unwind$??__Fgc_sTcpRemotePort@NmConst@@YAXXZ 000000018002eddc     ProtocolProcess.obj
 0002:00006ddc       $unwind$??__Egc_sTcpRemotePort@NmConst@@YAXXZ 000000018002eddc     Connector.obj
 0002:00006ddc       $unwind$??__Fgc_sTcpOutBytesAve@NmConst@@YAXXZ 000000018002eddc     WorkThreadNm.obj
 0002:00006ddc       $unwind$??__Fgc_sTcpRemotePort@NmConst@@YAXXZ 000000018002eddc     Connector.obj
 0002:00006ddc       $unwind$??__Egc_sTcpState@NmConst@@YAXXZ 000000018002eddc     ProtocolProcess.obj
 0002:00006ddc       $unwind$??__Egc_sTcpState@NmConst@@YAXXZ 000000018002eddc     Connector.obj
 0002:00006ddc       $unwind$??__Egc_sTcpOutBytesAve@NmConst@@YAXXZ 000000018002eddc     WorkThreadNm.obj
 0002:00006ddc       $unwind$??__Fgc_sTcpState@NmConst@@YAXXZ 000000018002eddc     Connector.obj
 0002:00006ddc       $unwind$??__Fgc_sTcpState@NmConst@@YAXXZ 000000018002eddc     ProtocolProcess.obj
 0002:00006ddc       $unwind$??__Egc_sTcpInBytesAve@NmConst@@YAXXZ 000000018002eddc     Connector.obj
 0002:00006ddc       $unwind$??__Fgc_sTcpInBytesAve@NmConst@@YAXXZ 000000018002eddc     WorkThreadNm.obj
 0002:00006ddc       $unwind$??__Fgc_sTcpInBytesAve@NmConst@@YAXXZ 000000018002eddc     Connector.obj
 0002:00006ddc       $unwind$??__Egc_sTcpInBytesAve@NmConst@@YAXXZ 000000018002eddc     ProtocolProcess.obj
 0002:00006ddc       $unwind$??__Egc_sTcpOutBytesAve@NmConst@@YAXXZ 000000018002eddc     Connector.obj
 0002:00006ddc       $unwind$??__Egc_sTcpInBytesAve@NmConst@@YAXXZ 000000018002eddc     WorkThreadNm.obj
 0002:00006ddc       $unwind$??__Fgc_sTcpOutBytesAve@NmConst@@YAXXZ 000000018002eddc     Connector.obj
 0002:00006ddc       $unwind$??__Fgc_sTcpInBytesAve@NmConst@@YAXXZ 000000018002eddc     ProtocolProcess.obj
 0002:00006ddc       $unwind$??__Emib_NodeId@NmConst@@YAXXZ 000000018002eddc     Connector.obj
 0002:00006ddc       $unwind$??__Fgc_sTcpState@NmConst@@YAXXZ 000000018002eddc     WorkThreadNm.obj
 0002:00006ddc       $unwind$??__Fmib_NodeId@NmConst@@YAXXZ 000000018002eddc     Connector.obj
 0002:00006ddc       $unwind$??__Egc_sTcpOutBytesAve@NmConst@@YAXXZ 000000018002eddc     ProtocolProcess.obj
 0002:00006ddc       $unwind$??__Emib_NodeSta@NmConst@@YAXXZ 000000018002eddc     Connector.obj
 0002:00006ddc       $unwind$??__Egc_sTcpState@NmConst@@YAXXZ 000000018002eddc     WorkThreadNm.obj
 0002:00006ddc       $unwind$??__Fmib_NodeSta@NmConst@@YAXXZ 000000018002eddc     Connector.obj
 0002:00006ddc       $unwind$??__Fgc_sTcpOutBytesAve@NmConst@@YAXXZ 000000018002eddc     ProtocolProcess.obj
 0002:00006ddc       $unwind$??__Emib_NodeCtr@NmConst@@YAXXZ 000000018002eddc     Connector.obj
 0002:00006ddc       $unwind$??__Fgc_sTcpRemotePort@NmConst@@YAXXZ 000000018002eddc     WorkThreadNm.obj
 0002:00006ddc       $unwind$??__Fmib_NodeCtr@NmConst@@YAXXZ 000000018002eddc     Connector.obj
 0002:00006ddc       $unwind$??__Emib_NodeId@NmConst@@YAXXZ 000000018002eddc     ProtocolProcess.obj
 0002:00006ddc       $unwind$??__EmibQueNum@NmConst@@YAXXZ 000000018002eddc     Connector.obj
 0002:00006ddc       $unwind$??__Egc_sTcpRemotePort@NmConst@@YAXXZ 000000018002eddc     WorkThreadNm.obj
 0002:00006ddc       $unwind$??__FmibQueNum@NmConst@@YAXXZ 000000018002eddc     Connector.obj
 0002:00006ddc       $unwind$??__Fmib_NodeSta@NmConst@@YAXXZ 000000018002eddc     ProtocolComm.obj
 0002:00006ddc       $unwind$??__Fmib_NodeCtr@NmConst@@YAXXZ 000000018002eddc     Selector.obj
 0002:00006ddc       $unwind$?Destroy@?$CSingleton@VCSelectorListen@@@@CAXXZ 000000018002eddc     ProtocolComm.obj
 0002:00006ddc       $unwind$__scrt_initialize_default_local_stdio_options 000000018002eddc     MSVCRT:default_local_stdio_options.obj
 0002:00006ddc       $unwind$??__Fmib_NodeId@NmConst@@YAXXZ 000000018002eddc     ProtocolProcess.obj
 0002:00006ddc       $unwind$??__Fgc_sTcpRemoteIp@NmConst@@YAXXZ 000000018002eddc     WorkThreadNm.obj
 0002:00006ddc       $unwind$??__FmibDiskPhyTotal@NmConst@@YAXXZ 000000018002eddc     Selector.obj
 0002:00006ddc       $unwind$??__Emib_NodeSta@NmConst@@YAXXZ 000000018002eddc     ProtocolProcess.obj
 0002:00006ddc       $unwind$??__Egc_sTcpRemoteIp@NmConst@@YAXXZ 000000018002eddc     WorkThreadNm.obj
 0002:00006ddc       $unwind$??__Fmib_NodeSta@NmConst@@YAXXZ 000000018002eddc     ProtocolProcess.obj
 0002:00006ddc       $unwind$??__Fgc_sTcpLocalPort@NmConst@@YAXXZ 000000018002eddc     WorkThreadNm.obj
 0002:00006ddc       $unwind$??__Emib_NodeCtr@NmConst@@YAXXZ 000000018002eddc     ProtocolProcess.obj
 0002:00006ddc       $unwind$??__Egc_sTcpLocalPort@NmConst@@YAXXZ 000000018002eddc     WorkThreadNm.obj
 0002:00006ddc       $unwind$??__Fmib_NodeCtr@NmConst@@YAXXZ 000000018002eddc     ProtocolProcess.obj
 0002:00006ddc       $unwind$??__Fgc_sTcpLocalIp@NmConst@@YAXXZ 000000018002eddc     WorkThreadNm.obj
 0002:00006ddc       $unwind$??__FmibEmsTotal@NmConst@@YAXXZ 000000018002eddc     Listener.obj
 0002:00006ddc       $unwind$??__EmibQueNum@NmConst@@YAXXZ 000000018002eddc     ProtocolProcess.obj
 0002:00006ddc       $unwind$??__Egc_sTcpLocalIp@NmConst@@YAXXZ 000000018002eddc     WorkThreadNm.obj
 0002:00006ddc       $unwind$??__FmibQueNum@NmConst@@YAXXZ 000000018002eddc     ProtocolProcess.obj
 0002:00006ddc       $unwind$??__Fgc_CtrQuit@NmConst@@YAXXZ 000000018002eddc     ProtocolProcess.obj
 0002:00006ddc       $unwind$??__Fgc_sThreadState@NmConst@@YAXXZ 000000018002eddc     WorkThreadNm.obj
 0002:00006ddc       $unwind$??__FmibDisk_Used@NmConst@@YAXXZ 000000018002eddc     Selector.obj
 0002:00006ddc       $unwind$??__Egc_sThreadState@NmConst@@YAXXZ 000000018002eddc     WorkThreadNm.obj
 0002:00006ddc       $unwind$??__Fgc_sThreadIdx@NmConst@@YAXXZ 000000018002eddc     WorkThreadNm.obj
 0002:00006ddc       $unwind$??__Egc_sThreadIdx@NmConst@@YAXXZ 000000018002eddc     WorkThreadNm.obj
 0002:00006ddc       $unwind$??__Fgc_sThreadNum@NmConst@@YAXXZ 000000018002eddc     WorkThreadNm.obj
 0002:00006ddc       $unwind$??__Egc_sThreadNum@NmConst@@YAXXZ 000000018002eddc     WorkThreadNm.obj
 0002:00006ddc       $unwind$??__Emib_NodeSta@NmConst@@YAXXZ 000000018002eddc     ProtocolComm.obj
 0002:00006ddc       $unwind$??__FmibDisk_Used_Ratio@NmConst@@YAXXZ 000000018002eddc     WorkThreadNm.obj
 0002:00006ddc       $unwind$??__EmibCpuRadio@NmConst@@YAXXZ 000000018002eddc     Listener.obj
 0002:00006ddc       $unwind$??__EmibDisk_Used_Ratio@NmConst@@YAXXZ 000000018002eddc     WorkThreadNm.obj
 0002:00006ddc       $unwind$??__EmibQueNum@NmConst@@YAXXZ 000000018002eddc     Selector.obj
 0002:00006ddc       $unwind$??__FmibDisk_Used@NmConst@@YAXXZ 000000018002eddc     WorkThreadNm.obj
 0002:00006ddc       $unwind$??__EmibDisk_Used@NmConst@@YAXXZ 000000018002eddc     WorkThreadNm.obj
 0002:00006ddc       $unwind$??__Fmib_NodeId@NmConst@@YAXXZ 000000018002eddc     Selector.obj
 0002:00006ddc       $unwind$??__Fmib_NodeId@NmConst@@YAXXZ 000000018002eddc     ProtocolComm.obj
 0002:00006ddc       $unwind$??__FmibDiskPhyTotal@NmConst@@YAXXZ 000000018002eddc     WorkThreadNm.obj
 0002:00006ddc       $unwind$??__EmibDiskPhyTotal@NmConst@@YAXXZ 000000018002eddc     WorkThreadNm.obj
 0002:00006ddc       $unwind$??__Emib_NodeSta@NmConst@@YAXXZ 000000018002eddc     Listener.obj
 0002:00006ddc       $unwind$??__FmibPartIndex@NmConst@@YAXXZ 000000018002eddc     WorkThreadNm.obj
 0002:00006ddc       $unwind$??__Egc_nItemTypeDigital@NmConst@@YAXXZ 000000018002eddc     Selector.obj
 0002:00006ddc       $unwind$??__EmibPartIndex@NmConst@@YAXXZ 000000018002eddc     WorkThreadNm.obj
 0002:00006ddc       $unwind$??__Fgc_sTcpOutBytesAve@NmConst@@YAXXZ 000000018002eddc     ProtocolComm.obj
 0002:00006ddc       $unwind$??__FmibDiskNum@NmConst@@YAXXZ 000000018002eddc     WorkThreadNm.obj
 0002:00006ddc       $unwind$??__FmibQueNum@NmConst@@YAXXZ 000000018002eddc     Selector.obj
 0002:00006ddc       $unwind$??__Egc_sTcpOutBytesAve@NmConst@@YAXXZ 000000018002eddc     ProtocolComm.obj
 0002:00006ddc       $unwind$??__EmibDiskNum@NmConst@@YAXXZ 000000018002eddc     WorkThreadNm.obj
 0002:00006ddc       $unwind$?_Allocate@std@@YAPEAX_K0_N@Z 000000018002eddc     Connector.obj
 0002:00006ddc       $unwind$??__FmibEmsRadio@NmConst@@YAXXZ 000000018002eddc     WorkThreadNm.obj
 0002:00006ddc       $unwind$??__Fgc_sTcpInBytesAve@NmConst@@YAXXZ 000000018002eddc     ProtocolComm.obj
 0002:00006ddc       $unwind$??__Fgc_CtrAttach@NmConst@@YAXXZ 000000018002eddc     Listener.obj
 0002:00006ddc       $unwind$??__EmibEmsRadio@NmConst@@YAXXZ 000000018002eddc     WorkThreadNm.obj
 0002:00006ddc       $unwind$??__Emib_NodeId@NmConst@@YAXXZ 000000018002eddc     Selector.obj
 0002:00006ddc       $unwind$??__EmibDiskPhyTotal@NmConst@@YAXXZ 000000018002eddc     Selector.obj
 0002:00006ddc       $unwind$??__FmibEmsUse@NmConst@@YAXXZ 000000018002eddc     WorkThreadNm.obj
 0002:00006ddc       $unwind$??__Egc_CtrQuit@NmConst@@YAXXZ 000000018002eddc     ProtocolProcess.obj
 0002:00006ddc       $unwind$??__EmibEmsUse@NmConst@@YAXXZ 000000018002eddc     WorkThreadNm.obj
 0002:00006ddc       $unwind$??__EmibEmsUse@NmConst@@YAXXZ 000000018002eddc     Listener.obj
 0002:00006ddc       $unwind$??__EmibDisk_Used_Ratio@NmConst@@YAXXZ 000000018002eddc     Selector.obj
 0002:00006ddc       $unwind$??__FmibEmsTotal@NmConst@@YAXXZ 000000018002eddc     WorkThreadNm.obj
 0002:00006ddc       $unwind$??__EmibEmsTotal@NmConst@@YAXXZ 000000018002eddc     WorkThreadNm.obj
 0002:00006ddc       $unwind$??__Egc_sTcpInBytesAve@NmConst@@YAXXZ 000000018002eddc     ProtocolComm.obj
 0002:00006ddc       $unwind$??__Fgc_sTcpState@NmConst@@YAXXZ 000000018002eddc     ProtocolComm.obj
 0002:00006ddc       $unwind$??__FmibCpuRadio@NmConst@@YAXXZ 000000018002eddc     WorkThreadNm.obj
 0002:00006ddc       $unwind$??__EmibCpuRadio@NmConst@@YAXXZ 000000018002eddc     WorkThreadNm.obj
 0002:00006ddc       $unwind$?Destroy@?$CSingleton@VCSelectorIo@@@@CAXXZ 000000018002eddc     ProtocolComm.obj
 0002:00006ddc       $unwind$??__Egc_nItemTypeConfig@NmConst@@YAXXZ 000000018002eddc     Listener.obj
 0002:00006ddc       $unwind$??__Fgc_CtrAttach@NmConst@@YAXXZ 000000018002eddc     WorkThreadNm.obj
 0002:00006ddc       $unwind$??__Egc_CtrAttach@NmConst@@YAXXZ 000000018002eddc     WorkThreadNm.obj
 0002:00006ddc       $unwind$?InitPacketInfo@CTcpHandler@@QEAAHXZ 000000018002eddc     ProtocolProcess.obj
 0002:00006ddc       $unwind$??__Egc_CtrAttach@NmConst@@YAXXZ 000000018002eddc     Listener.obj
 0002:00006ddc       $unwind$??__FmibEmsUse@NmConst@@YAXXZ 000000018002eddc     Listener.obj
 0002:00006ddc       $unwind$??__Fgc_CtrDetach@NmConst@@YAXXZ 000000018002eddc     WorkThreadNm.obj
 0002:00006ddc       $unwind$??__Egc_CtrDetach@NmConst@@YAXXZ 000000018002eddc     WorkThreadNm.obj
 0002:00006ddc       $unwind$??__Fgc_nItemTypeAnalog@NmConst@@YAXXZ 000000018002eddc     Listener.obj
 0002:00006ddc       $unwind$??__Fgc_CtrStar@NmConst@@YAXXZ 000000018002eddc     WorkThreadNm.obj
 0002:00006ddc       $unwind$??__Egc_sTcpState@NmConst@@YAXXZ 000000018002eddc     ProtocolComm.obj
 0002:00006ddc       $unwind$??__Egc_CtrStar@NmConst@@YAXXZ 000000018002eddc     WorkThreadNm.obj
 0002:00006ddc       $unwind$??__Fgc_CtrRestar@NmConst@@YAXXZ 000000018002eddc     WorkThreadNm.obj
 0002:00006ddc       $unwind$??__Egc_CtrRestar@NmConst@@YAXXZ 000000018002eddc     WorkThreadNm.obj
 0002:00006ddc       $unwind$?Init@CTcpAppProcessClient@@UEAAHPEAVCConfig@@@Z 000000018002eddc     ProtocolProcess.obj
 0002:00006ddc       $unwind$??__Fgc_CtrQuit@NmConst@@YAXXZ 000000018002eddc     WorkThreadNm.obj
 0002:00006ddc       $unwind$??__Fgc_sTcpOutBytesAve@NmConst@@YAXXZ 000000018002eddc     Selector.obj
 0002:00006ddc       $unwind$??__Egc_CtrQuit@NmConst@@YAXXZ 000000018002eddc     WorkThreadNm.obj
 0002:00006ddc       $unwind$??__FmibDisk_Used_Ratio@NmConst@@YAXXZ 000000018002eddc     Selector.obj
 0002:00006ddc       $unwind$??__Fgc_nItemTypeConfig@NmConst@@YAXXZ 000000018002eddc     WorkThreadNm.obj
 0002:00006ddc       $unwind$??__Egc_nItemTypeConfig@NmConst@@YAXXZ 000000018002eddc     WorkThreadNm.obj
 0002:00006ddc       $unwind$??__Fgc_nItemTypeAnalog@NmConst@@YAXXZ 000000018002eddc     WorkThreadNm.obj
 0002:00006ddc       $unwind$?Init@CTcpAppProcessServer@@UEAAHPEAVCConfig@@@Z 000000018002eddc     ProtocolProcess.obj
 0002:00006ddc       $unwind$??__Egc_nItemTypeAnalog@NmConst@@YAXXZ 000000018002eddc     WorkThreadNm.obj
 0002:00006ddc       $unwind$??__Fgc_nItemTypeConfig@NmConst@@YAXXZ 000000018002eddc     ProtocolProcess.obj
 0002:00006ddc       $unwind$??__Fgc_nItemTypeDigital@NmConst@@YAXXZ 000000018002eddc     WorkThreadNm.obj
 0002:00006ddc       $unwind$??__Egc_sTcpOutBytesAve@NmConst@@YAXXZ 000000018002eddc     Selector.obj
 0002:00006ddc       $unwind$??__Egc_nItemTypeDigital@NmConst@@YAXXZ 000000018002eddc     WorkThreadNm.obj
 0002:00006ddc       $unwind$??__FmibPartIndex@NmConst@@YAXXZ 000000018002eddc     Selector.obj
 0002:00006ddc       $unwind$?Init@CTcpShortProcess@@UEAAHPEAVCConfig@@@Z 000000018002eddc     ProtocolProcess.obj
 0002:00006ddc       $unwind$??__Fgc_sTcpInBytesAve@NmConst@@YAXXZ 000000018002eddc     Selector.obj
 0002:00006ddc       $unwind$??__Fgc_CtrDetach@NmConst@@YAXXZ 000000018002eddc     Listener.obj
 0002:00006ddc       $unwind$??__Egc_sThreadNum@NmConst@@YAXXZ 000000018002eddc     Selector.obj
 0002:00006ddc       $unwind$??__EmibEmsRadio@NmConst@@YAXXZ 000000018002eddc     Listener.obj
 0002:00006ddc       $unwind$??__Egc_CtrDetach@NmConst@@YAXXZ 000000018002eddc     Listener.obj
 0002:00006ddc       $unwind$??__Egc_sTcpInBytesAve@NmConst@@YAXXZ 000000018002eddc     Selector.obj
 0002:00006ddc       $unwind$??__Fgc_sThreadNum@NmConst@@YAXXZ 000000018002eddc     Selector.obj
 0002:00006ddc       $unwind$??__Egc_nItemTypeConfig@NmConst@@YAXXZ 000000018002eddc     ProtocolProcess.obj
 0002:00006ddc       $unwind$??__Fgc_CtrStar@NmConst@@YAXXZ 000000018002eddc     Listener.obj
 0002:00006ddc       $unwind$??__Egc_sThreadIdx@NmConst@@YAXXZ 000000018002eddc     Selector.obj
 0002:00006ddc       $unwind$??__Egc_nItemTypeDigital@NmConst@@YAXXZ 000000018002eddc     ProtocolProcess.obj
 0002:00006ddc       $unwind$??__Egc_CtrStar@NmConst@@YAXXZ 000000018002eddc     Listener.obj
 0002:00006ddc       $unwind$?dllmain_crt_dispatch@@YAHQEAUHINSTANCE__@@KQEAX@Z 000000018002eddc     MSVCRT:dll_dllmain.obj
 0002:00006ddc       $unwind$??__Emib_NodeId@NmConst@@YAXXZ 000000018002eddc     Listener.obj
 0002:00006ddc       $unwind$??__Fgc_sTcpState@NmConst@@YAXXZ 000000018002eddc     Selector.obj
 0002:00006ddc       $unwind$??__Fgc_sTcpRemotePort@NmConst@@YAXXZ 000000018002eddc     ProtocolComm.obj
 0002:00006ddc       $unwind$??__Fgc_sThreadIdx@NmConst@@YAXXZ 000000018002eddc     Selector.obj
 0002:00006ddc       $unwind$??__Fgc_nItemTypeAnalog@NmConst@@YAXXZ 000000018002eddc     ProtocolProcess.obj
 0002:00006ddc       $unwind$??__Egc_sTcpRemotePort@NmConst@@YAXXZ 000000018002eddc     ProtocolComm.obj
 0002:00006ddc       $unwind$??__Fgc_CtrRestar@NmConst@@YAXXZ 000000018002eddc     Listener.obj
 0002:00006ddc       $unwind$??__Egc_sThreadState@NmConst@@YAXXZ 000000018002eddc     Selector.obj
 0002:00006ddc       $unwind$DllMain            000000018002eddc     MSVCRT:dll_dllmain_stub.obj
 0002:00006ddc       $unwind$atexit             000000018002eddc     MSVCRT:utility.obj
 0002:00006ddc       $unwind$??__EmibPartIndex@NmConst@@YAXXZ 000000018002eddc     Selector.obj
 0002:00006ddc       $unwind$??__FmibEmsRadio@NmConst@@YAXXZ 000000018002eddc     Listener.obj
 0002:00006ddc       $unwind$?IsNetManaged@CSelectorIo@@EEAA_NAEAV?$basic_string@DU?$char_traits@D@std@@V?$allocator@D@2@@std@@@Z 000000018002eddc     Selector.obj
 0002:00006ddc       $unwind$??__Fgc_sTcpRemoteIp@NmConst@@YAXXZ 000000018002eddc     ProtocolComm.obj
 0002:00006ddc       $unwind$??__Egc_CtrRestar@NmConst@@YAXXZ 000000018002eddc     Listener.obj
 0002:00006ddc       $unwind$__scrt_acquire_startup_lock 000000018002eddc     MSVCRT:utility.obj
 0002:00006ddc       $unwind$??__Egc_sTcpRemoteIp@NmConst@@YAXXZ 000000018002eddc     ProtocolComm.obj
 0002:00006ddc       $unwind$??__EmibDiskNum@NmConst@@YAXXZ 000000018002eddc     Listener.obj
 0002:00006ddc       $unwind$??__Fgc_nItemTypeDigital@NmConst@@YAXXZ 000000018002eddc     Selector.obj
 0002:00006ddc       $unwind$??__Fgc_sTcpLocalPort@NmConst@@YAXXZ 000000018002eddc     ProtocolComm.obj
 0002:00006ddc       $unwind$??__FmibDiskNum@NmConst@@YAXXZ 000000018002eddc     Selector.obj
 0002:00006ddc       $unwind$??__Egc_sTcpState@NmConst@@YAXXZ 000000018002eddc     Selector.obj
 0002:00006ddc       $unwind$??__Egc_sTcpLocalIp@NmConst@@YAXXZ 000000018002eddc     Selector.obj
 0002:00006ddc       $unwind$?deallocate@?$_Wrap_alloc@V?$allocator@H@std@@@std@@QEAAXPEAH_K@Z 000000018002eddc     Connector.obj
 0002:00006ddc       $unwind$?deallocate@?$allocator@D@std@@QEAAXPEAD_K@Z 000000018002eddc     Connector.obj
 0002:00006ddc       $unwind$??__FmibDiskNum@NmConst@@YAXXZ 000000018002eddc     Listener.obj
 0002:00006ddc       $unwind$??__Egc_sTcpLocalPort@NmConst@@YAXXZ 000000018002eddc     ProtocolComm.obj
 0002:00006ddc       $unwind$??__Fgc_sTcpRemotePort@NmConst@@YAXXZ 000000018002eddc     Selector.obj
 0002:00006ddc       $unwind$??__EmibDiskNum@NmConst@@YAXXZ 000000018002eddc     Selector.obj
 0002:00006ddc       $unwind$??__EmibPartIndex@NmConst@@YAXXZ 000000018002eddc     Listener.obj
 0002:00006ddc       $unwind$__scrt_dllmain_before_initialize_c 000000018002eddc     MSVCRT:utility.obj
 0002:00006ddc       $unwind$?deallocate@?$_Wrap_alloc@V?$allocator@V?$basic_string@DU?$char_traits@D@std@@V?$allocator@D@2@@std@@@std@@@std@@QEAAXPEAV?$basic_string@DU?$char_traits@D@std@@V?$allocator@D@2@@2@_K@Z 000000018002eddc     Connector.obj
 0002:00006ddc       $unwind$??__Egc_sTcpRemotePort@NmConst@@YAXXZ 000000018002eddc     Selector.obj
 0002:00006ddc       $unwind$??__FmibEmsRadio@NmConst@@YAXXZ 000000018002eddc     Selector.obj
 0002:00006ddc       $unwind$??__Egc_nItemTypeAnalog@NmConst@@YAXXZ 000000018002eddc     ProtocolProcess.obj
 0002:00006ddc       $unwind$??__Fgc_sTcpLocalIp@NmConst@@YAXXZ 000000018002eddc     ProtocolComm.obj
 0002:00006ddc       $unwind$??__FmibPartIndex@NmConst@@YAXXZ 000000018002eddc     Listener.obj
 0002:00006ddc       $unwind$??__Egc_sTcpLocalIp@NmConst@@YAXXZ 000000018002eddc     ProtocolComm.obj
 0002:00006ddc       $unwind$?deallocate@?$_Wrap_alloc@V?$allocator@U?$pair@V?$basic_string@DU?$char_traits@D@std@@V?$allocator@D@2@@std@@H@std@@@std@@@std@@QEAAXPEAU?$pair@V?$basic_string@DU?$char_traits@D@std@@V?$allocator@D@2@@std@@H@2@_K@Z 000000018002eddc     Connector.obj
 0002:00006ddc       $unwind$__scrt_dllmain_after_initialize_c 000000018002eddc     MSVCRT:utility.obj
 0002:00006ddc       $unwind$??__EmibDiskPhyTotal@NmConst@@YAXXZ 000000018002eddc     Listener.obj
 0002:00006ddc       $unwind$??__EmibEmsRadio@NmConst@@YAXXZ 000000018002eddc     Selector.obj
 0002:00006ddc       $unwind$??__FmibDiskPhyTotal@NmConst@@YAXXZ 000000018002eddc     Listener.obj
 0002:00006ddc       $unwind$??__FmibEmsUse@NmConst@@YAXXZ 000000018002eddc     Selector.obj
 0002:00006ddc       $unwind$??__EmibDisk_Used@NmConst@@YAXXZ 000000018002eddc     Listener.obj
 0002:00006ddc       $unwind$??__EmibEmsUse@NmConst@@YAXXZ 000000018002eddc     Selector.obj
 0002:00006ddc       $unwind$??__FmibDisk_Used@NmConst@@YAXXZ 000000018002eddc     Listener.obj
 0002:00006ddc       $unwind$??__FmibEmsTotal@NmConst@@YAXXZ 000000018002eddc     Selector.obj
 0002:00006ddc       $unwind$??__EmibDisk_Used_Ratio@NmConst@@YAXXZ 000000018002eddc     Listener.obj
 0002:00006ddc       $unwind$??__Fgc_sTcpOutBytesAve@NmConst@@YAXXZ 000000018002eddc     Listener.obj
 0002:00006ddc       $unwind$??__FmibDisk_Used_Ratio@NmConst@@YAXXZ 000000018002eddc     Listener.obj
 0002:00006ddc       $unwind$??__EmibEmsTotal@NmConst@@YAXXZ 000000018002eddc     Selector.obj
